
DrumSynthFront.elf:     file format elf32-avr

Sections:
Idx Name          Size      VMA       LMA       File off  Algn
  0 .data         00000120  00800100  00008d3c  00008dd0  2**0
                  CONTENTS, ALLOC, LOAD, DATA
  1 .text         00008d3c  00000000  00000000  00000094  2**1
                  CONTENTS, ALLOC, LOAD, READONLY, CODE
  2 .bss          00000b7b  00800220  00800220  00008ef0  2**0
                  ALLOC
  3 .stab         00002ad8  00000000  00000000  00008ef0  2**2
                  CONTENTS, READONLY, DEBUGGING
  4 .stabstr      00000c31  00000000  00000000  0000b9c8  2**0
                  CONTENTS, READONLY, DEBUGGING
  5 .debug_aranges 00000060  00000000  00000000  0000c5f9  2**0
                  CONTENTS, READONLY, DEBUGGING
  6 .debug_pubnames 00000059  00000000  00000000  0000c659  2**0
                  CONTENTS, READONLY, DEBUGGING
  7 .debug_info   0000066e  00000000  00000000  0000c6b2  2**0
                  CONTENTS, READONLY, DEBUGGING
  8 .debug_abbrev 00000335  00000000  00000000  0000cd20  2**0
                  CONTENTS, READONLY, DEBUGGING
  9 .debug_line   000009a9  00000000  00000000  0000d055  2**0
                  CONTENTS, READONLY, DEBUGGING
 10 .debug_frame  00000060  00000000  00000000  0000da00  2**2
                  CONTENTS, READONLY, DEBUGGING
 11 .debug_str    00000207  00000000  00000000  0000da60  2**0
                  CONTENTS, READONLY, DEBUGGING
 12 .debug_loc    000006f1  00000000  00000000  0000dc67  2**0
                  CONTENTS, READONLY, DEBUGGING
 13 .debug_pubtypes 000000c4  00000000  00000000  0000e358  2**0
                  CONTENTS, READONLY, DEBUGGING
 14 .debug_ranges 00000048  00000000  00000000  0000e41c  2**0
                  CONTENTS, READONLY, DEBUGGING

Disassembly of section .text:

00000000 <__vectors>:
       0:	0c 94 28 08 	jmp	0x1050	; 0x1050 <__ctors_end>
       4:	0c 94 45 08 	jmp	0x108a	; 0x108a <__bad_interrupt>
       8:	0c 94 45 08 	jmp	0x108a	; 0x108a <__bad_interrupt>
       c:	0c 94 45 08 	jmp	0x108a	; 0x108a <__bad_interrupt>
      10:	0c 94 45 08 	jmp	0x108a	; 0x108a <__bad_interrupt>
      14:	0c 94 45 08 	jmp	0x108a	; 0x108a <__bad_interrupt>
      18:	0c 94 45 08 	jmp	0x108a	; 0x108a <__bad_interrupt>
      1c:	0c 94 45 08 	jmp	0x108a	; 0x108a <__bad_interrupt>
      20:	0c 94 45 08 	jmp	0x108a	; 0x108a <__bad_interrupt>
      24:	0c 94 45 08 	jmp	0x108a	; 0x108a <__bad_interrupt>
      28:	0c 94 45 08 	jmp	0x108a	; 0x108a <__bad_interrupt>
      2c:	0c 94 af 24 	jmp	0x495e	; 0x495e <__vector_11>
      30:	0c 94 45 08 	jmp	0x108a	; 0x108a <__bad_interrupt>
      34:	0c 94 45 08 	jmp	0x108a	; 0x108a <__bad_interrupt>
      38:	0c 94 45 08 	jmp	0x108a	; 0x108a <__bad_interrupt>
      3c:	0c 94 45 08 	jmp	0x108a	; 0x108a <__bad_interrupt>
      40:	0c 94 04 0d 	jmp	0x1a08	; 0x1a08 <__vector_16>
      44:	0c 94 45 08 	jmp	0x108a	; 0x108a <__bad_interrupt>
      48:	0c 94 45 08 	jmp	0x108a	; 0x108a <__bad_interrupt>
      4c:	0c 94 45 08 	jmp	0x108a	; 0x108a <__bad_interrupt>
      50:	0c 94 18 26 	jmp	0x4c30	; 0x4c30 <__vector_20>
      54:	0c 94 40 26 	jmp	0x4c80	; 0x4c80 <__vector_21>
      58:	0c 94 45 08 	jmp	0x108a	; 0x108a <__bad_interrupt>
      5c:	0c 94 45 08 	jmp	0x108a	; 0x108a <__bad_interrupt>
      60:	0c 94 45 08 	jmp	0x108a	; 0x108a <__bad_interrupt>
      64:	0c 94 45 08 	jmp	0x108a	; 0x108a <__bad_interrupt>
      68:	0c 94 45 08 	jmp	0x108a	; 0x108a <__bad_interrupt>
      6c:	0c 94 45 08 	jmp	0x108a	; 0x108a <__bad_interrupt>

00000070 <__c.1743>:
      70:	73 64 20 63 61 72 64 20 6f 6b 00                    sd card ok.

0000007b <__c.1741>:
      7b:	75 6e 6b 6e 6f 77 6e 20 53 44 20 63 61 72 64 20     unknown SD card 
      8b:	65 72 72 6f 72 00                                   error.

00000091 <__c.1739>:
      91:	43 61 72 64 20 49 6e 69 74 69 61 6c 69 7a 61 74     Card Initializat
      a1:	69 6f 6e 20 66 61 69 6c 65 64 2e 2e 00              ion failed...

000000ae <__c.1737>:
      ae:	53 44 20 63 61 72 64 20 6e 6f 74 20 64 65 74 65     SD card not dete
      be:	63 74 65 64 2e 2e 00                                cted...

000000c5 <__c.1732>:
      c5:	73 70 69 20 69 6e 69 74 00                          spi init.

000000ce <__c.2854>:
      ce:	4a 2e 20 53 63 68 6d 69 64 74 20 32 30 31 32 00     J. Schmidt 2012.

000000de <__c.2852>:
      de:	20 20 20 52 50 2d 31 20 56 00                          RP-1 V.

000000e8 <menuPages>:
      e8:	01 02 21 00 00 00 00 00 08 09 01 00 00 00 00 00     ..!.............
      f8:	03 04 1e 00 00 00 00 00 31 32 3e 00 00 00 00 00     ........12>.....
     108:	05 1e 06 38 39 3a 00 00 46 4e 4a 95 8f 89 00 00     ...89:..FNJ.....
     118:	07 08 21 35 00 00 00 00 52 53 14 86 00 00 00 00     ..!5....RS......
     128:	22 23 24 00 00 00 00 00 cb c5 d1 00 00 00 00 00     "#$.............
     138:	0f 10 11 37 00 00 00 00 25 2b bf 80 00 00 00 00     ...7....%+......
     148:	16 1a 17 18 1b 1c 1d 19 73 b3 79 9b ad b9 a1 a7     ........s.y.....
     158:	0a 0b 32 09 31 2d 00 00 58 5e 6c 66 d7 f7 00 00     ..2.1-..X^lf....
     168:	01 02 21 00 00 00 00 00 0a 0b 02 00 00 00 00 00     ..!.............
     178:	03 04 1e 00 00 00 00 00 33 34 3f 00 00 00 00 00     ........34?.....
     188:	05 1e 06 38 39 3a 00 00 47 4f 4b 96 90 8a 00 00     ...89:..GOK.....
     198:	07 08 21 35 00 00 00 00 54 55 15 87 00 00 00 00     ..!5....TU......
     1a8:	22 23 24 00 00 00 00 00 cc c6 d2 00 00 00 00 00     "#$.............
     1b8:	0f 10 11 37 00 00 00 00 26 2c c0 81 00 00 00 00     ...7....&,......
     1c8:	16 1a 17 18 1b 1c 1d 19 74 b4 7a 9c ae ba a2 a8     ........t.z.....
     1d8:	0a 0b 32 09 31 2d 00 00 59 5f 6d 67 d8 f7 00 00     ..2.1-..Y_mg....
     1e8:	01 02 21 00 00 00 00 00 0c 0d 03 00 00 00 00 00     ..!.............
     1f8:	03 04 1e 00 00 00 00 00 35 36 40 00 00 00 00 00     ........56@.....
     208:	05 1e 06 38 39 3a 00 00 48 50 4c 97 91 8b 00 00     ...89:..HPL.....
     218:	07 08 21 35 00 00 00 00 56 57 16 88 00 00 00 00     ..!5....VW......
     228:	22 23 24 00 00 00 00 00 cd c7 d3 00 00 00 00 00     "#$.............
     238:	0f 10 11 37 00 00 00 00 27 2d c1 82 00 00 00 00     ...7....'-......
     248:	16 1a 17 18 1b 1c 1d 19 75 b5 7b 9d af bb a3 a9     ........u.{.....
     258:	0a 0b 32 09 31 2d 00 00 5a 60 6e 68 d9 f7 00 00     ..2.1-..Z`nh....
     268:	01 02 0c 0d 21 00 00 00 0e 0f 1b 1c 04 00 00 00     ....!...........
     278:	03 04 0e 1e 00 00 00 00 37 38 44 41 00 00 00 00     ........78DA....
     288:	05 1e 06 38 39 3a 00 00 49 51 4d 98 92 8c 00 00     ...89:..IQM.....
	...
     2a8:	22 23 24 00 00 00 00 00 ce c8 d4 00 00 00 00 00     "#$.............
     2b8:	0f 10 11 37 00 00 00 00 28 2e c2 83 00 00 00 00     ...7....(.......
     2c8:	16 1a 17 18 1b 1c 1d 19 76 b6 7c 9e b0 bc a4 aa     ........v.|.....
     2d8:	0a 0b 32 09 31 2d 00 00 5b 63 6f 69 da f7 00 00     ..2.1-..[coi....
     2e8:	01 02 21 00 00 00 00 00 10 11 06 00 00 00 00 00     ..!.............
     2f8:	03 04 0e 1e 00 00 00 00 39 3a 45 42 00 00 00 00     ........9:EB....
     308:	38 39 3a 00 00 00 00 00 99 93 8d 00 00 00 00 00     89:.............
     318:	12 13 14 15 21 21 00 00 1d 1e 1f 20 17 18 00 00     ....!!..... ....
     328:	22 23 24 00 00 00 00 00 cf c9 d5 00 00 00 00 00     "#$.............
     338:	0f 10 11 37 00 00 00 00 29 2f c3 84 00 00 00 00     ...7....)/......
     348:	16 1a 17 18 1b 1c 1d 19 77 b7 7d 9f b1 bd a5 ab     ........w.}.....
     358:	0a 0b 32 09 31 2d 00 00 5c 64 70 6a db f7 00 00     ..2.1-..\dpj....
     368:	01 02 21 00 00 00 00 00 12 13 07 00 00 00 00 00     ..!.............
     378:	03 1f 20 1e 00 00 00 00 3b 3c 3d 43 00 00 00 00     .. .....;<=C....
     388:	38 39 3a 00 00 00 00 00 9a 94 8e 00 00 00 00 00     89:.............
     398:	12 13 14 15 21 21 00 00 21 22 23 24 19 1a 00 00     ....!!..!"#$....
     3a8:	22 23 24 00 00 00 00 00 d0 ca d6 00 00 00 00 00     "#$.............
     3b8:	0f 10 11 37 00 00 00 00 2a 30 c4 85 00 00 00 00     ...7....*0......
     3c8:	16 1a 17 18 1b 1c 1d 19 78 b8 7e a0 b2 be a6 ac     ........x.~.....
     3d8:	0a 0b 32 09 31 2d 00 00 5d 65 71 6b dc f7 00 00     ..2.1-..]eqk....
     3e8:	01 02 21 00 00 00 00 00 12 13 07 00 00 00 00 00     ..!.............
     3f8:	03 1f 20 1e 00 00 00 00 3b 3c 3d 43 00 00 00 00     .. .....;<=C....
     408:	38 39 3a 00 00 00 00 00 9a 94 8e 00 00 00 00 00     89:.............
     418:	12 13 14 15 21 21 00 00 21 22 23 24 19 1a 00 00     ....!!..!"#$....
     428:	22 23 24 00 00 00 00 00 d0 ca d6 00 00 00 00 00     "#$.............
     438:	0f 10 11 37 00 00 00 00 2a 30 c4 85 00 00 00 00     ...7....*0......
     448:	16 1a 17 18 1b 1c 1d 19 78 b8 7e a0 b2 be a6 ac     ........x.~.....
     458:	0a 0b 32 09 31 2d 00 00 5d 65 71 6b dc f7 00 00     ..2.1-..]eqk....
     468:	2f 3b 3c 3d 00 00 00 00 ed f4 f5 f6 00 00 00 00     /;<=............
	...
     5e8:	27 28 32 41 00 00 00 00 dd de 72 ea 00 00 00 00     '(2A......r.....
	...
     668:	29 2a 2b 3f 40 3f 40 00 e0 e2 e1 e6 e8 e7 e9 00     )*+?@?@.........
	...
     6e8:	2d 2e 28 27 00 00 00 00 e3 e4 de dd 00 00 00 00     -.('............
	...
     768:	33 34 00 00 00 00 00 00 eb ec 00 00 00 00 00 00     34..............
	...
     7e8:	3e 3d 00 00 00 00 00 00 e5 f6 00 00 00 00 00 00     >=..............
	...

00000868 <quantisationNames>:
     868:	05 00 00 00 6f 66 66 00 38 00 00 00 31 36 00 00     ....off.8...16..
     878:	33 32 00 00 36 34 00 00                             32..64..

00000880 <nextPatternNames>:
     880:	0f 00 00 00 70 31 00 00 70 32 00 00 70 33 00 00     ....p1..p2..p3..
     890:	70 34 00 00 70 35 00 00 70 36 00 00 70 37 00 00     p4..p5..p6..p7..
     8a0:	70 38 00 00 72 32 00 00 72 33 00 00 72 34 00 00     p8..r2..r3..r4..
     8b0:	72 35 00 00 72 36 00 00 72 37 00 00 72 38 00 00     r5..r6..r7..r8..

000008c0 <retriggerNames>:
     8c0:	07 00 00 00 6f 66 66 00 76 31 00 00 76 32 00 00     ....off.v1..v2..
     8d0:	76 33 00 00 76 34 00 00 76 35 00 00 76 36 00 00     v3..v4..v5..v6..

000008e0 <lfoWaveNames>:
     8e0:	08 00 00 00 73 69 6e 00 74 72 69 00 73 75 70 00     ....sin.tri.sup.
     8f0:	73 64 6e 00 73 71 72 00 72 6e 64 00 78 75 70 00     sdn.sqr.rnd.xup.
     900:	78 64 6e 00                                         xdn.

00000904 <rollRateNames>:
     904:	0e 00 00 00 4f 6e 65 00 31 2f 31 00 31 2f 32 00     ....One.1/1.1/2.
     914:	31 2f 33 00 31 2f 34 00 31 2f 36 00 31 2f 38 00     1/3.1/4.1/6.1/8.
     924:	31 32 00 00 31 36 00 00 32 34 00 00 33 32 00 00     12..16..24..32..
     934:	34 38 00 00 36 34 00 00 31 32 38 00                 48..64..128.

00000940 <syncRateNames>:
     940:	0c 00 00 00 6f 66 66 00 34 2f 31 00 32 2f 31 00     ....off.4/1.2/1.
     950:	31 2f 31 00 31 2f 32 00 31 2f 33 00 31 2f 34 00     1/1.1/2.1/3.1/4.
     960:	31 2f 36 00 31 2f 38 00 31 32 00 00 31 36 00 00     1/6.1/8.12..16..
     970:	33 32 00 00                                         32..

00000974 <waveformNames>:
     974:	06 00 00 00 53 69 6e 00 54 72 69 00 53 61 77 00     ....Sin.Tri.Saw.
     984:	52 65 63 00 4e 6f 69 00 43 79 6d 00                 Rec.Noi.Cym.

00000990 <outputNames>:
     990:	06 00 00 00 00 00 00 53 74 31 00 00 00 00 53 74     .......St1....St
     9a0:	32 00 00 00 00 4c 31 00 00 00 00 00 52 31 00 00     2....L1.....R1..
     9b0:	00 00 00 4c 32 00 00 00 00 00 52 32 00 00 00 00     ...L2.....R2....
	...

000009c1 <filterTypes>:
     9c1:	06 00 00 00 00 00 00 4c 50 00 00 00 00 00 48 50     .......LP.....HP
     9d1:	00 00 00 00 00 42 50 00 00 00 00 00 55 42 50 00     .....BP.....UBP.
     9e1:	00 00 00 4e 6f 74 00 00 00 00 50 65 6b 00 00 00     ...Not....Pek...
	...

000009f2 <shortNames>:
     9f2:	00 00 00 00 63 6f 61 00 66 69 6e 00 61 74 74 00     ....coa.fin.att.
     a02:	64 65 63 00 65 67 32 00 6d 6f 64 00 61 6d 74 00     dec.eg2.mod.amt.
     a12:	66 72 71 00 64 72 76 00 76 6f 6c 00 70 61 6e 00     frq.drv.vol.pan.
     a22:	6e 6f 69 00 72 70 74 00 6d 69 78 00 72 65 73 00     noi.rpt.mix.res.
     a32:	74 79 70 00 66 31 00 00 66 32 00 00 67 31 00 00     typ.f1..f2..g1..
     a42:	67 32 00 00 77 61 76 00 64 73 74 00 73 6e 63 00     g2..wav.dst.snc.
     a52:	72 74 67 00 6f 66 66 00 76 6f 69 00 73 6c 70 00     rtg.off.voi.slp.
     a62:	64 31 00 00 64 32 00 00 65 71 67 00 65 71 66 00     d1..d2..eqg.eqf.
     a72:	72 6f 6c 00 6d 72 70 00 6e 74 65 00 70 72 62 00     rol.mrp.nte.prb.
     a82:	73 74 70 00 6c 65 6e 00 62 70 6d 00 63 68 20 00     stp.len.bpm.ch .
     a92:	6f 75 74 00 73 72 00 00 6e 78 74 00 6d 6f 64 00     out.sr..nxt.mod.
     aa2:	76 65 6c 00 66 65 74 00 66 6c 77 00 71 6e 74 00     vel.fet.flw.qnt.
     ab2:	74 72 6b 00 76 61 6c 00 73 68 75 00                 trk.val.shu.

00000abe <catNames>:
	...
     ace:	4f 73 63 69 6c 6c 61 74 6f 72 00 00 00 00 00 00     Oscillator......
     ade:	56 65 6c 6f 63 69 74 79 20 45 47 00 00 00 00 00     Velocity EG.....
     aee:	4d 6f 64 20 45 47 00 00 00 00 00 00 00 00 00 00     Mod EG..........
     afe:	50 69 74 63 68 20 4d 6f 64 2e 00 00 00 00 00 00     Pitch Mod.......
     b0e:	46 4d 00 00 00 00 00 00 00 00 00 00 00 00 00 00     FM..............
     b1e:	56 6f 69 63 65 00 00 00 00 00 00 00 00 00 00 00     Voice...........
     b2e:	4e 6f 69 73 65 00 00 00 00 00 00 00 00 00 00 00     Noise...........
     b3e:	4e 6f 69 73 65 2f 4f 73 63 00 00 00 00 00 00 00     Noise/Osc.......
     b4e:	46 69 6c 74 65 72 00 00 00 00 00 00 00 00 00 00     Filter..........
     b5e:	4d 6f 64 2e 20 4f 73 63 00 00 00 00 00 00 00 00     Mod. Osc........
     b6e:	4c 46 4f 00 00 00 00 00 00 00 00 00 00 00 00 00     LFO.............
     b7e:	54 72 61 6e 73 69 65 6e 74 00 00 00 00 00 00 00     Transient.......
     b8e:	45 51 00 00 00 00 00 00 00 00 00 00 00 00 00 00     EQ..............
     b9e:	50 61 74 74 65 72 6e 00 00 00 00 00 00 00 00 00     Pattern.........
     bae:	53 6f 75 6e 64 00 00 00 00 00 00 00 00 00 00 00     Sound...........
     bbe:	53 74 65 70 00 00 00 00 00 00 00 00 00 00 00 00     Step............
     bce:	45 75 6b 6c 69 64 00 00 00 00 00 00 00 00 00 00     Euklid..........
     bde:	47 6c 6f 62 61 6c 00 00 00 00 00 00 00 00 00 00     Global..........
     bee:	56 65 6c 6f 63 69 74 79 00 00 00 00 00 00 00 00     Velocity........
     bfe:	50 61 72 61 6d 65 74 65 72 00 00 00 00 00 00 00     Parameter.......
     c0e:	53 65 71 75 65 6e 63 65 72 00 00 00 00 00 00 00     Sequencer.......

00000c1e <longNames>:
	...
     c2e:	43 6f 61 72 73 65 00 00 00 00 00 00 00 00 00 00     Coarse..........
     c3e:	46 69 6e 65 00 00 00 00 00 00 00 00 00 00 00 00     Fine............
     c4e:	41 74 74 61 63 6b 00 00 00 00 00 00 00 00 00 00     Attack..........
     c5e:	44 65 63 61 79 00 00 00 00 00 00 00 00 00 00 00     Decay...........
     c6e:	41 6d 6f 75 6e 74 00 00 00 00 00 00 00 00 00 00     Amount..........
     c7e:	46 72 65 71 75 65 6e 63 79 00 00 00 00 00 00 00     Frequency.......
     c8e:	4f 76 65 72 64 72 69 76 65 00 00 00 00 00 00 00     Overdrive.......
     c9e:	56 6f 6c 75 6d 65 00 00 00 00 00 00 00 00 00 00     Volume..........
     cae:	50 61 6e 6e 69 6e 67 00 00 00 00 00 00 00 00 00     Panning.........
     cbe:	4d 69 78 00 00 00 00 00 00 00 00 00 00 00 00 00     Mix.............
     cce:	52 65 70 65 61 74 20 43 6f 75 6e 74 00 00 00 00     Repeat Count....
     cde:	52 65 73 6f 6e 61 6e 63 65 00 00 00 00 00 00 00     Resonance.......
     cee:	54 79 70 65 00 00 00 00 00 00 00 00 00 00 00 00     Type............
     cfe:	47 61 69 6e 00 00 00 00 00 00 00 00 00 00 00 00     Gain............
     d0e:	57 61 76 65 66 6f 72 6d 00 00 00 00 00 00 00 00     Waveform........
     d1e:	44 65 73 74 2e 20 50 61 72 61 6d 2e 00 00 00 00     Dest. Param.....
     d2e:	43 6c 6f 63 6b 20 53 79 6e 63 00 00 00 00 00 00     Clock Sync......
     d3e:	52 65 74 72 69 67 67 65 72 00 00 00 00 00 00 00     Retrigger.......
     d4e:	4f 66 66 73 65 74 00 00 00 00 00 00 00 00 00 00     Offset..........
     d5e:	44 65 73 74 2e 20 56 6f 69 63 65 00 00 00 00 00     Dest. Voice.....
     d6e:	53 6c 6f 70 65 00 00 00 00 00 00 00 00 00 00 00     Slope...........
     d7e:	44 65 63 61 79 20 43 6c 6f 73 65 64 00 00 00 00     Decay Closed....
     d8e:	44 65 63 61 79 20 4f 70 65 6e 00 00 00 00 00 00     Decay Open......
     d9e:	52 6f 6c 6c 20 52 61 74 65 00 00 00 00 00 00 00     Roll Rate.......
     dae:	4d 6f 72 70 68 00 00 00 00 00 00 00 00 00 00 00     Morph...........
     dbe:	4e 6f 74 65 00 00 00 00 00 00 00 00 00 00 00 00     Note............
     dce:	50 72 6f 62 61 62 69 6c 69 74 79 00 00 00 00 00     Probability.....
     dde:	4e 75 6d 62 65 72 00 00 00 00 00 00 00 00 00 00     Number..........
     dee:	4c 65 6e 67 74 68 00 00 00 00 00 00 00 00 00 00     Length..........
     dfe:	53 74 65 70 73 00 00 00 00 00 00 00 00 00 00 00     Steps...........
     e0e:	54 65 6d 70 6f 00 00 00 00 00 00 00 00 00 00 00     Tempo...........
     e1e:	41 75 64 69 6f 20 4f 75 74 00 00 00 00 00 00 00     Audio Out.......
     e2e:	4d 49 44 49 20 43 68 61 6e 6e 65 6c 00 00 00 00     MIDI Channel....
     e3e:	53 61 6d 70 6c 65 20 52 61 74 65 00 00 00 00 00     Sample Rate.....
     e4e:	4e 65 78 74 20 50 61 74 74 65 72 6e 00 00 00 00     Next Pattern....
     e5e:	50 68 61 73 65 00 00 00 00 00 00 00 00 00 00 00     Phase...........
     e6e:	4d 6f 64 65 00 00 00 00 00 00 00 00 00 00 00 00     Mode............
     e7e:	56 65 6c 6f 63 69 74 79 20 6d 6f 64 2e 00 00 00     Velocity mod....
     e8e:	46 65 74 63 68 00 00 00 00 00 00 00 00 00 00 00     Fetch...........
     e9e:	46 6f 6c 6c 6f 77 00 00 00 00 00 00 00 00 00 00     Follow..........
     eae:	51 75 61 6e 74 69 73 61 74 69 6f 6e 00 00 00 00     Quantisation....
     ebe:	41 75 74 6f 6d 2e 20 54 72 61 63 6b 00 00 00 00     Autom. Track....
     ece:	41 75 74 6f 6d 2e 20 44 65 73 74 2e 00 00 00 00     Autom. Dest.....
     ede:	41 75 74 6f 6d 2e 20 56 61 6c 75 65 00 00 00 00     Autom. Value....
     eee:	53 68 75 66 66 6c 65 00 00 00 00 00 00 00 00 00     Shuffle.........

00000efe <valueNames>:
     efe:	00 00 00 01 01 01 02 01 02 03 02 03 04 02 04 04     ................
     f0e:	03 04 06 04 05 07 05 05 08 05 06 09 06 07 0a 06     ................
     f1e:	08 0b 06 09 0c 07 06 0e 08 0a 0d 02 0b 08 09 06     ................
     f2e:	0f 09 0c 10 09 0d 11 0a 06 12 0a 06 13 0a 0e 14     ................
     f3e:	0a 0e 08 0b 06 06 0b 05 15 0b 0f 16 0b 10 17 0b     ................
     f4e:	11 18 0b 12 19 0b 13 1a 0b 14 1b 02 15 1c 02 16     ................
     f5e:	1d 02 17 15 01 0f 15 0c 0f 0a 0c 08 08 0c 06 1e     ................
     f6e:	0d 0e 1f 0d 06 20 0e 18 21 0f 19 0a 10 08 22 10     ..... ..!.....".
     f7e:	1a 23 10 1b 24 10 1c 25 0e 1d 24 11 1e 26 12 1f     .#..$..%..$..&..
     f8e:	27 06 21 28 06 20 29 06 22 0d 0e 0b 2a 0e 23 2b     '.!(. )."...*.#+
     f9e:	01 25 0a 01 08 09 09 07 16 13 10 07 13 05 2c 13     .%............,.
     fae:	26 2d 14 27 2e 15 28 2f 15 29 30 15 2a 16 15 2b     &-.'..(/.)0.*..+
     fbe:	31 15 2c 32 15 2d                                   1.,2.-

00000fc4 <__c.2816>:
     fc4:	65 6e 64 00                                         end.

00000fc8 <__c.2741>:
     fc8:	6f 6b 00                                            ok.

00000fcb <__c.2738>:
     fcb:	53 65 74 74 69 6e 67 73 00                          Settings.

00000fd4 <__c.2735>:
     fd4:	4d 6f 72 70 68 53 6e 64 00                          MorphSnd.

00000fdd <__c.2732>:
     fdd:	53 6f 75 6e 64 20 20 00                             Sound  .

00000fe5 <__c.2728>:
     fe5:	50 61 74 74 65 72 6e 00                             Pattern.

00000fed <__c.2725>:
     fed:	4c 6f 61 64 00                                      Load.

00000ff2 <__c.2723>:
     ff2:	6f 6b 00                                            ok.

00000ff5 <__c.2720>:
     ff5:	53 65 74 74 69 6e 67 73 00                          Settings.

00000ffe <__c.2717>:
     ffe:	4d 6f 72 70 68 53 6e 64 00                          MorphSnd.

00001007 <__c.2714>:
    1007:	50 61 74 74 65 72 6e 20 00                          Pattern .

00001010 <__c.2710>:
    1010:	53 6f 75 6e 64 20 20 20 00                          Sound   .

00001019 <__c.2707>:
    1019:	53 61 76 65 3a 00                                   Save:.

0000101f <__c.2835>:
    101f:	4c 6f 61 64 69 6e 67 20 70 61 74 74 65 72 6e 00     Loading pattern.

0000102f <__c.2802>:
    102f:	53 61 76 69 6e 67 20 70 61 74 74 65 72 6e 00        Saving pattern.

0000103e <__c.2762>:
    103e:	45 6d 70 74 79 20 20 20 00                          Empty   .

00001047 <__c.2749>:
    1047:	45 6d 70 74 79 20 20 20 00                          Empty   .

00001050 <__ctors_end>:
    1050:	11 24       	eor	r1, r1
    1052:	1f be       	out	0x3f, r1	; 63
    1054:	cf ef       	ldi	r28, 0xFF	; 255
    1056:	d0 e1       	ldi	r29, 0x10	; 16
    1058:	de bf       	out	0x3e, r29	; 62
    105a:	cd bf       	out	0x3d, r28	; 61

0000105c <__do_copy_data>:
    105c:	12 e0       	ldi	r17, 0x02	; 2
    105e:	a0 e0       	ldi	r26, 0x00	; 0
    1060:	b1 e0       	ldi	r27, 0x01	; 1
    1062:	ec e3       	ldi	r30, 0x3C	; 60
    1064:	fd e8       	ldi	r31, 0x8D	; 141
    1066:	02 c0       	rjmp	.+4      	; 0x106c <__do_copy_data+0x10>
    1068:	05 90       	lpm	r0, Z+
    106a:	0d 92       	st	X+, r0
    106c:	a0 32       	cpi	r26, 0x20	; 32
    106e:	b1 07       	cpc	r27, r17
    1070:	d9 f7       	brne	.-10     	; 0x1068 <__do_copy_data+0xc>

00001072 <__do_clear_bss>:
    1072:	1d e0       	ldi	r17, 0x0D	; 13
    1074:	a0 e2       	ldi	r26, 0x20	; 32
    1076:	b2 e0       	ldi	r27, 0x02	; 2
    1078:	01 c0       	rjmp	.+2      	; 0x107c <.do_clear_bss_start>

0000107a <.do_clear_bss_loop>:
    107a:	1d 92       	st	X+, r1

0000107c <.do_clear_bss_start>:
    107c:	ab 39       	cpi	r26, 0x9B	; 155
    107e:	b1 07       	cpc	r27, r17
    1080:	e1 f7       	brne	.-8      	; 0x107a <.do_clear_bss_loop>
    1082:	0e 94 22 29 	call	0x5244	; 0x5244 <main>
    1086:	0c 94 9c 46 	jmp	0x8d38	; 0x8d38 <_exit>

0000108a <__bad_interrupt>:
    108a:	0c 94 00 00 	jmp	0	; 0x0 <__vectors>

0000108e <buttonHandler_armTimerActionStep>:
    108e:	1f 93       	push	r17
    1090:	18 2f       	mov	r17, r24
    1092:	87 70       	andi	r24, 0x07	; 7
    1094:	10 93 02 01 	sts	0x0102, r17
    1098:	88 23       	and	r24, r24
    109a:	31 f4       	brne	.+12     	; 0x10a8 <buttonHandler_armTimerActionStep+0x1a>
    109c:	81 2f       	mov	r24, r17
    109e:	86 95       	lsr	r24
    10a0:	86 95       	lsr	r24
    10a2:	86 95       	lsr	r24
    10a4:	88 5e       	subi	r24, 0xE8	; 232
    10a6:	01 c0       	rjmp	.+2      	; 0x10aa <buttonHandler_armTimerActionStep+0x1c>
    10a8:	80 5f       	subi	r24, 0xF0	; 240
    10aa:	61 e0       	ldi	r22, 0x01	; 1
    10ac:	0e 94 6d 28 	call	0x50da	; 0x50da <led_setBlinkLed>
    10b0:	0e 94 ae 39 	call	0x735c	; 0x735c <menu_getActiveVoice>
    10b4:	48 2f       	mov	r20, r24
    10b6:	40 64       	ori	r20, 0x40	; 64
    10b8:	8f eb       	ldi	r24, 0xBF	; 191
    10ba:	61 2f       	mov	r22, r17
    10bc:	0e 94 90 0d 	call	0x1b20	; 0x1b20 <frontPanel_sendData>
    10c0:	1f 91       	pop	r17
    10c2:	08 95       	ret

000010c4 <buttonHandler_disarmTimerActionStep>:
    10c4:	80 91 02 01 	lds	r24, 0x0102
    10c8:	8f 3f       	cpi	r24, 0xFF	; 255
    10ca:	91 f0       	breq	.+36     	; 0x10f0 <buttonHandler_disarmTimerActionStep+0x2c>
    10cc:	98 2f       	mov	r25, r24
    10ce:	97 70       	andi	r25, 0x07	; 7
    10d0:	39 f4       	brne	.+14     	; 0x10e0 <buttonHandler_disarmTimerActionStep+0x1c>
    10d2:	87 fd       	sbrc	r24, 7
    10d4:	89 5f       	subi	r24, 0xF9	; 249
    10d6:	85 95       	asr	r24
    10d8:	85 95       	asr	r24
    10da:	85 95       	asr	r24
    10dc:	88 5e       	subi	r24, 0xE8	; 232
    10de:	05 c0       	rjmp	.+10     	; 0x10ea <buttonHandler_disarmTimerActionStep+0x26>
    10e0:	68 e0       	ldi	r22, 0x08	; 8
    10e2:	0e 94 d7 42 	call	0x85ae	; 0x85ae <__divmodqi4>
    10e6:	89 2f       	mov	r24, r25
    10e8:	80 5f       	subi	r24, 0xF0	; 240
    10ea:	60 e0       	ldi	r22, 0x00	; 0
    10ec:	0e 94 6d 28 	call	0x50da	; 0x50da <led_setBlinkLed>
    10f0:	8f ef       	ldi	r24, 0xFF	; 255
    10f2:	80 93 02 01 	sts	0x0102, r24
    10f6:	8f eb       	ldi	r24, 0xBF	; 191
    10f8:	60 e0       	ldi	r22, 0x00	; 0
    10fa:	40 e0       	ldi	r20, 0x00	; 0
    10fc:	0e 94 90 0d 	call	0x1b20	; 0x1b20 <frontPanel_sendData>
    1100:	08 95       	ret

00001102 <buttonHandler_TimerActionOccured>:
    1102:	0e 94 62 08 	call	0x10c4	; 0x10c4 <buttonHandler_disarmTimerActionStep>
    1106:	80 91 01 01 	lds	r24, 0x0101
    110a:	8f 3f       	cpi	r24, 0xFF	; 255
    110c:	29 f0       	breq	.+10     	; 0x1118 <buttonHandler_TimerActionOccured+0x16>
    110e:	8f ef       	ldi	r24, 0xFF	; 255
    1110:	80 93 01 01 	sts	0x0101, r24
    1114:	80 e0       	ldi	r24, 0x00	; 0
    1116:	08 95       	ret
    1118:	81 e0       	ldi	r24, 0x01	; 1
    111a:	08 95       	ret

0000111c <buttonHandler_setTimeraction>:
    111c:	20 91 33 02 	lds	r18, 0x0233
    1120:	30 91 34 02 	lds	r19, 0x0234
    1124:	2a 5d       	subi	r18, 0xDA	; 218
    1126:	3f 4f       	sbci	r19, 0xFF	; 255
    1128:	30 93 25 02 	sts	0x0225, r19
    112c:	20 93 24 02 	sts	0x0224, r18
    1130:	80 93 01 01 	sts	0x0101, r24
    1134:	08 95       	ret

00001136 <buttonHandler_tick>:
    1136:	20 91 33 02 	lds	r18, 0x0233
    113a:	30 91 34 02 	lds	r19, 0x0234
    113e:	80 91 24 02 	lds	r24, 0x0224
    1142:	90 91 25 02 	lds	r25, 0x0225
    1146:	82 17       	cp	r24, r18
    1148:	93 07       	cpc	r25, r19
    114a:	48 f4       	brcc	.+18     	; 0x115e <buttonHandler_tick+0x28>
    114c:	80 91 01 01 	lds	r24, 0x0101
    1150:	8f 3f       	cpi	r24, 0xFF	; 255
    1152:	29 f0       	breq	.+10     	; 0x115e <buttonHandler_tick+0x28>
    1154:	0e 94 47 08 	call	0x108e	; 0x108e <buttonHandler_armTimerActionStep>
    1158:	8f ef       	ldi	r24, 0xFF	; 255
    115a:	80 93 01 01 	sts	0x0101, r24
    115e:	08 95       	ret

00001160 <buttonHandler_getShift>:
    1160:	90 91 74 04 	lds	r25, 0x0474
    1164:	81 e0       	ldi	r24, 0x01	; 1
    1166:	92 fd       	sbrc	r25, 2
    1168:	80 e0       	ldi	r24, 0x00	; 0
    116a:	08 95       	ret

0000116c <buttonHandler_handleSelectButton>:
    116c:	0f 93       	push	r16
    116e:	1f 93       	push	r17
    1170:	18 2f       	mov	r17, r24
    1172:	0e 94 b0 08 	call	0x1160	; 0x1160 <buttonHandler_getShift>
    1176:	88 23       	and	r24, r24
    1178:	09 f4       	brne	.+2      	; 0x117c <buttonHandler_handleSelectButton+0x10>
    117a:	5a c0       	rjmp	.+180    	; 0x1230 <buttonHandler_handleSelectButton+0xc4>
    117c:	20 91 4a 02 	lds	r18, 0x024A
    1180:	27 70       	andi	r18, 0x07	; 7
    1182:	30 e0       	ldi	r19, 0x00	; 0
    1184:	21 30       	cpi	r18, 0x01	; 1
    1186:	31 05       	cpc	r19, r1
    1188:	61 f1       	breq	.+88     	; 0x11e2 <buttonHandler_handleSelectButton+0x76>
    118a:	22 30       	cpi	r18, 0x02	; 2
    118c:	31 05       	cpc	r19, r1
    118e:	24 f4       	brge	.+8      	; 0x1198 <buttonHandler_handleSelectButton+0x2c>
    1190:	21 15       	cp	r18, r1
    1192:	31 05       	cpc	r19, r1
    1194:	49 f0       	breq	.+18     	; 0x11a8 <buttonHandler_handleSelectButton+0x3c>
    1196:	97 c0       	rjmp	.+302    	; 0x12c6 <buttonHandler_handleSelectButton+0x15a>
    1198:	22 30       	cpi	r18, 0x02	; 2
    119a:	31 05       	cpc	r19, r1
    119c:	29 f0       	breq	.+10     	; 0x11a8 <buttonHandler_handleSelectButton+0x3c>
    119e:	25 30       	cpi	r18, 0x05	; 5
    11a0:	31 05       	cpc	r19, r1
    11a2:	09 f0       	breq	.+2      	; 0x11a6 <buttonHandler_handleSelectButton+0x3a>
    11a4:	90 c0       	rjmp	.+288    	; 0x12c6 <buttonHandler_handleSelectButton+0x15a>
    11a6:	1d c0       	rjmp	.+58     	; 0x11e2 <buttonHandler_handleSelectButton+0x76>
    11a8:	00 91 22 02 	lds	r16, 0x0222
    11ac:	01 0f       	add	r16, r17
    11ae:	81 2f       	mov	r24, r17
    11b0:	80 5f       	subi	r24, 0xF0	; 240
    11b2:	0e 94 59 27 	call	0x4eb2	; 0x4eb2 <led_toggle>
    11b6:	0e 94 ae 39 	call	0x735c	; 0x735c <menu_getActiveVoice>
    11ba:	18 2f       	mov	r17, r24
    11bc:	0e 94 bf 2a 	call	0x557e	; 0x557e <menu_getShownPattern>
    11c0:	61 2f       	mov	r22, r17
    11c2:	62 95       	swap	r22
    11c4:	60 7f       	andi	r22, 0xF0	; 240
    11c6:	87 70       	andi	r24, 0x07	; 7
    11c8:	68 2b       	or	r22, r24
    11ca:	89 eb       	ldi	r24, 0xB9	; 185
    11cc:	40 2f       	mov	r20, r16
    11ce:	0e 94 90 0d 	call	0x1b20	; 0x1b20 <frontPanel_sendData>
    11d2:	82 eb       	ldi	r24, 0xB2	; 178
    11d4:	6f e0       	ldi	r22, 0x0F	; 15
    11d6:	40 2f       	mov	r20, r16
    11d8:	0e 94 90 0d 	call	0x1b20	; 0x1b20 <frontPanel_sendData>
    11dc:	00 93 59 09 	sts	0x0959, r16
    11e0:	72 c0       	rjmp	.+228    	; 0x12c6 <buttonHandler_handleSelectButton+0x15a>
    11e2:	81 2f       	mov	r24, r17
    11e4:	0e 94 b7 2a 	call	0x556e	; 0x556e <menu_setShownPattern>
    11e8:	0e 94 cb 26 	call	0x4d96	; 0x4d96 <led_clearSelectLeds>
    11ec:	0e 94 f5 28 	call	0x51ea	; 0x51ea <led_clearAllBlinkLeds>
    11f0:	81 2f       	mov	r24, r17
    11f2:	80 5f       	subi	r24, 0xF0	; 240
    11f4:	61 e0       	ldi	r22, 0x01	; 1
    11f6:	0e 94 6d 28 	call	0x50da	; 0x50da <led_setBlinkLed>
    11fa:	0e 94 ae 39 	call	0x735c	; 0x735c <menu_getActiveVoice>
    11fe:	08 2f       	mov	r16, r24
    1200:	0e 94 bf 2a 	call	0x557e	; 0x557e <menu_getShownPattern>
    1204:	18 2f       	mov	r17, r24
    1206:	40 2f       	mov	r20, r16
    1208:	42 95       	swap	r20
    120a:	40 7f       	andi	r20, 0xF0	; 240
    120c:	87 70       	andi	r24, 0x07	; 7
    120e:	48 2b       	or	r20, r24
    1210:	81 eb       	ldi	r24, 0xB1	; 177
    1212:	63 e0       	ldi	r22, 0x03	; 3
    1214:	0e 94 90 0d 	call	0x1b20	; 0x1b20 <frontPanel_sendData>
    1218:	82 eb       	ldi	r24, 0xB2	; 178
    121a:	6c e1       	ldi	r22, 0x1C	; 28
    121c:	41 2f       	mov	r20, r17
    121e:	0e 94 90 0d 	call	0x1b20	; 0x1b20 <frontPanel_sendData>
    1222:	82 eb       	ldi	r24, 0xB2	; 178
    1224:	69 e1       	ldi	r22, 0x19	; 25
    1226:	40 91 3b 02 	lds	r20, 0x023B
    122a:	0e 94 90 0d 	call	0x1b20	; 0x1b20 <frontPanel_sendData>
    122e:	4b c0       	rjmp	.+150    	; 0x12c6 <buttonHandler_handleSelectButton+0x15a>
    1230:	20 91 4a 02 	lds	r18, 0x024A
    1234:	27 70       	andi	r18, 0x07	; 7
    1236:	30 e0       	ldi	r19, 0x00	; 0
    1238:	21 30       	cpi	r18, 0x01	; 1
    123a:	31 05       	cpc	r19, r1
    123c:	61 f1       	breq	.+88     	; 0x1296 <buttonHandler_handleSelectButton+0x12a>
    123e:	22 30       	cpi	r18, 0x02	; 2
    1240:	31 05       	cpc	r19, r1
    1242:	24 f4       	brge	.+8      	; 0x124c <buttonHandler_handleSelectButton+0xe0>
    1244:	21 15       	cp	r18, r1
    1246:	31 05       	cpc	r19, r1
    1248:	e9 f0       	breq	.+58     	; 0x1284 <buttonHandler_handleSelectButton+0x118>
    124a:	3d c0       	rjmp	.+122    	; 0x12c6 <buttonHandler_handleSelectButton+0x15a>
    124c:	22 30       	cpi	r18, 0x02	; 2
    124e:	31 05       	cpc	r19, r1
    1250:	21 f0       	breq	.+8      	; 0x125a <buttonHandler_handleSelectButton+0xee>
    1252:	23 30       	cpi	r18, 0x03	; 3
    1254:	31 05       	cpc	r19, r1
    1256:	b9 f5       	brne	.+110    	; 0x12c6 <buttonHandler_handleSelectButton+0x15a>
    1258:	33 c0       	rjmp	.+102    	; 0x12c0 <buttonHandler_handleSelectButton+0x154>
    125a:	00 91 22 02 	lds	r16, 0x0222
    125e:	01 0f       	add	r16, r17
    1260:	82 eb       	ldi	r24, 0xB2	; 178
    1262:	6f e0       	ldi	r22, 0x0F	; 15
    1264:	40 2f       	mov	r20, r16
    1266:	0e 94 90 0d 	call	0x1b20	; 0x1b20 <frontPanel_sendData>
    126a:	00 93 59 09 	sts	0x0959, r16
    126e:	0e 94 f5 28 	call	0x51ea	; 0x51ea <led_clearAllBlinkLeds>
    1272:	80 91 22 02 	lds	r24, 0x0222
    1276:	88 5e       	subi	r24, 0xE8	; 232
    1278:	61 e0       	ldi	r22, 0x01	; 1
    127a:	0e 94 6d 28 	call	0x50da	; 0x50da <led_setBlinkLed>
    127e:	80 2f       	mov	r24, r16
    1280:	87 70       	andi	r24, 0x07	; 7
    1282:	19 c0       	rjmp	.+50     	; 0x12b6 <buttonHandler_handleSelectButton+0x14a>
    1284:	81 2f       	mov	r24, r17
    1286:	0e 94 22 34 	call	0x6844	; 0x6844 <menu_switchSubPage>
    128a:	0e 94 41 34 	call	0x6882	; 0x6882 <menu_resetActiveParameter>
    128e:	81 2f       	mov	r24, r17
    1290:	0e 94 f2 26 	call	0x4de4	; 0x4de4 <led_setActiveSelectButton>
    1294:	18 c0       	rjmp	.+48     	; 0x12c6 <buttonHandler_handleSelectButton+0x15a>
    1296:	0e 94 ab 39 	call	0x7356	; 0x7356 <menu_getActivePage>
    129a:	8a 30       	cpi	r24, 0x0A	; 10
    129c:	a1 f4       	brne	.+40     	; 0x12c6 <buttonHandler_handleSelectButton+0x15a>
    129e:	0e 94 b0 08 	call	0x1160	; 0x1160 <buttonHandler_getShift>
    12a2:	88 23       	and	r24, r24
    12a4:	81 f4       	brne	.+32     	; 0x12c6 <buttonHandler_handleSelectButton+0x15a>
    12a6:	82 eb       	ldi	r24, 0xB2	; 178
    12a8:	6b e0       	ldi	r22, 0x0B	; 11
    12aa:	41 2f       	mov	r20, r17
    12ac:	0e 94 90 0d 	call	0x1b20	; 0x1b20 <frontPanel_sendData>
    12b0:	0e 94 f5 28 	call	0x51ea	; 0x51ea <led_clearAllBlinkLeds>
    12b4:	81 2f       	mov	r24, r17
    12b6:	80 5f       	subi	r24, 0xF0	; 240
    12b8:	61 e0       	ldi	r22, 0x01	; 1
    12ba:	0e 94 6d 28 	call	0x50da	; 0x50da <led_setBlinkLed>
    12be:	03 c0       	rjmp	.+6      	; 0x12c6 <buttonHandler_handleSelectButton+0x15a>
    12c0:	81 2f       	mov	r24, r17
    12c2:	0e 94 db 26 	call	0x4db6	; 0x4db6 <led_setActivePage>
    12c6:	1f 91       	pop	r17
    12c8:	0f 91       	pop	r16
    12ca:	08 95       	ret

000012cc <buttonHandler_updateSubSteps>:
    12cc:	1f 93       	push	r17
    12ce:	0e 94 cb 26 	call	0x4d96	; 0x4d96 <led_clearSelectLeds>
    12d2:	0e 94 ae 39 	call	0x735c	; 0x735c <menu_getActiveVoice>
    12d6:	18 2f       	mov	r17, r24
    12d8:	0e 94 bf 2a 	call	0x557e	; 0x557e <menu_getShownPattern>
    12dc:	41 2f       	mov	r20, r17
    12de:	42 95       	swap	r20
    12e0:	40 7f       	andi	r20, 0xF0	; 240
    12e2:	87 70       	andi	r24, 0x07	; 7
    12e4:	48 2b       	or	r20, r24
    12e6:	81 eb       	ldi	r24, 0xB1	; 177
    12e8:	63 e0       	ldi	r22, 0x03	; 3
    12ea:	0e 94 90 0d 	call	0x1b20	; 0x1b20 <frontPanel_sendData>
    12ee:	1f 91       	pop	r17
    12f0:	08 95       	ret

000012f2 <buttonHandler_enterSeqModeStepMode>:
    12f2:	80 e0       	ldi	r24, 0x00	; 0
    12f4:	0e 94 22 34 	call	0x6844	; 0x6844 <menu_switchSubPage>
    12f8:	8b e0       	ldi	r24, 0x0B	; 11
    12fa:	0e 94 4d 34 	call	0x689a	; 0x689a <menu_switchPage>
    12fe:	80 91 20 02 	lds	r24, 0x0220
    1302:	0e 94 66 09 	call	0x12cc	; 0x12cc <buttonHandler_updateSubSteps>
    1306:	80 91 00 01 	lds	r24, 0x0100
    130a:	61 e0       	ldi	r22, 0x01	; 1
    130c:	0e 94 6d 28 	call	0x50da	; 0x50da <led_setBlinkLed>
    1310:	08 95       	ret

00001312 <buttonHandler_handleModeButtons>:
    1312:	1f 93       	push	r17
    1314:	18 2f       	mov	r17, r24
    1316:	0e 94 b0 08 	call	0x1160	; 0x1160 <buttonHandler_getShift>
    131a:	81 11       	cpse	r24, r1
    131c:	1c 5f       	subi	r17, 0xFC	; 252
    131e:	17 70       	andi	r17, 0x07	; 7
    1320:	80 91 4a 02 	lds	r24, 0x024A
    1324:	88 7f       	andi	r24, 0xF8	; 248
    1326:	81 2b       	or	r24, r17
    1328:	80 93 4a 02 	sts	0x024A, r24
    132c:	0e 94 f5 28 	call	0x51ea	; 0x51ea <led_clearAllBlinkLeds>
    1330:	80 91 4a 02 	lds	r24, 0x024A
    1334:	87 70       	andi	r24, 0x07	; 7
    1336:	0e 94 ad 28 	call	0x515a	; 0x515a <led_setMode2>
    133a:	80 91 4a 02 	lds	r24, 0x024A
    133e:	87 70       	andi	r24, 0x07	; 7
    1340:	90 e0       	ldi	r25, 0x00	; 0
    1342:	82 30       	cpi	r24, 0x02	; 2
    1344:	91 05       	cpc	r25, r1
    1346:	59 f1       	breq	.+86     	; 0x139e <buttonHandler_handleModeButtons+0x8c>
    1348:	83 30       	cpi	r24, 0x03	; 3
    134a:	91 05       	cpc	r25, r1
    134c:	3c f4       	brge	.+14     	; 0x135c <buttonHandler_handleModeButtons+0x4a>
    134e:	00 97       	sbiw	r24, 0x00	; 0
    1350:	89 f1       	breq	.+98     	; 0x13b4 <buttonHandler_handleModeButtons+0xa2>
    1352:	81 30       	cpi	r24, 0x01	; 1
    1354:	91 05       	cpc	r25, r1
    1356:	09 f0       	breq	.+2      	; 0x135a <buttonHandler_handleModeButtons+0x48>
    1358:	44 c0       	rjmp	.+136    	; 0x13e2 <buttonHandler_handleModeButtons+0xd0>
    135a:	0a c0       	rjmp	.+20     	; 0x1370 <buttonHandler_handleModeButtons+0x5e>
    135c:	85 30       	cpi	r24, 0x05	; 5
    135e:	91 05       	cpc	r25, r1
    1360:	b1 f1       	breq	.+108    	; 0x13ce <buttonHandler_handleModeButtons+0xbc>
    1362:	87 30       	cpi	r24, 0x07	; 7
    1364:	91 05       	cpc	r25, r1
    1366:	89 f1       	breq	.+98     	; 0x13ca <buttonHandler_handleModeButtons+0xb8>
    1368:	83 30       	cpi	r24, 0x03	; 3
    136a:	91 05       	cpc	r25, r1
    136c:	d1 f5       	brne	.+116    	; 0x13e2 <buttonHandler_handleModeButtons+0xd0>
    136e:	2b c0       	rjmp	.+86     	; 0x13c6 <buttonHandler_handleModeButtons+0xb4>
    1370:	0e 94 93 27 	call	0x4f26	; 0x4f26 <led_clearSequencerLeds>
    1374:	0e 94 cb 26 	call	0x4d96	; 0x4d96 <led_clearSelectLeds>
    1378:	0e 94 cb 26 	call	0x4d96	; 0x4d96 <led_clearSelectLeds>
    137c:	60 91 3d 02 	lds	r22, 0x023D
    1380:	60 5f       	subi	r22, 0xF0	; 240
    1382:	81 e0       	ldi	r24, 0x01	; 1
    1384:	0e 94 38 27 	call	0x4e70	; 0x4e70 <led_setValue>
    1388:	0e 94 47 34 	call	0x688e	; 0x688e <menu_getSubPage>
    138c:	80 93 21 02 	sts	0x0221, r24
    1390:	8a e0       	ldi	r24, 0x0A	; 10
    1392:	0e 94 4d 34 	call	0x689a	; 0x689a <menu_switchPage>
    1396:	80 e0       	ldi	r24, 0x00	; 0
    1398:	0e 94 22 34 	call	0x6844	; 0x6844 <menu_switchSubPage>
    139c:	22 c0       	rjmp	.+68     	; 0x13e2 <buttonHandler_handleModeButtons+0xd0>
    139e:	0e 94 ae 39 	call	0x735c	; 0x735c <menu_getActiveVoice>
    13a2:	0e 94 4d 34 	call	0x689a	; 0x689a <menu_switchPage>
    13a6:	0e 94 47 34 	call	0x688e	; 0x688e <menu_getSubPage>
    13aa:	0e 94 f2 26 	call	0x4de4	; 0x4de4 <led_setActiveSelectButton>
    13ae:	0e 94 79 09 	call	0x12f2	; 0x12f2 <buttonHandler_enterSeqModeStepMode>
    13b2:	17 c0       	rjmp	.+46     	; 0x13e2 <buttonHandler_handleModeButtons+0xd0>
    13b4:	0e 94 ae 39 	call	0x735c	; 0x735c <menu_getActiveVoice>
    13b8:	0e 94 4d 34 	call	0x689a	; 0x689a <menu_switchPage>
    13bc:	0e 94 47 34 	call	0x688e	; 0x688e <menu_getSubPage>
    13c0:	0e 94 f2 26 	call	0x4de4	; 0x4de4 <led_setActiveSelectButton>
    13c4:	0e c0       	rjmp	.+28     	; 0x13e2 <buttonHandler_handleModeButtons+0xd0>
    13c6:	88 e0       	ldi	r24, 0x08	; 8
    13c8:	0a c0       	rjmp	.+20     	; 0x13de <buttonHandler_handleModeButtons+0xcc>
    13ca:	87 e0       	ldi	r24, 0x07	; 7
    13cc:	08 c0       	rjmp	.+16     	; 0x13de <buttonHandler_handleModeButtons+0xcc>
    13ce:	0e 94 ae 39 	call	0x735c	; 0x735c <menu_getActiveVoice>
    13d2:	48 2f       	mov	r20, r24
    13d4:	82 eb       	ldi	r24, 0xB2	; 178
    13d6:	69 e1       	ldi	r22, 0x19	; 25
    13d8:	0e 94 90 0d 	call	0x1b20	; 0x1b20 <frontPanel_sendData>
    13dc:	8c e0       	ldi	r24, 0x0C	; 12
    13de:	0e 94 4d 34 	call	0x689a	; 0x689a <menu_switchPage>
    13e2:	1f 91       	pop	r17
    13e4:	08 95       	ret

000013e6 <buttonHandler_leaveSeqModeStepMode>:
    13e6:	80 91 00 01 	lds	r24, 0x0100
    13ea:	60 e0       	ldi	r22, 0x00	; 0
    13ec:	0e 94 6d 28 	call	0x50da	; 0x50da <led_setBlinkLed>
    13f0:	80 e0       	ldi	r24, 0x00	; 0
    13f2:	60 91 00 01 	lds	r22, 0x0100
    13f6:	0e 94 38 27 	call	0x4e70	; 0x4e70 <led_setValue>
    13fa:	08 95       	ret

000013fc <buttonHandler_enterSeqMode>:
    13fc:	80 91 3b 02 	lds	r24, 0x023B
    1400:	80 93 20 02 	sts	0x0220, r24
    1404:	0e 94 47 34 	call	0x688e	; 0x688e <menu_getSubPage>
    1408:	80 93 21 02 	sts	0x0221, r24
    140c:	80 e0       	ldi	r24, 0x00	; 0
    140e:	0e 94 22 34 	call	0x6844	; 0x6844 <menu_switchSubPage>
    1412:	8b e0       	ldi	r24, 0x0B	; 11
    1414:	0e 94 4d 34 	call	0x689a	; 0x689a <menu_switchPage>
    1418:	80 91 20 02 	lds	r24, 0x0220
    141c:	0e 94 66 09 	call	0x12cc	; 0x12cc <buttonHandler_updateSubSteps>
    1420:	80 91 00 01 	lds	r24, 0x0100
    1424:	61 e0       	ldi	r22, 0x01	; 1
    1426:	0e 94 6d 28 	call	0x50da	; 0x50da <led_setBlinkLed>
    142a:	08 95       	ret

0000142c <buttonHandler_leaveSeqMode>:
    142c:	80 91 00 01 	lds	r24, 0x0100
    1430:	60 e0       	ldi	r22, 0x00	; 0
    1432:	0e 94 6d 28 	call	0x50da	; 0x50da <led_setBlinkLed>
    1436:	80 e0       	ldi	r24, 0x00	; 0
    1438:	60 91 00 01 	lds	r22, 0x0100
    143c:	0e 94 38 27 	call	0x4e70	; 0x4e70 <led_setValue>
    1440:	0e 94 cb 26 	call	0x4d96	; 0x4d96 <led_clearSelectLeds>
    1444:	80 91 21 02 	lds	r24, 0x0221
    1448:	0e 94 22 34 	call	0x6844	; 0x6844 <menu_switchSubPage>
    144c:	80 91 20 02 	lds	r24, 0x0220
    1450:	0e 94 4d 34 	call	0x689a	; 0x689a <menu_switchPage>
    1454:	08 95       	ret

00001456 <buttonHandler_selectActiveStep>:
    1456:	0f 93       	push	r16
    1458:	1f 93       	push	r17
    145a:	08 2f       	mov	r16, r24
    145c:	16 2f       	mov	r17, r22
    145e:	80 91 00 01 	lds	r24, 0x0100
    1462:	60 e0       	ldi	r22, 0x00	; 0
    1464:	0e 94 6d 28 	call	0x50da	; 0x50da <led_setBlinkLed>
    1468:	80 e0       	ldi	r24, 0x00	; 0
    146a:	60 91 00 01 	lds	r22, 0x0100
    146e:	0e 94 38 27 	call	0x4e70	; 0x4e70 <led_setValue>
    1472:	11 0f       	add	r17, r17
    1474:	11 0f       	add	r17, r17
    1476:	11 0f       	add	r17, r17
    1478:	10 93 22 02 	sts	0x0222, r17
    147c:	00 93 00 01 	sts	0x0100, r16
    1480:	10 93 59 09 	sts	0x0959, r17
    1484:	80 2f       	mov	r24, r16
    1486:	61 e0       	ldi	r22, 0x01	; 1
    1488:	0e 94 6d 28 	call	0x50da	; 0x50da <led_setBlinkLed>
    148c:	80 91 3c 02 	lds	r24, 0x023C
    1490:	0e 94 66 09 	call	0x12cc	; 0x12cc <buttonHandler_updateSubSteps>
    1494:	82 eb       	ldi	r24, 0xB2	; 178
    1496:	6f e0       	ldi	r22, 0x0F	; 15
    1498:	41 2f       	mov	r20, r17
    149a:	0e 94 90 0d 	call	0x1b20	; 0x1b20 <frontPanel_sendData>
    149e:	1f 91       	pop	r17
    14a0:	0f 91       	pop	r16
    14a2:	08 95       	ret

000014a4 <buttonHandler_setRemoveStep>:
    14a4:	0f 93       	push	r16
    14a6:	1f 93       	push	r17
    14a8:	08 2f       	mov	r16, r24
    14aa:	16 2f       	mov	r17, r22
    14ac:	80 e0       	ldi	r24, 0x00	; 0
    14ae:	60 2f       	mov	r22, r16
    14b0:	0e 94 38 27 	call	0x4e70	; 0x4e70 <led_setValue>
    14b4:	11 0f       	add	r17, r17
    14b6:	11 0f       	add	r17, r17
    14b8:	11 0f       	add	r17, r17
    14ba:	10 93 22 02 	sts	0x0222, r17
    14be:	10 93 59 09 	sts	0x0959, r17
    14c2:	00 93 00 01 	sts	0x0100, r16
    14c6:	82 eb       	ldi	r24, 0xB2	; 178
    14c8:	6f e0       	ldi	r22, 0x0F	; 15
    14ca:	41 2f       	mov	r20, r17
    14cc:	0e 94 90 0d 	call	0x1b20	; 0x1b20 <frontPanel_sendData>
    14d0:	0e 94 ae 39 	call	0x735c	; 0x735c <menu_getActiveVoice>
    14d4:	08 2f       	mov	r16, r24
    14d6:	0e 94 bf 2a 	call	0x557e	; 0x557e <menu_getShownPattern>
    14da:	60 2f       	mov	r22, r16
    14dc:	62 95       	swap	r22
    14de:	60 7f       	andi	r22, 0xF0	; 240
    14e0:	87 70       	andi	r24, 0x07	; 7
    14e2:	68 2b       	or	r22, r24
    14e4:	41 2f       	mov	r20, r17
    14e6:	46 95       	lsr	r20
    14e8:	46 95       	lsr	r20
    14ea:	46 95       	lsr	r20
    14ec:	8e eb       	ldi	r24, 0xBE	; 190
    14ee:	0e 94 90 0d 	call	0x1b20	; 0x1b20 <frontPanel_sendData>
    14f2:	1f 91       	pop	r17
    14f4:	0f 91       	pop	r16
    14f6:	08 95       	ret

000014f8 <buttonHandler_buttonReleased>:
    14f8:	0f 93       	push	r16
    14fa:	1f 93       	push	r17
    14fc:	08 2f       	mov	r16, r24
    14fe:	88 31       	cpi	r24, 0x18	; 24
    1500:	20 f4       	brcc	.+8      	; 0x150a <buttonHandler_buttonReleased+0x12>
    1502:	80 31       	cpi	r24, 0x10	; 16
    1504:	08 f0       	brcs	.+2      	; 0x1508 <buttonHandler_buttonReleased+0x10>
    1506:	99 c0       	rjmp	.+306    	; 0x163a <buttonHandler_buttonReleased+0x142>
    1508:	56 c0       	rjmp	.+172    	; 0x15b6 <buttonHandler_buttonReleased+0xbe>
    150a:	8f 31       	cpi	r24, 0x1F	; 31
    150c:	21 f0       	breq	.+8      	; 0x1516 <buttonHandler_buttonReleased+0x1e>
    150e:	82 32       	cpi	r24, 0x22	; 34
    1510:	09 f0       	breq	.+2      	; 0x1514 <buttonHandler_buttonReleased+0x1c>
    1512:	a2 c0       	rjmp	.+324    	; 0x1658 <buttonHandler_buttonReleased+0x160>
    1514:	0c c0       	rjmp	.+24     	; 0x152e <buttonHandler_buttonReleased+0x36>
    1516:	0e 94 b0 08 	call	0x1160	; 0x1160 <buttonHandler_getShift>
    151a:	88 23       	and	r24, r24
    151c:	09 f0       	breq	.+2      	; 0x1520 <buttonHandler_buttonReleased+0x28>
    151e:	9c c0       	rjmp	.+312    	; 0x1658 <buttonHandler_buttonReleased+0x160>
    1520:	10 92 38 02 	sts	0x0238, r1
    1524:	8f e0       	ldi	r24, 0x0F	; 15
    1526:	60 e0       	ldi	r22, 0x00	; 0
    1528:	0e 94 6d 28 	call	0x50da	; 0x50da <led_setBlinkLed>
    152c:	95 c0       	rjmp	.+298    	; 0x1658 <buttonHandler_buttonReleased+0x160>
    152e:	80 91 38 02 	lds	r24, 0x0238
    1532:	81 30       	cpi	r24, 0x01	; 1
    1534:	29 f4       	brne	.+10     	; 0x1540 <buttonHandler_buttonReleased+0x48>
    1536:	80 e0       	ldi	r24, 0x00	; 0
    1538:	0e 94 62 2a 	call	0x54c4	; 0x54c4 <copyClear_armClearMenu>
    153c:	10 92 38 02 	sts	0x0238, r1
    1540:	80 e0       	ldi	r24, 0x00	; 0
    1542:	64 e0       	ldi	r22, 0x04	; 4
    1544:	0e 94 38 27 	call	0x4e70	; 0x4e70 <led_setValue>
    1548:	80 91 4a 02 	lds	r24, 0x024A
    154c:	87 70       	andi	r24, 0x07	; 7
    154e:	19 f4       	brne	.+6      	; 0x1556 <buttonHandler_buttonReleased+0x5e>
    1550:	0e 94 16 0a 	call	0x142c	; 0x142c <buttonHandler_leaveSeqMode>
    1554:	2b c0       	rjmp	.+86     	; 0x15ac <buttonHandler_buttonReleased+0xb4>
    1556:	80 91 4a 02 	lds	r24, 0x024A
    155a:	87 70       	andi	r24, 0x07	; 7
    155c:	81 30       	cpi	r24, 0x01	; 1
    155e:	61 f4       	brne	.+24     	; 0x1578 <buttonHandler_buttonReleased+0x80>
    1560:	0e 94 f5 28 	call	0x51ea	; 0x51ea <led_clearAllBlinkLeds>
    1564:	0e 94 cb 26 	call	0x4d96	; 0x4d96 <led_clearSelectLeds>
    1568:	60 91 3d 02 	lds	r22, 0x023D
    156c:	60 5f       	subi	r22, 0xF0	; 240
    156e:	81 e0       	ldi	r24, 0x01	; 1
    1570:	0e 94 38 27 	call	0x4e70	; 0x4e70 <led_setValue>
    1574:	8a e0       	ldi	r24, 0x0A	; 10
    1576:	10 c0       	rjmp	.+32     	; 0x1598 <buttonHandler_buttonReleased+0xa0>
    1578:	80 91 4a 02 	lds	r24, 0x024A
    157c:	87 70       	andi	r24, 0x07	; 7
    157e:	85 30       	cpi	r24, 0x05	; 5
    1580:	71 f4       	brne	.+28     	; 0x159e <buttonHandler_buttonReleased+0xa6>
    1582:	0e 94 f5 28 	call	0x51ea	; 0x51ea <led_clearAllBlinkLeds>
    1586:	0e 94 cb 26 	call	0x4d96	; 0x4d96 <led_clearSelectLeds>
    158a:	60 91 3d 02 	lds	r22, 0x023D
    158e:	60 5f       	subi	r22, 0xF0	; 240
    1590:	81 e0       	ldi	r24, 0x01	; 1
    1592:	0e 94 38 27 	call	0x4e70	; 0x4e70 <led_setValue>
    1596:	8c e0       	ldi	r24, 0x0C	; 12
    1598:	0e 94 4d 34 	call	0x689a	; 0x689a <menu_switchPage>
    159c:	07 c0       	rjmp	.+14     	; 0x15ac <buttonHandler_buttonReleased+0xb4>
    159e:	80 91 4a 02 	lds	r24, 0x024A
    15a2:	87 70       	andi	r24, 0x07	; 7
    15a4:	82 30       	cpi	r24, 0x02	; 2
    15a6:	11 f4       	brne	.+4      	; 0x15ac <buttonHandler_buttonReleased+0xb4>
    15a8:	0e 94 79 09 	call	0x12f2	; 0x12f2 <buttonHandler_enterSeqModeStepMode>
    15ac:	0e 94 ae 39 	call	0x735c	; 0x735c <menu_getActiveVoice>
    15b0:	0e 94 1b 27 	call	0x4e36	; 0x4e36 <led_setActiveVoice>
    15b4:	51 c0       	rjmp	.+162    	; 0x1658 <buttonHandler_buttonReleased+0x160>
    15b6:	18 2f       	mov	r17, r24
    15b8:	18 5e       	subi	r17, 0xE8	; 232
    15ba:	0e 94 b0 08 	call	0x1160	; 0x1160 <buttonHandler_getShift>
    15be:	88 23       	and	r24, r24
    15c0:	79 f0       	breq	.+30     	; 0x15e0 <buttonHandler_buttonReleased+0xe8>
    15c2:	0e 94 81 08 	call	0x1102	; 0x1102 <buttonHandler_TimerActionOccured>
    15c6:	88 23       	and	r24, r24
    15c8:	09 f0       	breq	.+2      	; 0x15cc <buttonHandler_buttonReleased+0xd4>
    15ca:	46 c0       	rjmp	.+140    	; 0x1658 <buttonHandler_buttonReleased+0x160>
    15cc:	80 91 4a 02 	lds	r24, 0x024A
    15d0:	87 70       	andi	r24, 0x07	; 7
    15d2:	c1 f0       	breq	.+48     	; 0x1604 <buttonHandler_buttonReleased+0x10c>
    15d4:	80 91 4a 02 	lds	r24, 0x024A
    15d8:	87 70       	andi	r24, 0x07	; 7
    15da:	82 30       	cpi	r24, 0x02	; 2
    15dc:	e9 f5       	brne	.+122    	; 0x1658 <buttonHandler_buttonReleased+0x160>
    15de:	1b c0       	rjmp	.+54     	; 0x1616 <buttonHandler_buttonReleased+0x11e>
    15e0:	20 91 4a 02 	lds	r18, 0x024A
    15e4:	27 70       	andi	r18, 0x07	; 7
    15e6:	30 e0       	ldi	r19, 0x00	; 0
    15e8:	21 30       	cpi	r18, 0x01	; 1
    15ea:	31 05       	cpc	r19, r1
    15ec:	c9 f0       	breq	.+50     	; 0x1620 <buttonHandler_buttonReleased+0x128>
    15ee:	22 30       	cpi	r18, 0x02	; 2
    15f0:	31 05       	cpc	r19, r1
    15f2:	21 f0       	breq	.+8      	; 0x15fc <buttonHandler_buttonReleased+0x104>
    15f4:	21 15       	cp	r18, r1
    15f6:	31 05       	cpc	r19, r1
    15f8:	51 f0       	breq	.+20     	; 0x160e <buttonHandler_buttonReleased+0x116>
    15fa:	2e c0       	rjmp	.+92     	; 0x1658 <buttonHandler_buttonReleased+0x160>
    15fc:	0e 94 81 08 	call	0x1102	; 0x1102 <buttonHandler_TimerActionOccured>
    1600:	88 23       	and	r24, r24
    1602:	51 f5       	brne	.+84     	; 0x1658 <buttonHandler_buttonReleased+0x160>
    1604:	81 2f       	mov	r24, r17
    1606:	60 2f       	mov	r22, r16
    1608:	0e 94 2b 0a 	call	0x1456	; 0x1456 <buttonHandler_selectActiveStep>
    160c:	25 c0       	rjmp	.+74     	; 0x1658 <buttonHandler_buttonReleased+0x160>
    160e:	0e 94 81 08 	call	0x1102	; 0x1102 <buttonHandler_TimerActionOccured>
    1612:	88 23       	and	r24, r24
    1614:	09 f5       	brne	.+66     	; 0x1658 <buttonHandler_buttonReleased+0x160>
    1616:	81 2f       	mov	r24, r17
    1618:	60 2f       	mov	r22, r16
    161a:	0e 94 52 0a 	call	0x14a4	; 0x14a4 <buttonHandler_setRemoveStep>
    161e:	1c c0       	rjmp	.+56     	; 0x1658 <buttonHandler_buttonReleased+0x160>
    1620:	08 30       	cpi	r16, 0x08	; 8
    1622:	d0 f4       	brcc	.+52     	; 0x1658 <buttonHandler_buttonReleased+0x160>
    1624:	40 2f       	mov	r20, r16
    1626:	4f 70       	andi	r20, 0x0F	; 15
    1628:	82 eb       	ldi	r24, 0xB2	; 178
    162a:	60 e1       	ldi	r22, 0x10	; 16
    162c:	0e 94 90 0d 	call	0x1b20	; 0x1b20 <frontPanel_sendData>
    1630:	80 e0       	ldi	r24, 0x00	; 0
    1632:	61 2f       	mov	r22, r17
    1634:	0e 94 38 27 	call	0x4e70	; 0x4e70 <led_setValue>
    1638:	0f c0       	rjmp	.+30     	; 0x1658 <buttonHandler_buttonReleased+0x160>
    163a:	80 91 38 02 	lds	r24, 0x0238
    163e:	82 30       	cpi	r24, 0x02	; 2
    1640:	58 f4       	brcc	.+22     	; 0x1658 <buttonHandler_buttonReleased+0x160>
    1642:	0e 94 81 08 	call	0x1102	; 0x1102 <buttonHandler_TimerActionOccured>
    1646:	88 23       	and	r24, r24
    1648:	39 f4       	brne	.+14     	; 0x1658 <buttonHandler_buttonReleased+0x160>
    164a:	8f ef       	ldi	r24, 0xFF	; 255
    164c:	80 93 01 01 	sts	0x0101, r24
    1650:	80 2f       	mov	r24, r16
    1652:	80 51       	subi	r24, 0x10	; 16
    1654:	0e 94 b6 08 	call	0x116c	; 0x116c <buttonHandler_handleSelectButton>
    1658:	1f 91       	pop	r17
    165a:	0f 91       	pop	r16
    165c:	08 95       	ret

0000165e <buttonHandler_buttonPressed>:
    165e:	0f 93       	push	r16
    1660:	1f 93       	push	r17
    1662:	08 2f       	mov	r16, r24
    1664:	0e 94 c8 39 	call	0x7390	; 0x7390 <screensaver_touch>
    1668:	0f 31       	cpi	r16, 0x1F	; 31
    166a:	38 f4       	brcc	.+14     	; 0x167a <buttonHandler_buttonPressed+0x1c>
    166c:	08 31       	cpi	r16, 0x18	; 24
    166e:	08 f0       	brcs	.+2      	; 0x1672 <buttonHandler_buttonPressed+0x14>
    1670:	90 c0       	rjmp	.+288    	; 0x1792 <buttonHandler_buttonPressed+0x134>
    1672:	00 31       	cpi	r16, 0x10	; 16
    1674:	08 f4       	brcc	.+2      	; 0x1678 <buttonHandler_buttonPressed+0x1a>
    1676:	11 c1       	rjmp	.+546    	; 0x189a <buttonHandler_buttonPressed+0x23c>
    1678:	13 c0       	rjmp	.+38     	; 0x16a0 <buttonHandler_buttonPressed+0x42>
    167a:	01 32       	cpi	r16, 0x21	; 33
    167c:	09 f4       	brne	.+2      	; 0x1680 <buttonHandler_buttonPressed+0x22>
    167e:	65 c0       	rjmp	.+202    	; 0x174a <buttonHandler_buttonPressed+0xec>
    1680:	02 32       	cpi	r16, 0x22	; 34
    1682:	38 f4       	brcc	.+14     	; 0x1692 <buttonHandler_buttonPressed+0x34>
    1684:	0f 31       	cpi	r16, 0x1F	; 31
    1686:	09 f4       	brne	.+2      	; 0x168a <buttonHandler_buttonPressed+0x2c>
    1688:	4a c1       	rjmp	.+660    	; 0x191e <buttonHandler_buttonPressed+0x2c0>
    168a:	00 32       	cpi	r16, 0x20	; 32
    168c:	09 f0       	breq	.+2      	; 0x1690 <buttonHandler_buttonPressed+0x32>
    168e:	91 c1       	rjmp	.+802    	; 0x19b2 <buttonHandler_buttonPressed+0x354>
    1690:	38 c0       	rjmp	.+112    	; 0x1702 <buttonHandler_buttonPressed+0xa4>
    1692:	02 32       	cpi	r16, 0x22	; 34
    1694:	09 f4       	brne	.+2      	; 0x1698 <buttonHandler_buttonPressed+0x3a>
    1696:	60 c1       	rjmp	.+704    	; 0x1958 <buttonHandler_buttonPressed+0x2fa>
    1698:	07 32       	cpi	r16, 0x27	; 39
    169a:	08 f0       	brcs	.+2      	; 0x169e <buttonHandler_buttonPressed+0x40>
    169c:	8a c1       	rjmp	.+788    	; 0x19b2 <buttonHandler_buttonPressed+0x354>
    169e:	2c c0       	rjmp	.+88     	; 0x16f8 <buttonHandler_buttonPressed+0x9a>
    16a0:	80 91 38 02 	lds	r24, 0x0238
    16a4:	82 30       	cpi	r24, 0x02	; 2
    16a6:	98 f0       	brcs	.+38     	; 0x16ce <buttonHandler_buttonPressed+0x70>
    16a8:	0e 94 fa 29 	call	0x53f4	; 0x53f4 <copyClear_srcSet>
    16ac:	90 2f       	mov	r25, r16
    16ae:	90 51       	subi	r25, 0x10	; 16
    16b0:	88 23       	and	r24, r24
    16b2:	39 f0       	breq	.+14     	; 0x16c2 <buttonHandler_buttonPressed+0x64>
    16b4:	89 2f       	mov	r24, r25
    16b6:	62 e0       	ldi	r22, 0x02	; 2
    16b8:	0e 94 f5 29 	call	0x53ea	; 0x53ea <copyClear_setDst>
    16bc:	0e 94 36 2a 	call	0x546c	; 0x546c <copyClear_copyPattern>
    16c0:	78 c0       	rjmp	.+240    	; 0x17b2 <buttonHandler_buttonPressed+0x154>
    16c2:	89 2f       	mov	r24, r25
    16c4:	62 e0       	ldi	r22, 0x02	; 2
    16c6:	0e 94 f0 29 	call	0x53e0	; 0x53e0 <copyClear_setSrc>
    16ca:	80 2f       	mov	r24, r16
    16cc:	87 c0       	rjmp	.+270    	; 0x17dc <buttonHandler_buttonPressed+0x17e>
    16ce:	80 91 4a 02 	lds	r24, 0x024A
    16d2:	87 70       	andi	r24, 0x07	; 7
    16d4:	61 f4       	brne	.+24     	; 0x16ee <buttonHandler_buttonPressed+0x90>
    16d6:	0e 94 b0 08 	call	0x1160	; 0x1160 <buttonHandler_getShift>
    16da:	88 23       	and	r24, r24
    16dc:	41 f0       	breq	.+16     	; 0x16ee <buttonHandler_buttonPressed+0x90>
    16de:	80 91 22 02 	lds	r24, 0x0222
    16e2:	88 0f       	add	r24, r24
    16e4:	88 0f       	add	r24, r24
    16e6:	88 0f       	add	r24, r24
    16e8:	80 51       	subi	r24, 0x10	; 16
    16ea:	80 0f       	add	r24, r16
    16ec:	06 c1       	rjmp	.+524    	; 0x18fa <buttonHandler_buttonPressed+0x29c>
    16ee:	80 2f       	mov	r24, r16
    16f0:	80 51       	subi	r24, 0x10	; 16
    16f2:	0e 94 b6 08 	call	0x116c	; 0x116c <buttonHandler_handleSelectButton>
    16f6:	5d c1       	rjmp	.+698    	; 0x19b2 <buttonHandler_buttonPressed+0x354>
    16f8:	80 2f       	mov	r24, r16
    16fa:	83 52       	subi	r24, 0x23	; 35
    16fc:	0e 94 89 09 	call	0x1312	; 0x1312 <buttonHandler_handleModeButtons>
    1700:	58 c1       	rjmp	.+688    	; 0x19b2 <buttonHandler_buttonPressed+0x354>
    1702:	80 91 4a 02 	lds	r24, 0x024A
    1706:	86 95       	lsr	r24
    1708:	86 95       	lsr	r24
    170a:	86 95       	lsr	r24
    170c:	81 70       	andi	r24, 0x01	; 1
    170e:	66 e0       	ldi	r22, 0x06	; 6
    1710:	0e 94 38 27 	call	0x4e70	; 0x4e70 <led_setValue>
    1714:	80 91 4a 02 	lds	r24, 0x024A
    1718:	86 95       	lsr	r24
    171a:	86 95       	lsr	r24
    171c:	86 95       	lsr	r24
    171e:	80 95       	com	r24
    1720:	81 70       	andi	r24, 0x01	; 1
    1722:	88 0f       	add	r24, r24
    1724:	88 0f       	add	r24, r24
    1726:	88 0f       	add	r24, r24
    1728:	90 91 4a 02 	lds	r25, 0x024A
    172c:	97 7f       	andi	r25, 0xF7	; 247
    172e:	98 2b       	or	r25, r24
    1730:	90 93 4a 02 	sts	0x024A, r25
    1734:	40 91 4a 02 	lds	r20, 0x024A
    1738:	46 95       	lsr	r20
    173a:	46 95       	lsr	r20
    173c:	46 95       	lsr	r20
    173e:	41 70       	andi	r20, 0x01	; 1
    1740:	82 eb       	ldi	r24, 0xB2	; 178
    1742:	61 e0       	ldi	r22, 0x01	; 1
    1744:	0e 94 90 0d 	call	0x1b20	; 0x1b20 <frontPanel_sendData>
    1748:	34 c1       	rjmp	.+616    	; 0x19b2 <buttonHandler_buttonPressed+0x354>
    174a:	0e 94 b0 08 	call	0x1160	; 0x1160 <buttonHandler_getShift>
    174e:	88 23       	and	r24, r24
    1750:	21 f0       	breq	.+8      	; 0x175a <buttonHandler_buttonPressed+0xfc>
    1752:	8e e0       	ldi	r24, 0x0E	; 14
    1754:	0e 94 4d 34 	call	0x689a	; 0x689a <menu_switchPage>
    1758:	2c c1       	rjmp	.+600    	; 0x19b2 <buttonHandler_buttonPressed+0x354>
    175a:	80 91 4a 02 	lds	r24, 0x024A
    175e:	82 95       	swap	r24
    1760:	8f 70       	andi	r24, 0x0F	; 15
    1762:	80 95       	com	r24
    1764:	81 70       	andi	r24, 0x01	; 1
    1766:	82 95       	swap	r24
    1768:	80 7f       	andi	r24, 0xF0	; 240
    176a:	90 91 4a 02 	lds	r25, 0x024A
    176e:	9f 7e       	andi	r25, 0xEF	; 239
    1770:	98 2b       	or	r25, r24
    1772:	90 93 4a 02 	sts	0x024A, r25
    1776:	80 91 4a 02 	lds	r24, 0x024A
    177a:	82 95       	swap	r24
    177c:	81 70       	andi	r24, 0x01	; 1
    177e:	65 e0       	ldi	r22, 0x05	; 5
    1780:	0e 94 38 27 	call	0x4e70	; 0x4e70 <led_setValue>
    1784:	40 91 4a 02 	lds	r20, 0x024A
    1788:	42 95       	swap	r20
    178a:	41 70       	andi	r20, 0x01	; 1
    178c:	82 eb       	ldi	r24, 0xB2	; 178
    178e:	6b e1       	ldi	r22, 0x1B	; 27
    1790:	d9 cf       	rjmp	.-78     	; 0x1744 <buttonHandler_buttonPressed+0xe6>
    1792:	80 91 38 02 	lds	r24, 0x0238
    1796:	82 30       	cpi	r24, 0x02	; 2
    1798:	28 f1       	brcs	.+74     	; 0x17e4 <buttonHandler_buttonPressed+0x186>
    179a:	0e 94 fa 29 	call	0x53f4	; 0x53f4 <copyClear_srcSet>
    179e:	10 2f       	mov	r17, r16
    17a0:	18 51       	subi	r17, 0x18	; 24
    17a2:	88 23       	and	r24, r24
    17a4:	a9 f0       	breq	.+42     	; 0x17d0 <buttonHandler_buttonPressed+0x172>
    17a6:	81 2f       	mov	r24, r17
    17a8:	63 e0       	ldi	r22, 0x03	; 3
    17aa:	0e 94 f5 29 	call	0x53ea	; 0x53ea <copyClear_setDst>
    17ae:	0e 94 14 2a 	call	0x5428	; 0x5428 <copyClear_copyTrack>
    17b2:	0e 94 f5 28 	call	0x51ea	; 0x51ea <led_clearAllBlinkLeds>
    17b6:	0e 94 ae 39 	call	0x735c	; 0x735c <menu_getActiveVoice>
    17ba:	18 2f       	mov	r17, r24
    17bc:	0e 94 bf 2a 	call	0x557e	; 0x557e <menu_getShownPattern>
    17c0:	41 2f       	mov	r20, r17
    17c2:	42 95       	swap	r20
    17c4:	40 7f       	andi	r20, 0xF0	; 240
    17c6:	87 70       	andi	r24, 0x07	; 7
    17c8:	48 2b       	or	r20, r24
    17ca:	81 eb       	ldi	r24, 0xB1	; 177
    17cc:	63 e0       	ldi	r22, 0x03	; 3
    17ce:	ba cf       	rjmp	.-140    	; 0x1744 <buttonHandler_buttonPressed+0xe6>
    17d0:	81 2f       	mov	r24, r17
    17d2:	63 e0       	ldi	r22, 0x03	; 3
    17d4:	0e 94 f0 29 	call	0x53e0	; 0x53e0 <copyClear_setSrc>
    17d8:	80 2f       	mov	r24, r16
    17da:	80 51       	subi	r24, 0x10	; 16
    17dc:	61 e0       	ldi	r22, 0x01	; 1
    17de:	0e 94 6d 28 	call	0x50da	; 0x50da <led_setBlinkLed>
    17e2:	e7 c0       	rjmp	.+462    	; 0x19b2 <buttonHandler_buttonPressed+0x354>
    17e4:	0e 94 b0 08 	call	0x1160	; 0x1160 <buttonHandler_getShift>
    17e8:	90 91 4a 02 	lds	r25, 0x024A
    17ec:	97 70       	andi	r25, 0x07	; 7
    17ee:	91 30       	cpi	r25, 0x01	; 1
    17f0:	11 f4       	brne	.+4      	; 0x17f6 <buttonHandler_buttonPressed+0x198>
    17f2:	98 1b       	sub	r25, r24
    17f4:	89 2f       	mov	r24, r25
    17f6:	10 2f       	mov	r17, r16
    17f8:	18 51       	subi	r17, 0x18	; 24
    17fa:	88 23       	and	r24, r24
    17fc:	61 f1       	breq	.+88     	; 0x1856 <buttonHandler_buttonPressed+0x1f8>
    17fe:	80 91 23 02 	lds	r24, 0x0223
    1802:	68 2f       	mov	r22, r24
    1804:	70 e0       	ldi	r23, 0x00	; 0
    1806:	01 2e       	mov	r0, r17
    1808:	02 c0       	rjmp	.+4      	; 0x180e <buttonHandler_buttonPressed+0x1b0>
    180a:	75 95       	asr	r23
    180c:	67 95       	ror	r22
    180e:	0a 94       	dec	r0
    1810:	e2 f7       	brpl	.-8      	; 0x180a <buttonHandler_buttonPressed+0x1ac>
    1812:	60 ff       	sbrs	r22, 0
    1814:	0f c0       	rjmp	.+30     	; 0x1834 <buttonHandler_buttonPressed+0x1d6>
    1816:	61 e0       	ldi	r22, 0x01	; 1
    1818:	70 e0       	ldi	r23, 0x00	; 0
    181a:	01 2e       	mov	r0, r17
    181c:	02 c0       	rjmp	.+4      	; 0x1822 <buttonHandler_buttonPressed+0x1c4>
    181e:	66 0f       	add	r22, r22
    1820:	77 1f       	adc	r23, r23
    1822:	0a 94       	dec	r0
    1824:	e2 f7       	brpl	.-8      	; 0x181e <buttonHandler_buttonPressed+0x1c0>
    1826:	60 95       	com	r22
    1828:	68 23       	and	r22, r24
    182a:	60 93 23 02 	sts	0x0223, r22
    182e:	82 eb       	ldi	r24, 0xB2	; 178
    1830:	6a e0       	ldi	r22, 0x0A	; 10
    1832:	0d c0       	rjmp	.+26     	; 0x184e <buttonHandler_buttonPressed+0x1f0>
    1834:	21 e0       	ldi	r18, 0x01	; 1
    1836:	30 e0       	ldi	r19, 0x00	; 0
    1838:	01 2e       	mov	r0, r17
    183a:	02 c0       	rjmp	.+4      	; 0x1840 <buttonHandler_buttonPressed+0x1e2>
    183c:	22 0f       	add	r18, r18
    183e:	33 1f       	adc	r19, r19
    1840:	0a 94       	dec	r0
    1842:	e2 f7       	brpl	.-8      	; 0x183c <buttonHandler_buttonPressed+0x1de>
    1844:	28 2b       	or	r18, r24
    1846:	20 93 23 02 	sts	0x0223, r18
    184a:	82 eb       	ldi	r24, 0xB2	; 178
    184c:	69 e0       	ldi	r22, 0x09	; 9
    184e:	41 2f       	mov	r20, r17
    1850:	0e 94 90 0d 	call	0x1b20	; 0x1b20 <frontPanel_sendData>
    1854:	a9 c0       	rjmp	.+338    	; 0x19a8 <buttonHandler_buttonPressed+0x34a>
    1856:	81 2f       	mov	r24, r17
    1858:	0e 94 1b 27 	call	0x4e36	; 0x4e36 <led_setActiveVoice>
    185c:	80 91 4a 02 	lds	r24, 0x024A
    1860:	87 70       	andi	r24, 0x07	; 7
    1862:	19 f4       	brne	.+6      	; 0x186a <buttonHandler_buttonPressed+0x20c>
    1864:	81 2f       	mov	r24, r17
    1866:	0e 94 4d 34 	call	0x689a	; 0x689a <menu_switchPage>
    186a:	82 eb       	ldi	r24, 0xB2	; 178
    186c:	65 e1       	ldi	r22, 0x15	; 21
    186e:	41 2f       	mov	r20, r17
    1870:	0e 94 90 0d 	call	0x1b20	; 0x1b20 <frontPanel_sendData>
    1874:	81 2f       	mov	r24, r17
    1876:	0e 94 b1 39 	call	0x7362	; 0x7362 <menu_setActiveVoice>
    187a:	82 eb       	ldi	r24, 0xB2	; 178
    187c:	69 e1       	ldi	r22, 0x19	; 25
    187e:	41 2f       	mov	r20, r17
    1880:	0e 94 90 0d 	call	0x1b20	; 0x1b20 <frontPanel_sendData>
    1884:	80 91 4a 02 	lds	r24, 0x024A
    1888:	87 70       	andi	r24, 0x07	; 7
    188a:	82 30       	cpi	r24, 0x02	; 2
    188c:	09 f0       	breq	.+2      	; 0x1890 <buttonHandler_buttonPressed+0x232>
    188e:	91 c0       	rjmp	.+290    	; 0x19b2 <buttonHandler_buttonPressed+0x354>
    1890:	0e 94 f5 28 	call	0x51ea	; 0x51ea <led_clearAllBlinkLeds>
    1894:	0e 94 79 09 	call	0x12f2	; 0x12f2 <buttonHandler_enterSeqModeStepMode>
    1898:	8c c0       	rjmp	.+280    	; 0x19b2 <buttonHandler_buttonPressed+0x354>
    189a:	10 2f       	mov	r17, r16
    189c:	18 5e       	subi	r17, 0xE8	; 232
    189e:	0e 94 b0 08 	call	0x1160	; 0x1160 <buttonHandler_getShift>
    18a2:	88 23       	and	r24, r24
    18a4:	99 f0       	breq	.+38     	; 0x18cc <buttonHandler_buttonPressed+0x26e>
    18a6:	80 91 4a 02 	lds	r24, 0x024A
    18aa:	87 70       	andi	r24, 0x07	; 7
    18ac:	21 f4       	brne	.+8      	; 0x18b6 <buttonHandler_buttonPressed+0x258>
    18ae:	81 2f       	mov	r24, r17
    18b0:	60 2f       	mov	r22, r16
    18b2:	0e 94 2b 0a 	call	0x1456	; 0x1456 <buttonHandler_selectActiveStep>
    18b6:	80 91 4a 02 	lds	r24, 0x024A
    18ba:	87 70       	andi	r24, 0x07	; 7
    18bc:	82 30       	cpi	r24, 0x02	; 2
    18be:	09 f0       	breq	.+2      	; 0x18c2 <buttonHandler_buttonPressed+0x264>
    18c0:	78 c0       	rjmp	.+240    	; 0x19b2 <buttonHandler_buttonPressed+0x354>
    18c2:	81 2f       	mov	r24, r17
    18c4:	60 2f       	mov	r22, r16
    18c6:	0e 94 52 0a 	call	0x14a4	; 0x14a4 <buttonHandler_setRemoveStep>
    18ca:	73 c0       	rjmp	.+230    	; 0x19b2 <buttonHandler_buttonPressed+0x354>
    18cc:	20 91 4a 02 	lds	r18, 0x024A
    18d0:	27 70       	andi	r18, 0x07	; 7
    18d2:	30 e0       	ldi	r19, 0x00	; 0
    18d4:	21 30       	cpi	r18, 0x01	; 1
    18d6:	31 05       	cpc	r19, r1
    18d8:	99 f0       	breq	.+38     	; 0x1900 <buttonHandler_buttonPressed+0x2a2>
    18da:	22 30       	cpi	r18, 0x02	; 2
    18dc:	31 05       	cpc	r19, r1
    18de:	21 f0       	breq	.+8      	; 0x18e8 <buttonHandler_buttonPressed+0x28a>
    18e0:	21 15       	cp	r18, r1
    18e2:	31 05       	cpc	r19, r1
    18e4:	31 f0       	breq	.+12     	; 0x18f2 <buttonHandler_buttonPressed+0x294>
    18e6:	65 c0       	rjmp	.+202    	; 0x19b2 <buttonHandler_buttonPressed+0x354>
    18e8:	81 2f       	mov	r24, r17
    18ea:	60 2f       	mov	r22, r16
    18ec:	0e 94 2b 0a 	call	0x1456	; 0x1456 <buttonHandler_selectActiveStep>
    18f0:	60 c0       	rjmp	.+192    	; 0x19b2 <buttonHandler_buttonPressed+0x354>
    18f2:	80 2f       	mov	r24, r16
    18f4:	88 0f       	add	r24, r24
    18f6:	88 0f       	add	r24, r24
    18f8:	88 0f       	add	r24, r24
    18fa:	0e 94 8e 08 	call	0x111c	; 0x111c <buttonHandler_setTimeraction>
    18fe:	59 c0       	rjmp	.+178    	; 0x19b2 <buttonHandler_buttonPressed+0x354>
    1900:	08 30       	cpi	r16, 0x08	; 8
    1902:	08 f0       	brcs	.+2      	; 0x1906 <buttonHandler_buttonPressed+0x2a8>
    1904:	56 c0       	rjmp	.+172    	; 0x19b2 <buttonHandler_buttonPressed+0x354>
    1906:	40 2f       	mov	r20, r16
    1908:	4f 70       	andi	r20, 0x0F	; 15
    190a:	40 5f       	subi	r20, 0xF0	; 240
    190c:	82 eb       	ldi	r24, 0xB2	; 178
    190e:	60 e1       	ldi	r22, 0x10	; 16
    1910:	0e 94 90 0d 	call	0x1b20	; 0x1b20 <frontPanel_sendData>
    1914:	81 e0       	ldi	r24, 0x01	; 1
    1916:	61 2f       	mov	r22, r17
    1918:	0e 94 38 27 	call	0x4e70	; 0x4e70 <led_setValue>
    191c:	4a c0       	rjmp	.+148    	; 0x19b2 <buttonHandler_buttonPressed+0x354>
    191e:	0e 94 b0 08 	call	0x1160	; 0x1160 <buttonHandler_getShift>
    1922:	88 23       	and	r24, r24
    1924:	69 f0       	breq	.+26     	; 0x1940 <buttonHandler_buttonPressed+0x2e2>
    1926:	80 91 38 02 	lds	r24, 0x0238
    192a:	81 30       	cpi	r24, 0x01	; 1
    192c:	19 f4       	brne	.+6      	; 0x1934 <buttonHandler_buttonPressed+0x2d6>
    192e:	0e 94 9e 2a 	call	0x553c	; 0x553c <copyClear_executeClear>
    1932:	3f c0       	rjmp	.+126    	; 0x19b2 <buttonHandler_buttonPressed+0x354>
    1934:	81 e0       	ldi	r24, 0x01	; 1
    1936:	80 93 38 02 	sts	0x0238, r24
    193a:	0e 94 62 2a 	call	0x54c4	; 0x54c4 <copyClear_armClearMenu>
    193e:	39 c0       	rjmp	.+114    	; 0x19b2 <buttonHandler_buttonPressed+0x354>
    1940:	83 e0       	ldi	r24, 0x03	; 3
    1942:	80 93 38 02 	sts	0x0238, r24
    1946:	8f e0       	ldi	r24, 0x0F	; 15
    1948:	61 e0       	ldi	r22, 0x01	; 1
    194a:	0e 94 6d 28 	call	0x50da	; 0x50da <led_setBlinkLed>
    194e:	0e 94 cb 26 	call	0x4d96	; 0x4d96 <led_clearSelectLeds>
    1952:	0e 94 d0 26 	call	0x4da0	; 0x4da0 <led_clearVoiceLeds>
    1956:	2d c0       	rjmp	.+90     	; 0x19b2 <buttonHandler_buttonPressed+0x354>
    1958:	81 e0       	ldi	r24, 0x01	; 1
    195a:	64 e0       	ldi	r22, 0x04	; 4
    195c:	0e 94 38 27 	call	0x4e70	; 0x4e70 <led_setValue>
    1960:	80 91 4a 02 	lds	r24, 0x024A
    1964:	87 70       	andi	r24, 0x07	; 7
    1966:	19 f4       	brne	.+6      	; 0x196e <buttonHandler_buttonPressed+0x310>
    1968:	0e 94 fe 09 	call	0x13fc	; 0x13fc <buttonHandler_enterSeqMode>
    196c:	1d c0       	rjmp	.+58     	; 0x19a8 <buttonHandler_buttonPressed+0x34a>
    196e:	80 91 4a 02 	lds	r24, 0x024A
    1972:	87 70       	andi	r24, 0x07	; 7
    1974:	81 30       	cpi	r24, 0x01	; 1
    1976:	29 f0       	breq	.+10     	; 0x1982 <buttonHandler_buttonPressed+0x324>
    1978:	80 91 4a 02 	lds	r24, 0x024A
    197c:	87 70       	andi	r24, 0x07	; 7
    197e:	85 30       	cpi	r24, 0x05	; 5
    1980:	61 f4       	brne	.+24     	; 0x199a <buttonHandler_buttonPressed+0x33c>
    1982:	8d e0       	ldi	r24, 0x0D	; 13
    1984:	0e 94 4d 34 	call	0x689a	; 0x689a <menu_switchPage>
    1988:	0e 94 cb 26 	call	0x4d96	; 0x4d96 <led_clearSelectLeds>
    198c:	0e 94 bf 2a 	call	0x557e	; 0x557e <menu_getShownPattern>
    1990:	80 5f       	subi	r24, 0xF0	; 240
    1992:	61 e0       	ldi	r22, 0x01	; 1
    1994:	0e 94 6d 28 	call	0x50da	; 0x50da <led_setBlinkLed>
    1998:	07 c0       	rjmp	.+14     	; 0x19a8 <buttonHandler_buttonPressed+0x34a>
    199a:	80 91 4a 02 	lds	r24, 0x024A
    199e:	87 70       	andi	r24, 0x07	; 7
    19a0:	82 30       	cpi	r24, 0x02	; 2
    19a2:	11 f4       	brne	.+4      	; 0x19a8 <buttonHandler_buttonPressed+0x34a>
    19a4:	0e 94 f3 09 	call	0x13e6	; 0x13e6 <buttonHandler_leaveSeqModeStepMode>
    19a8:	80 91 23 02 	lds	r24, 0x0223
    19ac:	80 95       	com	r24
    19ae:	0e 94 09 27 	call	0x4e12	; 0x4e12 <led_setActiveVoiceLeds>
    19b2:	1f 91       	pop	r17
    19b4:	0f 91       	pop	r16
    19b6:	08 95       	ret

000019b8 <buttonHandler_getMode>:
    19b8:	80 91 4a 02 	lds	r24, 0x024A
    19bc:	87 70       	andi	r24, 0x07	; 7
    19be:	08 95       	ret

000019c0 <encode_init>:
    19c0:	87 b1       	in	r24, 0x07	; 7
    19c2:	88 7f       	andi	r24, 0xF8	; 248
    19c4:	87 b9       	out	0x07, r24	; 7
    19c6:	88 b1       	in	r24, 0x08	; 8
    19c8:	87 60       	ori	r24, 0x07	; 7
    19ca:	88 b9       	out	0x08, r24	; 8
    19cc:	30 99       	sbic	0x06, 0	; 6
    19ce:	02 c0       	rjmp	.+4      	; 0x19d4 <encode_init+0x14>
    19d0:	80 e0       	ldi	r24, 0x00	; 0
    19d2:	01 c0       	rjmp	.+2      	; 0x19d6 <encode_init+0x16>
    19d4:	83 e0       	ldi	r24, 0x03	; 3
    19d6:	31 9b       	sbis	0x06, 1	; 6
    19d8:	02 c0       	rjmp	.+4      	; 0x19de <encode_init+0x1e>
    19da:	91 e0       	ldi	r25, 0x01	; 1
    19dc:	89 27       	eor	r24, r25
    19de:	80 93 26 02 	sts	0x0226, r24
    19e2:	10 92 4c 02 	sts	0x024C, r1
    19e6:	82 e0       	ldi	r24, 0x02	; 2
    19e8:	84 bd       	out	0x24, r24	; 36
    19ea:	84 e0       	ldi	r24, 0x04	; 4
    19ec:	85 bd       	out	0x25, r24	; 37
    19ee:	8e e4       	ldi	r24, 0x4E	; 78
    19f0:	87 bd       	out	0x27, r24	; 39
    19f2:	80 91 6e 00 	lds	r24, 0x006E
    19f6:	82 60       	ori	r24, 0x02	; 2
    19f8:	80 93 6e 00 	sts	0x006E, r24
    19fc:	10 92 27 02 	sts	0x0227, r1
    1a00:	81 e0       	ldi	r24, 0x01	; 1
    1a02:	80 93 4b 02 	sts	0x024B, r24
    1a06:	08 95       	ret

00001a08 <__vector_16>:
    1a08:	1f 92       	push	r1
    1a0a:	0f 92       	push	r0
    1a0c:	0f b6       	in	r0, 0x3f	; 63
    1a0e:	0f 92       	push	r0
    1a10:	11 24       	eor	r1, r1
    1a12:	2f 93       	push	r18
    1a14:	3f 93       	push	r19
    1a16:	4f 93       	push	r20
    1a18:	8f 93       	push	r24
    1a1a:	9f 93       	push	r25
    1a1c:	30 99       	sbic	0x06, 0	; 6
    1a1e:	02 c0       	rjmp	.+4      	; 0x1a24 <__vector_16+0x1c>
    1a20:	80 e0       	ldi	r24, 0x00	; 0
    1a22:	01 c0       	rjmp	.+2      	; 0x1a26 <__vector_16+0x1e>
    1a24:	83 e0       	ldi	r24, 0x03	; 3
    1a26:	31 9b       	sbis	0x06, 1	; 6
    1a28:	02 c0       	rjmp	.+4      	; 0x1a2e <__vector_16+0x26>
    1a2a:	91 e0       	ldi	r25, 0x01	; 1
    1a2c:	89 27       	eor	r24, r25
    1a2e:	90 91 26 02 	lds	r25, 0x0226
    1a32:	98 1b       	sub	r25, r24
    1a34:	90 ff       	sbrs	r25, 0
    1a36:	09 c0       	rjmp	.+18     	; 0x1a4a <__vector_16+0x42>
    1a38:	80 93 26 02 	sts	0x0226, r24
    1a3c:	80 91 4c 02 	lds	r24, 0x024C
    1a40:	81 50       	subi	r24, 0x01	; 1
    1a42:	92 70       	andi	r25, 0x02	; 2
    1a44:	89 0f       	add	r24, r25
    1a46:	80 93 4c 02 	sts	0x024C, r24
    1a4a:	86 b1       	in	r24, 0x06	; 6
    1a4c:	40 91 27 02 	lds	r20, 0x0227
    1a50:	90 e0       	ldi	r25, 0x00	; 0
    1a52:	84 70       	andi	r24, 0x04	; 4
    1a54:	90 70       	andi	r25, 0x00	; 0
    1a56:	24 2f       	mov	r18, r20
    1a58:	33 27       	eor	r19, r19
    1a5a:	27 fd       	sbrc	r18, 7
    1a5c:	30 95       	com	r19
    1a5e:	82 17       	cp	r24, r18
    1a60:	93 07       	cpc	r25, r19
    1a62:	11 f4       	brne	.+4      	; 0x1a68 <__vector_16+0x60>
    1a64:	40 93 4b 02 	sts	0x024B, r20
    1a68:	86 b1       	in	r24, 0x06	; 6
    1a6a:	84 70       	andi	r24, 0x04	; 4
    1a6c:	80 93 27 02 	sts	0x0227, r24
    1a70:	9f 91       	pop	r25
    1a72:	8f 91       	pop	r24
    1a74:	4f 91       	pop	r20
    1a76:	3f 91       	pop	r19
    1a78:	2f 91       	pop	r18
    1a7a:	0f 90       	pop	r0
    1a7c:	0f be       	out	0x3f, r0	; 63
    1a7e:	0f 90       	pop	r0
    1a80:	1f 90       	pop	r1
    1a82:	18 95       	reti

00001a84 <encode_read4>:
    1a84:	f8 94       	cli
    1a86:	80 91 4c 02 	lds	r24, 0x024C
    1a8a:	98 2f       	mov	r25, r24
    1a8c:	93 70       	andi	r25, 0x03	; 3
    1a8e:	90 93 4c 02 	sts	0x024C, r25
    1a92:	78 94       	sei
    1a94:	85 95       	asr	r24
    1a96:	85 95       	asr	r24
    1a98:	08 95       	ret

00001a9a <encode_readButton>:
    1a9a:	90 91 4b 02 	lds	r25, 0x024B
    1a9e:	81 e0       	ldi	r24, 0x01	; 1
    1aa0:	91 11       	cpse	r25, r1
    1aa2:	80 e0       	ldi	r24, 0x00	; 0
    1aa4:	08 95       	ret

00001aa6 <fifo_init>:
    1aa6:	20 e8       	ldi	r18, 0x80	; 128
    1aa8:	dc 01       	movw	r26, r24
    1aaa:	1d 92       	st	X+, r1
    1aac:	2a 95       	dec	r18
    1aae:	e9 f7       	brne	.-6      	; 0x1aaa <fifo_init+0x4>
    1ab0:	fc 01       	movw	r30, r24
    1ab2:	e0 58       	subi	r30, 0x80	; 128
    1ab4:	ff 4f       	sbci	r31, 0xFF	; 255
    1ab6:	10 82       	st	Z, r1
    1ab8:	8f 57       	subi	r24, 0x7F	; 127
    1aba:	9f 4f       	sbci	r25, 0xFF	; 255
    1abc:	fc 01       	movw	r30, r24
    1abe:	10 82       	st	Z, r1
    1ac0:	08 95       	ret

00001ac2 <fifo_bufferIn>:
    1ac2:	fc 01       	movw	r30, r24
    1ac4:	ef 57       	subi	r30, 0x7F	; 127
    1ac6:	ff 4f       	sbci	r31, 0xFF	; 255
    1ac8:	20 81       	ld	r18, Z
    1aca:	2f 5f       	subi	r18, 0xFF	; 255
    1acc:	2f 77       	andi	r18, 0x7F	; 127
    1ace:	dc 01       	movw	r26, r24
    1ad0:	a0 58       	subi	r26, 0x80	; 128
    1ad2:	bf 4f       	sbci	r27, 0xFF	; 255
    1ad4:	3c 91       	ld	r19, X
    1ad6:	32 17       	cp	r19, r18
    1ad8:	41 f0       	breq	.+16     	; 0x1aea <fifo_bufferIn+0x28>
    1ada:	30 81       	ld	r19, Z
    1adc:	83 0f       	add	r24, r19
    1ade:	91 1d       	adc	r25, r1
    1ae0:	dc 01       	movw	r26, r24
    1ae2:	6c 93       	st	X, r22
    1ae4:	20 83       	st	Z, r18
    1ae6:	81 e0       	ldi	r24, 0x01	; 1
    1ae8:	08 95       	ret
    1aea:	80 e0       	ldi	r24, 0x00	; 0
    1aec:	08 95       	ret

00001aee <fifo_BufferOut>:
    1aee:	fc 01       	movw	r30, r24
    1af0:	e0 58       	subi	r30, 0x80	; 128
    1af2:	ff 4f       	sbci	r31, 0xFF	; 255
    1af4:	30 81       	ld	r19, Z
    1af6:	dc 01       	movw	r26, r24
    1af8:	af 57       	subi	r26, 0x7F	; 127
    1afa:	bf 4f       	sbci	r27, 0xFF	; 255
    1afc:	2c 91       	ld	r18, X
    1afe:	32 17       	cp	r19, r18
    1b00:	69 f0       	breq	.+26     	; 0x1b1c <fifo_BufferOut+0x2e>
    1b02:	20 81       	ld	r18, Z
    1b04:	82 0f       	add	r24, r18
    1b06:	91 1d       	adc	r25, r1
    1b08:	dc 01       	movw	r26, r24
    1b0a:	8c 91       	ld	r24, X
    1b0c:	db 01       	movw	r26, r22
    1b0e:	8c 93       	st	X, r24
    1b10:	80 81       	ld	r24, Z
    1b12:	8f 5f       	subi	r24, 0xFF	; 255
    1b14:	8f 77       	andi	r24, 0x7F	; 127
    1b16:	80 83       	st	Z, r24
    1b18:	81 e0       	ldi	r24, 0x01	; 1
    1b1a:	08 95       	ret
    1b1c:	80 e0       	ldi	r24, 0x00	; 0
    1b1e:	08 95       	ret

00001b20 <frontPanel_sendData>:
    1b20:	ef 92       	push	r14
    1b22:	ff 92       	push	r15
    1b24:	0f 93       	push	r16
    1b26:	1f 93       	push	r17
    1b28:	18 2f       	mov	r17, r24
    1b2a:	06 2f       	mov	r16, r22
    1b2c:	e4 2e       	mov	r14, r20
    1b2e:	ff b6       	in	r15, 0x3f	; 63
    1b30:	f8 94       	cli
    1b32:	81 2f       	mov	r24, r17
    1b34:	0e 94 97 26 	call	0x4d2e	; 0x4d2e <uart_putc>
    1b38:	88 23       	and	r24, r24
    1b3a:	d9 f3       	breq	.-10     	; 0x1b32 <frontPanel_sendData+0x12>
    1b3c:	80 2f       	mov	r24, r16
    1b3e:	0e 94 97 26 	call	0x4d2e	; 0x4d2e <uart_putc>
    1b42:	88 23       	and	r24, r24
    1b44:	d9 f3       	breq	.-10     	; 0x1b3c <frontPanel_sendData+0x1c>
    1b46:	8e 2d       	mov	r24, r14
    1b48:	0e 94 97 26 	call	0x4d2e	; 0x4d2e <uart_putc>
    1b4c:	88 23       	and	r24, r24
    1b4e:	d9 f3       	breq	.-10     	; 0x1b46 <frontPanel_sendData+0x26>
    1b50:	ff be       	out	0x3f, r15	; 63
    1b52:	1f 91       	pop	r17
    1b54:	0f 91       	pop	r16
    1b56:	ff 90       	pop	r15
    1b58:	ef 90       	pop	r14
    1b5a:	08 95       	ret

00001b5c <frontParser_parseNrpn>:
    1b5c:	cf 93       	push	r28
    1b5e:	df 93       	push	r29
    1b60:	c0 91 2c 02 	lds	r28, 0x022C
    1b64:	d0 91 2d 02 	lds	r29, 0x022D
    1b68:	fe 01       	movw	r30, r28
    1b6a:	ee 0f       	add	r30, r30
    1b6c:	ff 1f       	adc	r31, r31
    1b6e:	e5 56       	subi	r30, 0x65	; 101
    1b70:	f7 4f       	sbci	r31, 0xF7	; 247
    1b72:	80 83       	st	Z, r24
    1b74:	9e 01       	movw	r18, r28
    1b76:	27 52       	subi	r18, 0x27	; 39
    1b78:	30 40       	sbci	r19, 0x00	; 0
    1b7a:	26 30       	cpi	r18, 0x06	; 6
    1b7c:	31 05       	cpc	r19, r1
    1b7e:	d0 f4       	brcc	.+52     	; 0x1bb4 <frontParser_parseNrpn+0x58>
    1b80:	9e 01       	movw	r18, r28
    1b82:	27 52       	subi	r18, 0x27	; 39
    1b84:	c2 2f       	mov	r28, r18
    1b86:	d0 e0       	ldi	r29, 0x00	; 0
    1b88:	fe 01       	movw	r30, r28
    1b8a:	ee 0f       	add	r30, r30
    1b8c:	ff 1f       	adc	r31, r31
    1b8e:	e3 52       	subi	r30, 0x23	; 35
    1b90:	f7 4f       	sbci	r31, 0xF7	; 247
    1b92:	60 81       	ld	r22, Z
    1b94:	61 50       	subi	r22, 0x01	; 1
    1b96:	0e 94 ca 2a 	call	0x5594	; 0x5594 <getModTargetValue>
    1b9a:	68 2f       	mov	r22, r24
    1b9c:	66 1f       	adc	r22, r22
    1b9e:	66 27       	eor	r22, r22
    1ba0:	66 1f       	adc	r22, r22
    1ba2:	cf 73       	andi	r28, 0x3F	; 63
    1ba4:	d0 70       	andi	r29, 0x00	; 0
    1ba6:	cc 0f       	add	r28, r28
    1ba8:	dd 1f       	adc	r29, r29
    1baa:	6c 2b       	or	r22, r28
    1bac:	48 2f       	mov	r20, r24
    1bae:	4f 77       	andi	r20, 0x7F	; 127
    1bb0:	87 eb       	ldi	r24, 0xB7	; 183
    1bb2:	20 c0       	rjmp	.+64     	; 0x1bf4 <frontParser_parseNrpn+0x98>
    1bb4:	9e 01       	movw	r18, r28
    1bb6:	25 51       	subi	r18, 0x15	; 21
    1bb8:	30 40       	sbci	r19, 0x00	; 0
    1bba:	26 30       	cpi	r18, 0x06	; 6
    1bbc:	31 05       	cpc	r19, r1
    1bbe:	e0 f4       	brcc	.+56     	; 0x1bf8 <frontParser_parseNrpn+0x9c>
    1bc0:	80 34       	cpi	r24, 0x40	; 64
    1bc2:	08 f0       	brcs	.+2      	; 0x1bc6 <frontParser_parseNrpn+0x6a>
    1bc4:	8f e3       	ldi	r24, 0x3F	; 63
    1bc6:	9e 01       	movw	r18, r28
    1bc8:	25 51       	subi	r18, 0x15	; 21
    1bca:	62 2f       	mov	r22, r18
    1bcc:	0e 94 ca 2a 	call	0x5594	; 0x5594 <getModTargetValue>
    1bd0:	68 2f       	mov	r22, r24
    1bd2:	66 1f       	adc	r22, r22
    1bd4:	66 27       	eor	r22, r22
    1bd6:	66 1f       	adc	r22, r22
    1bd8:	20 91 2c 02 	lds	r18, 0x022C
    1bdc:	30 91 2d 02 	lds	r19, 0x022D
    1be0:	25 51       	subi	r18, 0x15	; 21
    1be2:	30 40       	sbci	r19, 0x00	; 0
    1be4:	2f 73       	andi	r18, 0x3F	; 63
    1be6:	30 70       	andi	r19, 0x00	; 0
    1be8:	22 0f       	add	r18, r18
    1bea:	33 1f       	adc	r19, r19
    1bec:	62 2b       	or	r22, r18
    1bee:	48 2f       	mov	r20, r24
    1bf0:	4f 77       	andi	r20, 0x7F	; 127
    1bf2:	88 eb       	ldi	r24, 0xB8	; 184
    1bf4:	0e 94 90 0d 	call	0x1b20	; 0x1b20 <frontPanel_sendData>
    1bf8:	df 91       	pop	r29
    1bfa:	cf 91       	pop	r28
    1bfc:	08 95       	ret

00001bfe <frontPanel_ccHandler>:
    1bfe:	1f 93       	push	r17
    1c00:	10 91 4e 02 	lds	r17, 0x024E
    1c04:	11 50       	subi	r17, 0x01	; 1
    1c06:	15 30       	cpi	r17, 0x05	; 5
    1c08:	29 f4       	brne	.+10     	; 0x1c14 <frontPanel_ccHandler+0x16>
    1c0a:	80 91 4f 02 	lds	r24, 0x024F
    1c0e:	0e 94 ae 0d 	call	0x1b5c	; 0x1b5c <frontParser_parseNrpn>
    1c12:	21 c0       	rjmp	.+66     	; 0x1c56 <frontPanel_ccHandler+0x58>
    1c14:	11 36       	cpi	r17, 0x61	; 97
    1c16:	49 f4       	brne	.+18     	; 0x1c2a <frontPanel_ccHandler+0x2c>
    1c18:	80 91 4f 02 	lds	r24, 0x024F
    1c1c:	90 e0       	ldi	r25, 0x00	; 0
    1c1e:	20 91 2c 02 	lds	r18, 0x022C
    1c22:	30 91 2d 02 	lds	r19, 0x022D
    1c26:	20 78       	andi	r18, 0x80	; 128
    1c28:	10 c0       	rjmp	.+32     	; 0x1c4a <frontPanel_ccHandler+0x4c>
    1c2a:	12 36       	cpi	r17, 0x62	; 98
    1c2c:	a1 f4       	brne	.+40     	; 0x1c56 <frontPanel_ccHandler+0x58>
    1c2e:	80 91 4f 02 	lds	r24, 0x024F
    1c32:	90 e0       	ldi	r25, 0x00	; 0
    1c34:	96 95       	lsr	r25
    1c36:	98 2f       	mov	r25, r24
    1c38:	88 27       	eor	r24, r24
    1c3a:	97 95       	ror	r25
    1c3c:	87 95       	ror	r24
    1c3e:	20 91 2c 02 	lds	r18, 0x022C
    1c42:	30 91 2d 02 	lds	r19, 0x022D
    1c46:	2f 77       	andi	r18, 0x7F	; 127
    1c48:	30 70       	andi	r19, 0x00	; 0
    1c4a:	82 2b       	or	r24, r18
    1c4c:	93 2b       	or	r25, r19
    1c4e:	90 93 2d 02 	sts	0x022D, r25
    1c52:	80 93 2c 02 	sts	0x022C, r24
    1c56:	80 91 4f 02 	lds	r24, 0x024F
    1c5a:	e1 2f       	mov	r30, r17
    1c5c:	f0 e0       	ldi	r31, 0x00	; 0
    1c5e:	ee 0f       	add	r30, r30
    1c60:	ff 1f       	adc	r31, r31
    1c62:	e5 56       	subi	r30, 0x65	; 101
    1c64:	f8 4f       	sbci	r31, 0xF8	; 248
    1c66:	80 83       	st	Z, r24
    1c68:	0e 94 28 2d 	call	0x5a50	; 0x5a50 <menu_repaint>
    1c6c:	1f 91       	pop	r17
    1c6e:	08 95       	ret

00001c70 <frontPanel_parseData>:
    1c70:	ef 92       	push	r14
    1c72:	ff 92       	push	r15
    1c74:	1f 93       	push	r17
    1c76:	cf 93       	push	r28
    1c78:	df 93       	push	r29
    1c7a:	87 ff       	sbrs	r24, 7
    1c7c:	05 c0       	rjmp	.+10     	; 0x1c88 <frontPanel_parseData+0x18>
    1c7e:	10 92 2b 02 	sts	0x022B, r1
    1c82:	80 93 4d 02 	sts	0x024D, r24
    1c86:	fb c1       	rjmp	.+1014   	; 0x207e <frontPanel_parseData+0x40e>
    1c88:	90 91 4d 02 	lds	r25, 0x024D
    1c8c:	90 3f       	cpi	r25, 0xF0	; 240
    1c8e:	09 f0       	breq	.+2      	; 0x1c92 <frontPanel_parseData+0x22>
    1c90:	98 c0       	rjmp	.+304    	; 0x1dc2 <frontPanel_parseData+0x152>
    1c92:	90 91 28 02 	lds	r25, 0x0228
    1c96:	91 30       	cpi	r25, 0x01	; 1
    1c98:	09 f0       	breq	.+2      	; 0x1c9c <frontPanel_parseData+0x2c>
    1c9a:	4a c0       	rjmp	.+148    	; 0x1d30 <frontPanel_parseData+0xc0>
    1c9c:	90 91 2b 02 	lds	r25, 0x022B
    1ca0:	97 30       	cpi	r25, 0x07	; 7
    1ca2:	28 f4       	brcc	.+10     	; 0x1cae <frontPanel_parseData+0x3e>
    1ca4:	e9 2f       	mov	r30, r25
    1ca6:	f0 e0       	ldi	r31, 0x00	; 0
    1ca8:	e0 5b       	subi	r30, 0xB0	; 176
    1caa:	fd 4f       	sbci	r31, 0xFD	; 253
    1cac:	68 c0       	rjmp	.+208    	; 0x1d7e <frontPanel_parseData+0x10e>
    1cae:	20 e0       	ldi	r18, 0x00	; 0
    1cb0:	30 e0       	ldi	r19, 0x00	; 0
    1cb2:	a1 e0       	ldi	r26, 0x01	; 1
    1cb4:	b0 e0       	ldi	r27, 0x00	; 0
    1cb6:	90 e0       	ldi	r25, 0x00	; 0
    1cb8:	67 e0       	ldi	r22, 0x07	; 7
    1cba:	70 e0       	ldi	r23, 0x00	; 0
    1cbc:	f9 01       	movw	r30, r18
    1cbe:	e0 5b       	subi	r30, 0xB0	; 176
    1cc0:	fd 4f       	sbci	r31, 0xFD	; 253
    1cc2:	10 81       	ld	r17, Z
    1cc4:	ad 01       	movw	r20, r26
    1cc6:	02 2e       	mov	r0, r18
    1cc8:	02 c0       	rjmp	.+4      	; 0x1cce <frontPanel_parseData+0x5e>
    1cca:	44 0f       	add	r20, r20
    1ccc:	55 1f       	adc	r21, r21
    1cce:	0a 94       	dec	r0
    1cd0:	e2 f7       	brpl	.-8      	; 0x1cca <frontPanel_parseData+0x5a>
    1cd2:	48 23       	and	r20, r24
    1cd4:	59 23       	and	r21, r25
    1cd6:	eb 01       	movw	r28, r22
    1cd8:	c2 1b       	sub	r28, r18
    1cda:	d3 0b       	sbc	r29, r19
    1cdc:	0c 2e       	mov	r0, r28
    1cde:	02 c0       	rjmp	.+4      	; 0x1ce4 <frontPanel_parseData+0x74>
    1ce0:	44 0f       	add	r20, r20
    1ce2:	55 1f       	adc	r21, r21
    1ce4:	0a 94       	dec	r0
    1ce6:	e2 f7       	brpl	.-8      	; 0x1ce0 <frontPanel_parseData+0x70>
    1ce8:	14 2b       	or	r17, r20
    1cea:	10 83       	st	Z, r17
    1cec:	2f 5f       	subi	r18, 0xFF	; 255
    1cee:	3f 4f       	sbci	r19, 0xFF	; 255
    1cf0:	27 30       	cpi	r18, 0x07	; 7
    1cf2:	31 05       	cpc	r19, r1
    1cf4:	19 f7       	brne	.-58     	; 0x1cbc <frontPanel_parseData+0x4c>
    1cf6:	80 91 50 02 	lds	r24, 0x0250
    1cfa:	80 93 57 02 	sts	0x0257, r24
    1cfe:	80 91 51 02 	lds	r24, 0x0251
    1d02:	80 93 58 02 	sts	0x0258, r24
    1d06:	80 91 52 02 	lds	r24, 0x0252
    1d0a:	80 93 59 02 	sts	0x0259, r24
    1d0e:	80 91 53 02 	lds	r24, 0x0253
    1d12:	80 93 5a 02 	sts	0x025A, r24
    1d16:	80 91 54 02 	lds	r24, 0x0254
    1d1a:	80 93 5b 02 	sts	0x025B, r24
    1d1e:	80 91 55 02 	lds	r24, 0x0255
    1d22:	80 93 5c 02 	sts	0x025C, r24
    1d26:	80 91 56 02 	lds	r24, 0x0256
    1d2a:	80 93 5d 02 	sts	0x025D, r24
    1d2e:	15 c0       	rjmp	.+42     	; 0x1d5a <frontPanel_parseData+0xea>
    1d30:	95 30       	cpi	r25, 0x05	; 5
    1d32:	c9 f4       	brne	.+50     	; 0x1d66 <frontPanel_parseData+0xf6>
    1d34:	e0 91 2b 02 	lds	r30, 0x022B
    1d38:	ee 23       	and	r30, r30
    1d3a:	19 f4       	brne	.+6      	; 0x1d42 <frontPanel_parseData+0xd2>
    1d3c:	80 93 50 02 	sts	0x0250, r24
    1d40:	46 c0       	rjmp	.+140    	; 0x1dce <frontPanel_parseData+0x15e>
    1d42:	f0 e0       	ldi	r31, 0x00	; 0
    1d44:	e0 5b       	subi	r30, 0xB0	; 176
    1d46:	fd 4f       	sbci	r31, 0xFD	; 253
    1d48:	80 83       	st	Z, r24
    1d4a:	90 91 50 02 	lds	r25, 0x0250
    1d4e:	80 91 51 02 	lds	r24, 0x0251
    1d52:	90 93 57 02 	sts	0x0257, r25
    1d56:	80 93 58 02 	sts	0x0258, r24
    1d5a:	81 e0       	ldi	r24, 0x01	; 1
    1d5c:	80 93 29 02 	sts	0x0229, r24
    1d60:	10 92 2b 02 	sts	0x022B, r1
    1d64:	8c c1       	rjmp	.+792    	; 0x207e <frontPanel_parseData+0x40e>
    1d66:	93 30       	cpi	r25, 0x03	; 3
    1d68:	09 f0       	breq	.+2      	; 0x1d6c <frontPanel_parseData+0xfc>
    1d6a:	89 c1       	rjmp	.+786    	; 0x207e <frontPanel_parseData+0x40e>
    1d6c:	90 91 2b 02 	lds	r25, 0x022B
    1d70:	29 2f       	mov	r18, r25
    1d72:	30 e0       	ldi	r19, 0x00	; 0
    1d74:	92 30       	cpi	r25, 0x02	; 2
    1d76:	40 f4       	brcc	.+16     	; 0x1d88 <frontPanel_parseData+0x118>
    1d78:	20 5b       	subi	r18, 0xB0	; 176
    1d7a:	3d 4f       	sbci	r19, 0xFD	; 253
    1d7c:	f9 01       	movw	r30, r18
    1d7e:	80 83       	st	Z, r24
    1d80:	9f 5f       	subi	r25, 0xFF	; 255
    1d82:	90 93 2b 02 	sts	0x022B, r25
    1d86:	7b c1       	rjmp	.+758    	; 0x207e <frontPanel_parseData+0x40e>
    1d88:	20 5b       	subi	r18, 0xB0	; 176
    1d8a:	3d 4f       	sbci	r19, 0xFD	; 253
    1d8c:	f9 01       	movw	r30, r18
    1d8e:	80 83       	st	Z, r24
    1d90:	40 91 50 02 	lds	r20, 0x0250
    1d94:	80 91 51 02 	lds	r24, 0x0251
    1d98:	50 91 52 02 	lds	r21, 0x0252
    1d9c:	90 e0       	ldi	r25, 0x00	; 0
    1d9e:	96 95       	lsr	r25
    1da0:	98 2f       	mov	r25, r24
    1da2:	88 27       	eor	r24, r24
    1da4:	97 95       	ror	r25
    1da6:	87 95       	ror	r24
    1da8:	35 2f       	mov	r19, r21
    1daa:	32 95       	swap	r19
    1dac:	33 0f       	add	r19, r19
    1dae:	33 0f       	add	r19, r19
    1db0:	30 7c       	andi	r19, 0xC0	; 192
    1db2:	20 e0       	ldi	r18, 0x00	; 0
    1db4:	82 2b       	or	r24, r18
    1db6:	93 2b       	or	r25, r19
    1db8:	24 2f       	mov	r18, r20
    1dba:	30 e0       	ldi	r19, 0x00	; 0
    1dbc:	82 2b       	or	r24, r18
    1dbe:	93 2b       	or	r25, r19
    1dc0:	c8 cf       	rjmp	.-112    	; 0x1d52 <frontPanel_parseData+0xe2>
    1dc2:	90 91 2b 02 	lds	r25, 0x022B
    1dc6:	99 23       	and	r25, r25
    1dc8:	31 f4       	brne	.+12     	; 0x1dd6 <frontPanel_parseData+0x166>
    1dca:	80 93 4e 02 	sts	0x024E, r24
    1dce:	81 e0       	ldi	r24, 0x01	; 1
    1dd0:	80 93 2b 02 	sts	0x022B, r24
    1dd4:	54 c1       	rjmp	.+680    	; 0x207e <frontPanel_parseData+0x40e>
    1dd6:	80 93 4f 02 	sts	0x024F, r24
    1dda:	10 92 2b 02 	sts	0x022B, r1
    1dde:	80 91 4d 02 	lds	r24, 0x024D
    1de2:	80 3b       	cpi	r24, 0xB0	; 176
    1de4:	19 f4       	brne	.+6      	; 0x1dec <frontPanel_parseData+0x17c>
    1de6:	0e 94 ff 0d 	call	0x1bfe	; 0x1bfe <frontPanel_ccHandler>
    1dea:	49 c1       	rjmp	.+658    	; 0x207e <frontPanel_parseData+0x40e>
    1dec:	80 91 4d 02 	lds	r24, 0x024D
    1df0:	84 3b       	cpi	r24, 0xB4	; 180
    1df2:	f9 f4       	brne	.+62     	; 0x1e32 <frontPanel_parseData+0x1c2>
    1df4:	80 91 4f 02 	lds	r24, 0x024F
    1df8:	86 ff       	sbrs	r24, 6
    1dfa:	02 c0       	rjmp	.+4      	; 0x1e00 <frontPanel_parseData+0x190>
    1dfc:	10 92 2a 02 	sts	0x022A, r1
    1e00:	20 91 2a 02 	lds	r18, 0x022A
    1e04:	90 91 4e 02 	lds	r25, 0x024E
    1e08:	80 91 4f 02 	lds	r24, 0x024F
    1e0c:	e2 2f       	mov	r30, r18
    1e0e:	f0 e0       	ldi	r31, 0x00	; 0
    1e10:	ed 56       	subi	r30, 0x6D	; 109
    1e12:	f2 4f       	sbci	r31, 0xF2	; 242
    1e14:	87 95       	ror	r24
    1e16:	88 27       	eor	r24, r24
    1e18:	87 95       	ror	r24
    1e1a:	9f 77       	andi	r25, 0x7F	; 127
    1e1c:	89 2b       	or	r24, r25
    1e1e:	80 83       	st	Z, r24
    1e20:	82 2f       	mov	r24, r18
    1e22:	8f 5f       	subi	r24, 0xFF	; 255
    1e24:	87 70       	andi	r24, 0x07	; 7
    1e26:	80 93 2a 02 	sts	0x022A, r24
    1e2a:	88 23       	and	r24, r24
    1e2c:	09 f0       	breq	.+2      	; 0x1e30 <frontPanel_parseData+0x1c0>
    1e2e:	27 c1       	rjmp	.+590    	; 0x207e <frontPanel_parseData+0x40e>
    1e30:	0e c0       	rjmp	.+28     	; 0x1e4e <frontPanel_parseData+0x1de>
    1e32:	80 91 4d 02 	lds	r24, 0x024D
    1e36:	8a 3b       	cpi	r24, 0xBA	; 186
    1e38:	69 f4       	brne	.+26     	; 0x1e54 <frontPanel_parseData+0x1e4>
    1e3a:	80 91 4e 02 	lds	r24, 0x024E
    1e3e:	90 91 4f 02 	lds	r25, 0x024F
    1e42:	87 95       	ror	r24
    1e44:	88 27       	eor	r24, r24
    1e46:	87 95       	ror	r24
    1e48:	89 2b       	or	r24, r25
    1e4a:	80 93 67 09 	sts	0x0967, r24
    1e4e:	0e 94 99 32 	call	0x6532	; 0x6532 <menu_repaintAll>
    1e52:	15 c1       	rjmp	.+554    	; 0x207e <frontPanel_parseData+0x40e>
    1e54:	80 91 4d 02 	lds	r24, 0x024D
    1e58:	8b 3b       	cpi	r24, 0xBB	; 187
    1e5a:	59 f4       	brne	.+22     	; 0x1e72 <frontPanel_parseData+0x202>
    1e5c:	80 91 4e 02 	lds	r24, 0x024E
    1e60:	90 91 4f 02 	lds	r25, 0x024F
    1e64:	87 95       	ror	r24
    1e66:	88 27       	eor	r24, r24
    1e68:	87 95       	ror	r24
    1e6a:	89 2b       	or	r24, r25
    1e6c:	80 93 69 09 	sts	0x0969, r24
    1e70:	ee cf       	rjmp	.-36     	; 0x1e4e <frontPanel_parseData+0x1de>
    1e72:	80 91 4d 02 	lds	r24, 0x024D
    1e76:	8c 3b       	cpi	r24, 0xBC	; 188
    1e78:	59 f4       	brne	.+22     	; 0x1e90 <frontPanel_parseData+0x220>
    1e7a:	80 91 4e 02 	lds	r24, 0x024E
    1e7e:	90 91 4f 02 	lds	r25, 0x024F
    1e82:	87 95       	ror	r24
    1e84:	88 27       	eor	r24, r24
    1e86:	87 95       	ror	r24
    1e88:	89 2b       	or	r24, r25
    1e8a:	80 93 6b 09 	sts	0x096B, r24
    1e8e:	df cf       	rjmp	.-66     	; 0x1e4e <frontPanel_parseData+0x1de>
    1e90:	80 91 4d 02 	lds	r24, 0x024D
    1e94:	8d 3b       	cpi	r24, 0xBD	; 189
    1e96:	59 f4       	brne	.+22     	; 0x1eae <frontPanel_parseData+0x23e>
    1e98:	80 91 4e 02 	lds	r24, 0x024E
    1e9c:	90 91 4f 02 	lds	r25, 0x024F
    1ea0:	87 95       	ror	r24
    1ea2:	88 27       	eor	r24, r24
    1ea4:	87 95       	ror	r24
    1ea6:	89 2b       	or	r24, r25
    1ea8:	80 93 6d 09 	sts	0x096D, r24
    1eac:	d0 cf       	rjmp	.-96     	; 0x1e4e <frontPanel_parseData+0x1de>
    1eae:	80 91 4d 02 	lds	r24, 0x024D
    1eb2:	82 3b       	cpi	r24, 0xB2	; 178
    1eb4:	09 f0       	breq	.+2      	; 0x1eb8 <frontPanel_parseData+0x248>
    1eb6:	81 c0       	rjmp	.+258    	; 0x1fba <frontPanel_parseData+0x34a>
    1eb8:	80 91 4e 02 	lds	r24, 0x024E
    1ebc:	87 31       	cpi	r24, 0x17	; 23
    1ebe:	79 f1       	breq	.+94     	; 0x1f1e <frontPanel_parseData+0x2ae>
    1ec0:	88 31       	cpi	r24, 0x18	; 24
    1ec2:	70 f4       	brcc	.+28     	; 0x1ee0 <frontPanel_parseData+0x270>
    1ec4:	82 31       	cpi	r24, 0x12	; 18
    1ec6:	a9 f1       	breq	.+106    	; 0x1f32 <frontPanel_parseData+0x2c2>
    1ec8:	83 31       	cpi	r24, 0x13	; 19
    1eca:	20 f4       	brcc	.+8      	; 0x1ed4 <frontPanel_parseData+0x264>
    1ecc:	8b 30       	cpi	r24, 0x0B	; 11
    1ece:	09 f0       	breq	.+2      	; 0x1ed2 <frontPanel_parseData+0x262>
    1ed0:	d6 c0       	rjmp	.+428    	; 0x207e <frontPanel_parseData+0x40e>
    1ed2:	3e c0       	rjmp	.+124    	; 0x1f50 <frontPanel_parseData+0x2e0>
    1ed4:	83 31       	cpi	r24, 0x13	; 19
    1ed6:	b9 f1       	breq	.+110    	; 0x1f46 <frontPanel_parseData+0x2d6>
    1ed8:	84 31       	cpi	r24, 0x14	; 20
    1eda:	09 f0       	breq	.+2      	; 0x1ede <frontPanel_parseData+0x26e>
    1edc:	d0 c0       	rjmp	.+416    	; 0x207e <frontPanel_parseData+0x40e>
    1ede:	2e c0       	rjmp	.+92     	; 0x1f3c <frontPanel_parseData+0x2cc>
    1ee0:	8d 31       	cpi	r24, 0x1D	; 29
    1ee2:	61 f0       	breq	.+24     	; 0x1efc <frontPanel_parseData+0x28c>
    1ee4:	8e 31       	cpi	r24, 0x1E	; 30
    1ee6:	20 f4       	brcc	.+8      	; 0x1ef0 <frontPanel_parseData+0x280>
    1ee8:	88 31       	cpi	r24, 0x18	; 24
    1eea:	09 f0       	breq	.+2      	; 0x1eee <frontPanel_parseData+0x27e>
    1eec:	c8 c0       	rjmp	.+400    	; 0x207e <frontPanel_parseData+0x40e>
    1eee:	1c c0       	rjmp	.+56     	; 0x1f28 <frontPanel_parseData+0x2b8>
    1ef0:	8e 31       	cpi	r24, 0x1E	; 30
    1ef2:	49 f0       	breq	.+18     	; 0x1f06 <frontPanel_parseData+0x296>
    1ef4:	86 32       	cpi	r24, 0x26	; 38
    1ef6:	09 f0       	breq	.+2      	; 0x1efa <frontPanel_parseData+0x28a>
    1ef8:	c2 c0       	rjmp	.+388    	; 0x207e <frontPanel_parseData+0x40e>
    1efa:	0c c0       	rjmp	.+24     	; 0x1f14 <frontPanel_parseData+0x2a4>
    1efc:	80 91 4f 02 	lds	r24, 0x024F
    1f00:	80 93 71 09 	sts	0x0971, r24
    1f04:	04 c0       	rjmp	.+8      	; 0x1f0e <frontPanel_parseData+0x29e>
    1f06:	80 91 4f 02 	lds	r24, 0x024F
    1f0a:	80 93 73 09 	sts	0x0973, r24
    1f0e:	0e 94 28 2d 	call	0x5a50	; 0x5a50 <menu_repaint>
    1f12:	b5 c0       	rjmp	.+362    	; 0x207e <frontPanel_parseData+0x40e>
    1f14:	80 91 4f 02 	lds	r24, 0x024F
    1f18:	80 93 89 09 	sts	0x0989, r24
    1f1c:	f8 cf       	rjmp	.-16     	; 0x1f0e <frontPanel_parseData+0x29e>
    1f1e:	80 91 4f 02 	lds	r24, 0x024F
    1f22:	80 93 61 09 	sts	0x0961, r24
    1f26:	f3 cf       	rjmp	.-26     	; 0x1f0e <frontPanel_parseData+0x29e>
    1f28:	80 91 4f 02 	lds	r24, 0x024F
    1f2c:	80 93 63 09 	sts	0x0963, r24
    1f30:	ee cf       	rjmp	.-36     	; 0x1f0e <frontPanel_parseData+0x29e>
    1f32:	80 91 4f 02 	lds	r24, 0x024F
    1f36:	80 93 5b 09 	sts	0x095B, r24
    1f3a:	89 cf       	rjmp	.-238    	; 0x1e4e <frontPanel_parseData+0x1de>
    1f3c:	80 91 4f 02 	lds	r24, 0x024F
    1f40:	80 93 5d 09 	sts	0x095D, r24
    1f44:	84 cf       	rjmp	.-248    	; 0x1e4e <frontPanel_parseData+0x1de>
    1f46:	80 91 4f 02 	lds	r24, 0x024F
    1f4a:	80 93 5f 09 	sts	0x095F, r24
    1f4e:	7f cf       	rjmp	.-258    	; 0x1e4e <frontPanel_parseData+0x1de>
    1f50:	80 91 4f 02 	lds	r24, 0x024F
    1f54:	80 5f       	subi	r24, 0xF0	; 240
    1f56:	60 e0       	ldi	r22, 0x00	; 0
    1f58:	0e 94 6d 28 	call	0x50da	; 0x50da <led_setBlinkLed>
    1f5c:	80 91 85 09 	lds	r24, 0x0985
    1f60:	88 23       	and	r24, r24
    1f62:	31 f1       	breq	.+76     	; 0x1fb0 <frontPanel_parseData+0x340>
    1f64:	80 91 4f 02 	lds	r24, 0x024F
    1f68:	0e 94 b7 2a 	call	0x556e	; 0x556e <menu_setShownPattern>
    1f6c:	0e 94 dc 0c 	call	0x19b8	; 0x19b8 <buttonHandler_getMode>
    1f70:	81 30       	cpi	r24, 0x01	; 1
    1f72:	41 f4       	brne	.+16     	; 0x1f84 <frontPanel_parseData+0x314>
    1f74:	0e 94 cb 26 	call	0x4d96	; 0x4d96 <led_clearSelectLeds>
    1f78:	60 91 4f 02 	lds	r22, 0x024F
    1f7c:	60 5f       	subi	r22, 0xF0	; 240
    1f7e:	81 e0       	ldi	r24, 0x01	; 1
    1f80:	0e 94 38 27 	call	0x4e70	; 0x4e70 <led_setValue>
    1f84:	0e 94 93 27 	call	0x4f26	; 0x4f26 <led_clearSequencerLeds>
    1f88:	0e 94 ae 39 	call	0x735c	; 0x735c <menu_getActiveVoice>
    1f8c:	18 2f       	mov	r17, r24
    1f8e:	0e 94 bf 2a 	call	0x557e	; 0x557e <menu_getShownPattern>
    1f92:	41 2f       	mov	r20, r17
    1f94:	42 95       	swap	r20
    1f96:	40 7f       	andi	r20, 0xF0	; 240
    1f98:	87 70       	andi	r24, 0x07	; 7
    1f9a:	48 2b       	or	r20, r24
    1f9c:	81 eb       	ldi	r24, 0xB1	; 177
    1f9e:	63 e0       	ldi	r22, 0x03	; 3
    1fa0:	0e 94 90 0d 	call	0x1b20	; 0x1b20 <frontPanel_sendData>
    1fa4:	40 91 4f 02 	lds	r20, 0x024F
    1fa8:	82 eb       	ldi	r24, 0xB2	; 178
    1faa:	6c e1       	ldi	r22, 0x1C	; 28
    1fac:	0e 94 90 0d 	call	0x1b20	; 0x1b20 <frontPanel_sendData>
    1fb0:	80 91 4f 02 	lds	r24, 0x024F
    1fb4:	80 93 3d 02 	sts	0x023D, r24
    1fb8:	62 c0       	rjmp	.+196    	; 0x207e <frontPanel_parseData+0x40e>
    1fba:	80 91 4d 02 	lds	r24, 0x024D
    1fbe:	81 3b       	cpi	r24, 0xB1	; 177
    1fc0:	09 f0       	breq	.+2      	; 0x1fc4 <frontPanel_parseData+0x354>
    1fc2:	58 c0       	rjmp	.+176    	; 0x2074 <frontPanel_parseData+0x404>
    1fc4:	80 91 4e 02 	lds	r24, 0x024E
    1fc8:	82 30       	cpi	r24, 0x02	; 2
    1fca:	09 f4       	brne	.+2      	; 0x1fce <frontPanel_parseData+0x35e>
    1fcc:	44 c0       	rjmp	.+136    	; 0x2056 <frontPanel_parseData+0x3e6>
    1fce:	83 30       	cpi	r24, 0x03	; 3
    1fd0:	20 f4       	brcc	.+8      	; 0x1fda <frontPanel_parseData+0x36a>
    1fd2:	81 30       	cpi	r24, 0x01	; 1
    1fd4:	09 f0       	breq	.+2      	; 0x1fd8 <frontPanel_parseData+0x368>
    1fd6:	53 c0       	rjmp	.+166    	; 0x207e <frontPanel_parseData+0x40e>
    1fd8:	06 c0       	rjmp	.+12     	; 0x1fe6 <frontPanel_parseData+0x376>
    1fda:	84 30       	cpi	r24, 0x04	; 4
    1fdc:	d1 f0       	breq	.+52     	; 0x2012 <frontPanel_parseData+0x3a2>
    1fde:	85 30       	cpi	r24, 0x05	; 5
    1fe0:	09 f0       	breq	.+2      	; 0x1fe4 <frontPanel_parseData+0x374>
    1fe2:	4d c0       	rjmp	.+154    	; 0x207e <frontPanel_parseData+0x40e>
    1fe4:	1f c0       	rjmp	.+62     	; 0x2024 <frontPanel_parseData+0x3b4>
    1fe6:	0e 94 bf 2a 	call	0x557e	; 0x557e <menu_getShownPattern>
    1fea:	90 91 3d 02 	lds	r25, 0x023D
    1fee:	89 17       	cp	r24, r25
    1ff0:	69 f4       	brne	.+26     	; 0x200c <frontPanel_parseData+0x39c>
    1ff2:	80 91 3b 02 	lds	r24, 0x023B
    1ff6:	87 30       	cpi	r24, 0x07	; 7
    1ff8:	20 f0       	brcs	.+8      	; 0x2002 <frontPanel_parseData+0x392>
    1ffa:	8b 30       	cpi	r24, 0x0B	; 11
    1ffc:	11 f0       	breq	.+4      	; 0x2002 <frontPanel_parseData+0x392>
    1ffe:	8c 30       	cpi	r24, 0x0C	; 12
    2000:	f1 f5       	brne	.+124    	; 0x207e <frontPanel_parseData+0x40e>
    2002:	80 91 4f 02 	lds	r24, 0x024F
    2006:	0e 94 0d 29 	call	0x521a	; 0x521a <led_setActive_step>
    200a:	39 c0       	rjmp	.+114    	; 0x207e <frontPanel_parseData+0x40e>
    200c:	0e 94 08 29 	call	0x5210	; 0x5210 <led_clearActive_step>
    2010:	36 c0       	rjmp	.+108    	; 0x207e <frontPanel_parseData+0x40e>
    2012:	80 91 4f 02 	lds	r24, 0x024F
    2016:	88 23       	and	r24, r24
    2018:	11 f0       	breq	.+4      	; 0x201e <frontPanel_parseData+0x3ae>
    201a:	81 e0       	ldi	r24, 0x01	; 1
    201c:	01 c0       	rjmp	.+2      	; 0x2020 <frontPanel_parseData+0x3b0>
    201e:	80 e0       	ldi	r24, 0x00	; 0
    2020:	66 e0       	ldi	r22, 0x06	; 6
    2022:	25 c0       	rjmp	.+74     	; 0x206e <frontPanel_parseData+0x3fe>
    2024:	0e 94 b0 08 	call	0x1160	; 0x1160 <buttonHandler_getShift>
    2028:	88 23       	and	r24, r24
    202a:	21 f4       	brne	.+8      	; 0x2034 <frontPanel_parseData+0x3c4>
    202c:	0e 94 dc 0c 	call	0x19b8	; 0x19b8 <buttonHandler_getMode>
    2030:	82 30       	cpi	r24, 0x02	; 2
    2032:	29 f5       	brne	.+74     	; 0x207e <frontPanel_parseData+0x40e>
    2034:	60 91 4f 02 	lds	r22, 0x024F
    2038:	40 91 22 02 	lds	r20, 0x0222
    203c:	64 17       	cp	r22, r20
    203e:	f8 f0       	brcs	.+62     	; 0x207e <frontPanel_parseData+0x40e>
    2040:	84 2f       	mov	r24, r20
    2042:	90 e0       	ldi	r25, 0x00	; 0
    2044:	07 96       	adiw	r24, 0x07	; 7
    2046:	26 2f       	mov	r18, r22
    2048:	30 e0       	ldi	r19, 0x00	; 0
    204a:	82 17       	cp	r24, r18
    204c:	93 07       	cpc	r25, r19
    204e:	bc f0       	brlt	.+46     	; 0x207e <frontPanel_parseData+0x40e>
    2050:	60 5f       	subi	r22, 0xF0	; 240
    2052:	64 1b       	sub	r22, r20
    2054:	0b c0       	rjmp	.+22     	; 0x206c <frontPanel_parseData+0x3fc>
    2056:	60 91 4f 02 	lds	r22, 0x024F
    205a:	70 e0       	ldi	r23, 0x00	; 0
    205c:	6f 77       	andi	r22, 0x7F	; 127
    205e:	70 70       	andi	r23, 0x00	; 0
    2060:	e3 e0       	ldi	r30, 0x03	; 3
    2062:	75 95       	asr	r23
    2064:	67 95       	ror	r22
    2066:	ea 95       	dec	r30
    2068:	e1 f7       	brne	.-8      	; 0x2062 <frontPanel_parseData+0x3f2>
    206a:	68 5e       	subi	r22, 0xE8	; 232
    206c:	81 e0       	ldi	r24, 0x01	; 1
    206e:	0e 94 38 27 	call	0x4e70	; 0x4e70 <led_setValue>
    2072:	05 c0       	rjmp	.+10     	; 0x207e <frontPanel_parseData+0x40e>
    2074:	80 91 4e 02 	lds	r24, 0x024E
    2078:	88 5f       	subi	r24, 0xF8	; 248
    207a:	0e 94 9e 27 	call	0x4f3c	; 0x4f3c <led_pulseLed>
    207e:	df 91       	pop	r29
    2080:	cf 91       	pop	r28
    2082:	1f 91       	pop	r17
    2084:	ff 90       	pop	r15
    2086:	ef 90       	pop	r14
    2088:	08 95       	ret

0000208a <frontPanel_sendByte>:
    208a:	1f 93       	push	r17
    208c:	18 2f       	mov	r17, r24
    208e:	81 2f       	mov	r24, r17
    2090:	0e 94 97 26 	call	0x4d2e	; 0x4d2e <uart_putc>
    2094:	88 23       	and	r24, r24
    2096:	d9 f3       	breq	.-10     	; 0x208e <frontPanel_sendByte+0x4>
    2098:	1f 91       	pop	r17
    209a:	08 95       	ret

0000209c <lcd_enable>:
    209c:	43 9a       	sbi	0x08, 3	; 8
    209e:	85 e8       	ldi	r24, 0x85	; 133
    20a0:	8a 95       	dec	r24
    20a2:	f1 f7       	brne	.-4      	; 0x20a0 <lcd_enable+0x4>
    20a4:	00 00       	nop
    20a6:	43 98       	cbi	0x08, 3	; 8
    20a8:	08 95       	ret

000020aa <lcd_out>:
    20aa:	95 b1       	in	r25, 0x05	; 5
    20ac:	90 7f       	andi	r25, 0xF0	; 240
    20ae:	95 b9       	out	0x05, r25	; 5
    20b0:	95 b1       	in	r25, 0x05	; 5
    20b2:	82 95       	swap	r24
    20b4:	8f 70       	andi	r24, 0x0F	; 15
    20b6:	89 2b       	or	r24, r25
    20b8:	85 b9       	out	0x05, r24	; 5
    20ba:	0e 94 4e 10 	call	0x209c	; 0x209c <lcd_enable>
    20be:	08 95       	ret

000020c0 <lcd_data>:
    20c0:	1f 93       	push	r17
    20c2:	18 2f       	mov	r17, r24
    20c4:	44 9a       	sbi	0x08, 4	; 8
    20c6:	0e 94 55 10 	call	0x20aa	; 0x20aa <lcd_out>
    20ca:	81 2f       	mov	r24, r17
    20cc:	82 95       	swap	r24
    20ce:	80 7f       	andi	r24, 0xF0	; 240
    20d0:	0e 94 55 10 	call	0x20aa	; 0x20aa <lcd_out>
    20d4:	85 ee       	ldi	r24, 0xE5	; 229
    20d6:	90 e0       	ldi	r25, 0x00	; 0
    20d8:	01 97       	sbiw	r24, 0x01	; 1
    20da:	f1 f7       	brne	.-4      	; 0x20d8 <lcd_data+0x18>
    20dc:	00 c0       	rjmp	.+0      	; 0x20de <lcd_data+0x1e>
    20de:	00 00       	nop
    20e0:	1f 91       	pop	r17
    20e2:	08 95       	ret

000020e4 <lcd_command>:
    20e4:	1f 93       	push	r17
    20e6:	18 2f       	mov	r17, r24
    20e8:	44 98       	cbi	0x08, 4	; 8
    20ea:	0e 94 55 10 	call	0x20aa	; 0x20aa <lcd_out>
    20ee:	81 2f       	mov	r24, r17
    20f0:	82 95       	swap	r24
    20f2:	80 7f       	andi	r24, 0xF0	; 240
    20f4:	0e 94 55 10 	call	0x20aa	; 0x20aa <lcd_out>
    20f8:	81 ed       	ldi	r24, 0xD1	; 209
    20fa:	90 e0       	ldi	r25, 0x00	; 0
    20fc:	01 97       	sbiw	r24, 0x01	; 1
    20fe:	f1 f7       	brne	.-4      	; 0x20fc <lcd_command+0x18>
    2100:	00 c0       	rjmp	.+0      	; 0x2102 <lcd_command+0x1e>
    2102:	00 00       	nop
    2104:	1f 91       	pop	r17
    2106:	08 95       	ret

00002108 <lcd_clear>:
    2108:	81 e0       	ldi	r24, 0x01	; 1
    210a:	0e 94 72 10 	call	0x20e4	; 0x20e4 <lcd_command>
    210e:	8f e0       	ldi	r24, 0x0F	; 15
    2110:	97 e2       	ldi	r25, 0x27	; 39
    2112:	01 97       	sbiw	r24, 0x01	; 1
    2114:	f1 f7       	brne	.-4      	; 0x2112 <lcd_clear+0xa>
    2116:	00 c0       	rjmp	.+0      	; 0x2118 <lcd_clear+0x10>
    2118:	00 00       	nop
    211a:	08 95       	ret

0000211c <lcd_init>:
    211c:	84 b1       	in	r24, 0x04	; 4
    211e:	8f 60       	ori	r24, 0x0F	; 15
    2120:	84 b9       	out	0x04, r24	; 4
    2122:	87 b1       	in	r24, 0x07	; 7
    2124:	88 61       	ori	r24, 0x18	; 24
    2126:	87 b9       	out	0x07, r24	; 7
    2128:	85 b1       	in	r24, 0x05	; 5
    212a:	80 7f       	andi	r24, 0xF0	; 240
    212c:	85 b9       	out	0x05, r24	; 5
    212e:	88 b1       	in	r24, 0x08	; 8
    2130:	87 7e       	andi	r24, 0xE7	; 231
    2132:	88 b9       	out	0x08, r24	; 8
    2134:	8f e5       	ldi	r24, 0x5F	; 95
    2136:	9a ee       	ldi	r25, 0xEA	; 234
    2138:	a0 e0       	ldi	r26, 0x00	; 0
    213a:	81 50       	subi	r24, 0x01	; 1
    213c:	90 40       	sbci	r25, 0x00	; 0
    213e:	a0 40       	sbci	r26, 0x00	; 0
    2140:	e1 f7       	brne	.-8      	; 0x213a <lcd_init+0x1e>
    2142:	00 c0       	rjmp	.+0      	; 0x2144 <lcd_init+0x28>
    2144:	00 00       	nop
    2146:	80 e3       	ldi	r24, 0x30	; 48
    2148:	0e 94 55 10 	call	0x20aa	; 0x20aa <lcd_out>
    214c:	a7 ea       	ldi	r26, 0xA7	; 167
    214e:	b1 e6       	ldi	r27, 0x61	; 97
    2150:	11 97       	sbiw	r26, 0x01	; 1
    2152:	f1 f7       	brne	.-4      	; 0x2150 <lcd_init+0x34>
    2154:	00 c0       	rjmp	.+0      	; 0x2156 <lcd_init+0x3a>
    2156:	00 00       	nop
    2158:	0e 94 4e 10 	call	0x209c	; 0x209c <lcd_enable>
    215c:	87 e8       	ldi	r24, 0x87	; 135
    215e:	93 e1       	ldi	r25, 0x13	; 19
    2160:	01 97       	sbiw	r24, 0x01	; 1
    2162:	f1 f7       	brne	.-4      	; 0x2160 <lcd_init+0x44>
    2164:	00 c0       	rjmp	.+0      	; 0x2166 <lcd_init+0x4a>
    2166:	00 00       	nop
    2168:	0e 94 4e 10 	call	0x209c	; 0x209c <lcd_enable>
    216c:	a7 e8       	ldi	r26, 0x87	; 135
    216e:	b3 e1       	ldi	r27, 0x13	; 19
    2170:	11 97       	sbiw	r26, 0x01	; 1
    2172:	f1 f7       	brne	.-4      	; 0x2170 <lcd_init+0x54>
    2174:	00 c0       	rjmp	.+0      	; 0x2176 <lcd_init+0x5a>
    2176:	00 00       	nop
    2178:	80 e2       	ldi	r24, 0x20	; 32
    217a:	0e 94 55 10 	call	0x20aa	; 0x20aa <lcd_out>
    217e:	87 ea       	ldi	r24, 0xA7	; 167
    2180:	91 e6       	ldi	r25, 0x61	; 97
    2182:	01 97       	sbiw	r24, 0x01	; 1
    2184:	f1 f7       	brne	.-4      	; 0x2182 <lcd_init+0x66>
    2186:	00 c0       	rjmp	.+0      	; 0x2188 <lcd_init+0x6c>
    2188:	00 00       	nop
    218a:	8a e2       	ldi	r24, 0x2A	; 42
    218c:	0e 94 72 10 	call	0x20e4	; 0x20e4 <lcd_command>
    2190:	8c e0       	ldi	r24, 0x0C	; 12
    2192:	0e 94 72 10 	call	0x20e4	; 0x20e4 <lcd_command>
    2196:	86 e0       	ldi	r24, 0x06	; 6
    2198:	0e 94 72 10 	call	0x20e4	; 0x20e4 <lcd_command>
    219c:	0e 94 84 10 	call	0x2108	; 0x2108 <lcd_clear>
    21a0:	08 95       	ret

000021a2 <lcd_home>:
    21a2:	82 e0       	ldi	r24, 0x02	; 2
    21a4:	0e 94 72 10 	call	0x20e4	; 0x20e4 <lcd_command>
    21a8:	8f e0       	ldi	r24, 0x0F	; 15
    21aa:	97 e2       	ldi	r25, 0x27	; 39
    21ac:	01 97       	sbiw	r24, 0x01	; 1
    21ae:	f1 f7       	brne	.-4      	; 0x21ac <lcd_home+0xa>
    21b0:	00 c0       	rjmp	.+0      	; 0x21b2 <lcd_home+0x10>
    21b2:	00 00       	nop
    21b4:	08 95       	ret

000021b6 <lcd_setcursor>:
    21b6:	62 30       	cpi	r22, 0x02	; 2
    21b8:	61 f0       	breq	.+24     	; 0x21d2 <lcd_setcursor+0x1c>
    21ba:	63 30       	cpi	r22, 0x03	; 3
    21bc:	18 f4       	brcc	.+6      	; 0x21c4 <lcd_setcursor+0xe>
    21be:	61 30       	cpi	r22, 0x01	; 1
    21c0:	79 f4       	brne	.+30     	; 0x21e0 <lcd_setcursor+0x2a>
    21c2:	05 c0       	rjmp	.+10     	; 0x21ce <lcd_setcursor+0x18>
    21c4:	63 30       	cpi	r22, 0x03	; 3
    21c6:	39 f0       	breq	.+14     	; 0x21d6 <lcd_setcursor+0x20>
    21c8:	64 30       	cpi	r22, 0x04	; 4
    21ca:	51 f4       	brne	.+20     	; 0x21e0 <lcd_setcursor+0x2a>
    21cc:	06 c0       	rjmp	.+12     	; 0x21da <lcd_setcursor+0x24>
    21ce:	80 58       	subi	r24, 0x80	; 128
    21d0:	05 c0       	rjmp	.+10     	; 0x21dc <lcd_setcursor+0x26>
    21d2:	80 54       	subi	r24, 0x40	; 64
    21d4:	03 c0       	rjmp	.+6      	; 0x21dc <lcd_setcursor+0x26>
    21d6:	80 57       	subi	r24, 0x70	; 112
    21d8:	01 c0       	rjmp	.+2      	; 0x21dc <lcd_setcursor+0x26>
    21da:	80 53       	subi	r24, 0x30	; 48
    21dc:	0e 94 72 10 	call	0x20e4	; 0x20e4 <lcd_command>
    21e0:	08 95       	ret

000021e2 <lcd_string>:
    21e2:	ef 92       	push	r14
    21e4:	ff 92       	push	r15
    21e6:	cf 93       	push	r28
    21e8:	df 93       	push	r29
    21ea:	e8 2e       	mov	r14, r24
    21ec:	e7 01       	movw	r28, r14
    21ee:	7e 01       	movw	r14, r28
    21f0:	f9 2e       	mov	r15, r25
    21f2:	e7 01       	movw	r28, r14
    21f4:	02 c0       	rjmp	.+4      	; 0x21fa <lcd_string+0x18>
    21f6:	0e 94 60 10 	call	0x20c0	; 0x20c0 <lcd_data>
    21fa:	89 91       	ld	r24, Y+
    21fc:	88 23       	and	r24, r24
    21fe:	d9 f7       	brne	.-10     	; 0x21f6 <lcd_string+0x14>
    2200:	df 91       	pop	r29
    2202:	cf 91       	pop	r28
    2204:	ff 90       	pop	r15
    2206:	ef 90       	pop	r14
    2208:	08 95       	ret

0000220a <lcd_string_F>:
    220a:	cf 93       	push	r28
    220c:	df 93       	push	r29
    220e:	ec 01       	movw	r28, r24
    2210:	05 c0       	rjmp	.+10     	; 0x221c <lcd_string_F+0x12>
    2212:	21 96       	adiw	r28, 0x01	; 1
    2214:	fc 01       	movw	r30, r24
    2216:	84 91       	lpm	r24, Z+
    2218:	0e 94 60 10 	call	0x20c0	; 0x20c0 <lcd_data>
    221c:	ce 01       	movw	r24, r28
    221e:	fe 01       	movw	r30, r28
    2220:	24 91       	lpm	r18, Z+
    2222:	22 23       	and	r18, r18
    2224:	b1 f7       	brne	.-20     	; 0x2212 <lcd_string_F+0x8>
    2226:	df 91       	pop	r29
    2228:	cf 91       	pop	r28
    222a:	08 95       	ret

0000222c <disk_initialize>:
    222c:	1f 93       	push	r17
    222e:	df 93       	push	r29
    2230:	cf 93       	push	r28
    2232:	0f 92       	push	r0
    2234:	cd b7       	in	r28, 0x3d	; 61
    2236:	de b7       	in	r29, 0x3e	; 62
    2238:	88 23       	and	r24, r24
    223a:	09 f0       	breq	.+2      	; 0x223e <disk_initialize+0x12>
    223c:	3f c0       	rjmp	.+126    	; 0x22bc <disk_initialize+0x90>
    223e:	80 91 03 01 	lds	r24, 0x0103
    2242:	81 60       	ori	r24, 0x01	; 1
    2244:	80 93 03 01 	sts	0x0103, r24
    2248:	0e 94 99 24 	call	0x4932	; 0x4932 <spi_init>
    224c:	0e 94 d1 10 	call	0x21a2	; 0x21a2 <lcd_home>
    2250:	85 ec       	ldi	r24, 0xC5	; 197
    2252:	90 e0       	ldi	r25, 0x00	; 0
    2254:	0e 94 05 11 	call	0x220a	; 0x220a <lcd_string_F>
    2258:	1a e0       	ldi	r17, 0x0A	; 10
    225a:	0e 94 73 23 	call	0x46e6	; 0x46e6 <SD_init>
    225e:	88 23       	and	r24, r24
    2260:	a9 f0       	breq	.+42     	; 0x228c <disk_initialize+0x60>
    2262:	11 50       	subi	r17, 0x01	; 1
    2264:	d1 f7       	brne	.-12     	; 0x225a <disk_initialize+0x2e>
    2266:	89 83       	std	Y+1, r24	; 0x01
    2268:	0e 94 d1 10 	call	0x21a2	; 0x21a2 <lcd_home>
    226c:	89 81       	ldd	r24, Y+1	; 0x01
    226e:	81 30       	cpi	r24, 0x01	; 1
    2270:	19 f4       	brne	.+6      	; 0x2278 <disk_initialize+0x4c>
    2272:	8e ea       	ldi	r24, 0xAE	; 174
    2274:	90 e0       	ldi	r25, 0x00	; 0
    2276:	07 c0       	rjmp	.+14     	; 0x2286 <disk_initialize+0x5a>
    2278:	82 30       	cpi	r24, 0x02	; 2
    227a:	19 f4       	brne	.+6      	; 0x2282 <disk_initialize+0x56>
    227c:	81 e9       	ldi	r24, 0x91	; 145
    227e:	90 e0       	ldi	r25, 0x00	; 0
    2280:	02 c0       	rjmp	.+4      	; 0x2286 <disk_initialize+0x5a>
    2282:	8b e7       	ldi	r24, 0x7B	; 123
    2284:	90 e0       	ldi	r25, 0x00	; 0
    2286:	0e 94 05 11 	call	0x220a	; 0x220a <lcd_string_F>
    228a:	15 c0       	rjmp	.+42     	; 0x22b6 <disk_initialize+0x8a>
    228c:	0e 94 d1 10 	call	0x21a2	; 0x21a2 <lcd_home>
    2290:	80 e7       	ldi	r24, 0x70	; 112
    2292:	90 e0       	ldi	r25, 0x00	; 0
    2294:	0e 94 05 11 	call	0x220a	; 0x220a <lcd_string_F>
    2298:	81 e5       	ldi	r24, 0x51	; 81
    229a:	8c bd       	out	0x2c, r24	; 44
    229c:	81 e0       	ldi	r24, 0x01	; 1
    229e:	8d bd       	out	0x2d, r24	; 45
    22a0:	87 e8       	ldi	r24, 0x87	; 135
    22a2:	93 e1       	ldi	r25, 0x13	; 19
    22a4:	01 97       	sbiw	r24, 0x01	; 1
    22a6:	f1 f7       	brne	.-4      	; 0x22a4 <disk_initialize+0x78>
    22a8:	00 c0       	rjmp	.+0      	; 0x22aa <disk_initialize+0x7e>
    22aa:	00 00       	nop
    22ac:	80 91 03 01 	lds	r24, 0x0103
    22b0:	8e 7f       	andi	r24, 0xFE	; 254
    22b2:	80 93 03 01 	sts	0x0103, r24
    22b6:	80 91 03 01 	lds	r24, 0x0103
    22ba:	01 c0       	rjmp	.+2      	; 0x22be <disk_initialize+0x92>
    22bc:	81 e0       	ldi	r24, 0x01	; 1
    22be:	0f 90       	pop	r0
    22c0:	cf 91       	pop	r28
    22c2:	df 91       	pop	r29
    22c4:	1f 91       	pop	r17
    22c6:	08 95       	ret

000022c8 <disk_status>:
    22c8:	88 23       	and	r24, r24
    22ca:	19 f4       	brne	.+6      	; 0x22d2 <disk_status+0xa>
    22cc:	80 91 03 01 	lds	r24, 0x0103
    22d0:	08 95       	ret
    22d2:	81 e0       	ldi	r24, 0x01	; 1
    22d4:	08 95       	ret

000022d6 <disk_read>:
    22d6:	af 92       	push	r10
    22d8:	bf 92       	push	r11
    22da:	cf 92       	push	r12
    22dc:	df 92       	push	r13
    22de:	ef 92       	push	r14
    22e0:	ff 92       	push	r15
    22e2:	0f 93       	push	r16
    22e4:	1f 93       	push	r17
    22e6:	cf 93       	push	r28
    22e8:	df 93       	push	r29
    22ea:	5b 01       	movw	r10, r22
    22ec:	69 01       	movw	r12, r18
    22ee:	7a 01       	movw	r14, r20
    22f0:	88 23       	and	r24, r24
    22f2:	a9 f4       	brne	.+42     	; 0x231e <disk_read+0x48>
    22f4:	00 23       	and	r16, r16
    22f6:	99 f0       	breq	.+38     	; 0x231e <disk_read+0x48>
    22f8:	80 91 03 01 	lds	r24, 0x0103
    22fc:	80 fd       	sbrc	r24, 0
    22fe:	11 c0       	rjmp	.+34     	; 0x2322 <disk_read+0x4c>
    2300:	c0 e0       	ldi	r28, 0x00	; 0
    2302:	d0 e0       	ldi	r29, 0x00	; 0
    2304:	10 e0       	ldi	r17, 0x00	; 0
    2306:	06 c0       	rjmp	.+12     	; 0x2314 <disk_read+0x3e>
    2308:	c7 01       	movw	r24, r14
    230a:	b6 01       	movw	r22, r12
    230c:	a5 01       	movw	r20, r10
    230e:	0e 94 f7 23 	call	0x47ee	; 0x47ee <SD_readSingleBlockCustomBuffer>
    2312:	21 96       	adiw	r28, 0x01	; 1
    2314:	c0 17       	cp	r28, r16
    2316:	d1 07       	cpc	r29, r17
    2318:	bc f3       	brlt	.-18     	; 0x2308 <disk_read+0x32>
    231a:	80 e0       	ldi	r24, 0x00	; 0
    231c:	03 c0       	rjmp	.+6      	; 0x2324 <disk_read+0x4e>
    231e:	84 e0       	ldi	r24, 0x04	; 4
    2320:	01 c0       	rjmp	.+2      	; 0x2324 <disk_read+0x4e>
    2322:	83 e0       	ldi	r24, 0x03	; 3
    2324:	df 91       	pop	r29
    2326:	cf 91       	pop	r28
    2328:	1f 91       	pop	r17
    232a:	0f 91       	pop	r16
    232c:	ff 90       	pop	r15
    232e:	ef 90       	pop	r14
    2330:	df 90       	pop	r13
    2332:	cf 90       	pop	r12
    2334:	bf 90       	pop	r11
    2336:	af 90       	pop	r10
    2338:	08 95       	ret

0000233a <disk_write>:
    233a:	af 92       	push	r10
    233c:	bf 92       	push	r11
    233e:	cf 92       	push	r12
    2340:	df 92       	push	r13
    2342:	ef 92       	push	r14
    2344:	ff 92       	push	r15
    2346:	0f 93       	push	r16
    2348:	1f 93       	push	r17
    234a:	cf 93       	push	r28
    234c:	df 93       	push	r29
    234e:	5b 01       	movw	r10, r22
    2350:	69 01       	movw	r12, r18
    2352:	7a 01       	movw	r14, r20
    2354:	88 23       	and	r24, r24
    2356:	a9 f4       	brne	.+42     	; 0x2382 <disk_write+0x48>
    2358:	00 23       	and	r16, r16
    235a:	99 f0       	breq	.+38     	; 0x2382 <disk_write+0x48>
    235c:	80 91 03 01 	lds	r24, 0x0103
    2360:	80 fd       	sbrc	r24, 0
    2362:	11 c0       	rjmp	.+34     	; 0x2386 <disk_write+0x4c>
    2364:	c0 e0       	ldi	r28, 0x00	; 0
    2366:	d0 e0       	ldi	r29, 0x00	; 0
    2368:	10 e0       	ldi	r17, 0x00	; 0
    236a:	06 c0       	rjmp	.+12     	; 0x2378 <disk_write+0x3e>
    236c:	c7 01       	movw	r24, r14
    236e:	b6 01       	movw	r22, r12
    2370:	a5 01       	movw	r20, r10
    2372:	0e 94 3a 24 	call	0x4874	; 0x4874 <SD_writeSingleBlockCustomBuffer>
    2376:	21 96       	adiw	r28, 0x01	; 1
    2378:	c0 17       	cp	r28, r16
    237a:	d1 07       	cpc	r29, r17
    237c:	bc f3       	brlt	.-18     	; 0x236c <disk_write+0x32>
    237e:	80 e0       	ldi	r24, 0x00	; 0
    2380:	03 c0       	rjmp	.+6      	; 0x2388 <disk_write+0x4e>
    2382:	84 e0       	ldi	r24, 0x04	; 4
    2384:	01 c0       	rjmp	.+2      	; 0x2388 <disk_write+0x4e>
    2386:	83 e0       	ldi	r24, 0x03	; 3
    2388:	df 91       	pop	r29
    238a:	cf 91       	pop	r28
    238c:	1f 91       	pop	r17
    238e:	0f 91       	pop	r16
    2390:	ff 90       	pop	r15
    2392:	ef 90       	pop	r14
    2394:	df 90       	pop	r13
    2396:	cf 90       	pop	r12
    2398:	bf 90       	pop	r11
    239a:	af 90       	pop	r10
    239c:	08 95       	ret

0000239e <disk_ioctl>:
    239e:	88 23       	and	r24, r24
    23a0:	99 f4       	brne	.+38     	; 0x23c8 <disk_ioctl+0x2a>
    23a2:	80 91 03 01 	lds	r24, 0x0103
    23a6:	80 fd       	sbrc	r24, 0
    23a8:	11 c0       	rjmp	.+34     	; 0x23cc <disk_ioctl+0x2e>
    23aa:	62 30       	cpi	r22, 0x02	; 2
    23ac:	58 f0       	brcs	.+22     	; 0x23c4 <disk_ioctl+0x26>
    23ae:	63 30       	cpi	r22, 0x03	; 3
    23b0:	79 f4       	brne	.+30     	; 0x23d0 <disk_ioctl+0x32>
    23b2:	81 e0       	ldi	r24, 0x01	; 1
    23b4:	90 e0       	ldi	r25, 0x00	; 0
    23b6:	a0 e0       	ldi	r26, 0x00	; 0
    23b8:	b0 e0       	ldi	r27, 0x00	; 0
    23ba:	fa 01       	movw	r30, r20
    23bc:	80 83       	st	Z, r24
    23be:	91 83       	std	Z+1, r25	; 0x01
    23c0:	a2 83       	std	Z+2, r26	; 0x02
    23c2:	b3 83       	std	Z+3, r27	; 0x03
    23c4:	80 e0       	ldi	r24, 0x00	; 0
    23c6:	08 95       	ret
    23c8:	84 e0       	ldi	r24, 0x04	; 4
    23ca:	08 95       	ret
    23cc:	83 e0       	ldi	r24, 0x03	; 3
    23ce:	08 95       	ret
    23d0:	84 e0       	ldi	r24, 0x04	; 4
    23d2:	08 95       	ret

000023d4 <get_fattime>:
    23d4:	60 e0       	ldi	r22, 0x00	; 0
    23d6:	70 e0       	ldi	r23, 0x00	; 0
    23d8:	cb 01       	movw	r24, r22
    23da:	08 95       	ret

000023dc <mem_cpy>:
    23dc:	28 2f       	mov	r18, r24
    23de:	39 2f       	mov	r19, r25
    23e0:	d9 01       	movw	r26, r18
    23e2:	86 2f       	mov	r24, r22
    23e4:	97 2f       	mov	r25, r23
    23e6:	fc 01       	movw	r30, r24
    23e8:	04 c0       	rjmp	.+8      	; 0x23f2 <mem_cpy+0x16>
    23ea:	81 91       	ld	r24, Z+
    23ec:	8d 93       	st	X+, r24
    23ee:	41 50       	subi	r20, 0x01	; 1
    23f0:	50 40       	sbci	r21, 0x00	; 0
    23f2:	41 15       	cp	r20, r1
    23f4:	51 05       	cpc	r21, r1
    23f6:	c9 f7       	brne	.-14     	; 0x23ea <mem_cpy+0xe>
    23f8:	08 95       	ret

000023fa <validate>:
    23fa:	fc 01       	movw	r30, r24
    23fc:	00 97       	sbiw	r24, 0x00	; 0
    23fe:	79 f0       	breq	.+30     	; 0x241e <validate+0x24>
    2400:	80 81       	ld	r24, Z
    2402:	88 23       	and	r24, r24
    2404:	61 f0       	breq	.+24     	; 0x241e <validate+0x24>
    2406:	86 81       	ldd	r24, Z+6	; 0x06
    2408:	97 81       	ldd	r25, Z+7	; 0x07
    240a:	86 17       	cp	r24, r22
    240c:	97 07       	cpc	r25, r23
    240e:	39 f4       	brne	.+14     	; 0x241e <validate+0x24>
    2410:	81 81       	ldd	r24, Z+1	; 0x01
    2412:	0e 94 64 11 	call	0x22c8	; 0x22c8 <disk_status>
    2416:	80 ff       	sbrs	r24, 0
    2418:	04 c0       	rjmp	.+8      	; 0x2422 <validate+0x28>
    241a:	83 e0       	ldi	r24, 0x03	; 3
    241c:	08 95       	ret
    241e:	89 e0       	ldi	r24, 0x09	; 9
    2420:	08 95       	ret
    2422:	80 e0       	ldi	r24, 0x00	; 0
    2424:	08 95       	ret

00002426 <move_window>:
    2426:	6f 92       	push	r6
    2428:	7f 92       	push	r7
    242a:	8f 92       	push	r8
    242c:	9f 92       	push	r9
    242e:	af 92       	push	r10
    2430:	bf 92       	push	r11
    2432:	cf 92       	push	r12
    2434:	df 92       	push	r13
    2436:	ef 92       	push	r14
    2438:	ff 92       	push	r15
    243a:	0f 93       	push	r16
    243c:	1f 93       	push	r17
    243e:	cf 93       	push	r28
    2440:	df 93       	push	r29
    2442:	ec 01       	movw	r28, r24
    2444:	4a 01       	movw	r8, r20
    2446:	5b 01       	movw	r10, r22
    2448:	ca a4       	ldd	r12, Y+42	; 0x2a
    244a:	db a4       	ldd	r13, Y+43	; 0x2b
    244c:	ec a4       	ldd	r14, Y+44	; 0x2c
    244e:	fd a4       	ldd	r15, Y+45	; 0x2d
    2450:	c4 16       	cp	r12, r20
    2452:	d5 06       	cpc	r13, r21
    2454:	e6 06       	cpc	r14, r22
    2456:	f7 06       	cpc	r15, r23
    2458:	09 f4       	brne	.+2      	; 0x245c <move_window+0x36>
    245a:	4c c0       	rjmp	.+152    	; 0x24f4 <move_window+0xce>
    245c:	8c 81       	ldd	r24, Y+4	; 0x04
    245e:	88 23       	and	r24, r24
    2460:	a1 f1       	breq	.+104    	; 0x24ca <move_window+0xa4>
    2462:	8e e2       	ldi	r24, 0x2E	; 46
    2464:	68 2e       	mov	r6, r24
    2466:	71 2c       	mov	r7, r1
    2468:	6c 0e       	add	r6, r28
    246a:	7d 1e       	adc	r7, r29
    246c:	89 81       	ldd	r24, Y+1	; 0x01
    246e:	b3 01       	movw	r22, r6
    2470:	a7 01       	movw	r20, r14
    2472:	96 01       	movw	r18, r12
    2474:	01 e0       	ldi	r16, 0x01	; 1
    2476:	0e 94 9d 11 	call	0x233a	; 0x233a <disk_write>
    247a:	88 23       	and	r24, r24
    247c:	e9 f5       	brne	.+122    	; 0x24f8 <move_window+0xd2>
    247e:	1c 82       	std	Y+4, r1	; 0x04
    2480:	8a 8d       	ldd	r24, Y+26	; 0x1a
    2482:	9b 8d       	ldd	r25, Y+27	; 0x1b
    2484:	ac 8d       	ldd	r26, Y+28	; 0x1c
    2486:	bd 8d       	ldd	r27, Y+29	; 0x1d
    2488:	2e 8d       	ldd	r18, Y+30	; 0x1e
    248a:	3f 8d       	ldd	r19, Y+31	; 0x1f
    248c:	48 a1       	ldd	r20, Y+32	; 0x20
    248e:	59 a1       	ldd	r21, Y+33	; 0x21
    2490:	82 0f       	add	r24, r18
    2492:	93 1f       	adc	r25, r19
    2494:	a4 1f       	adc	r26, r20
    2496:	b5 1f       	adc	r27, r21
    2498:	c8 16       	cp	r12, r24
    249a:	d9 06       	cpc	r13, r25
    249c:	ea 06       	cpc	r14, r26
    249e:	fb 06       	cpc	r15, r27
    24a0:	a0 f4       	brcc	.+40     	; 0x24ca <move_window+0xa4>
    24a2:	1b 81       	ldd	r17, Y+3	; 0x03
    24a4:	10 c0       	rjmp	.+32     	; 0x24c6 <move_window+0xa0>
    24a6:	8a 8d       	ldd	r24, Y+26	; 0x1a
    24a8:	9b 8d       	ldd	r25, Y+27	; 0x1b
    24aa:	ac 8d       	ldd	r26, Y+28	; 0x1c
    24ac:	bd 8d       	ldd	r27, Y+29	; 0x1d
    24ae:	c8 0e       	add	r12, r24
    24b0:	d9 1e       	adc	r13, r25
    24b2:	ea 1e       	adc	r14, r26
    24b4:	fb 1e       	adc	r15, r27
    24b6:	89 81       	ldd	r24, Y+1	; 0x01
    24b8:	b3 01       	movw	r22, r6
    24ba:	a7 01       	movw	r20, r14
    24bc:	96 01       	movw	r18, r12
    24be:	01 e0       	ldi	r16, 0x01	; 1
    24c0:	0e 94 9d 11 	call	0x233a	; 0x233a <disk_write>
    24c4:	11 50       	subi	r17, 0x01	; 1
    24c6:	12 30       	cpi	r17, 0x02	; 2
    24c8:	70 f7       	brcc	.-36     	; 0x24a6 <move_window+0x80>
    24ca:	81 14       	cp	r8, r1
    24cc:	91 04       	cpc	r9, r1
    24ce:	a1 04       	cpc	r10, r1
    24d0:	b1 04       	cpc	r11, r1
    24d2:	81 f0       	breq	.+32     	; 0x24f4 <move_window+0xce>
    24d4:	be 01       	movw	r22, r28
    24d6:	62 5d       	subi	r22, 0xD2	; 210
    24d8:	7f 4f       	sbci	r23, 0xFF	; 255
    24da:	89 81       	ldd	r24, Y+1	; 0x01
    24dc:	a5 01       	movw	r20, r10
    24de:	94 01       	movw	r18, r8
    24e0:	01 e0       	ldi	r16, 0x01	; 1
    24e2:	0e 94 6b 11 	call	0x22d6	; 0x22d6 <disk_read>
    24e6:	88 23       	and	r24, r24
    24e8:	39 f4       	brne	.+14     	; 0x24f8 <move_window+0xd2>
    24ea:	8a a6       	std	Y+42, r8	; 0x2a
    24ec:	9b a6       	std	Y+43, r9	; 0x2b
    24ee:	ac a6       	std	Y+44, r10	; 0x2c
    24f0:	bd a6       	std	Y+45, r11	; 0x2d
    24f2:	03 c0       	rjmp	.+6      	; 0x24fa <move_window+0xd4>
    24f4:	80 e0       	ldi	r24, 0x00	; 0
    24f6:	01 c0       	rjmp	.+2      	; 0x24fa <move_window+0xd4>
    24f8:	81 e0       	ldi	r24, 0x01	; 1
    24fa:	df 91       	pop	r29
    24fc:	cf 91       	pop	r28
    24fe:	1f 91       	pop	r17
    2500:	0f 91       	pop	r16
    2502:	ff 90       	pop	r15
    2504:	ef 90       	pop	r14
    2506:	df 90       	pop	r13
    2508:	cf 90       	pop	r12
    250a:	bf 90       	pop	r11
    250c:	af 90       	pop	r10
    250e:	9f 90       	pop	r9
    2510:	8f 90       	pop	r8
    2512:	7f 90       	pop	r7
    2514:	6f 90       	pop	r6
    2516:	08 95       	ret

00002518 <check_fs>:
    2518:	0f 93       	push	r16
    251a:	cf 93       	push	r28
    251c:	df 93       	push	r29
    251e:	ec 01       	movw	r28, r24
    2520:	9a 01       	movw	r18, r20
    2522:	ab 01       	movw	r20, r22
    2524:	bc 01       	movw	r22, r24
    2526:	62 5d       	subi	r22, 0xD2	; 210
    2528:	7f 4f       	sbci	r23, 0xFF	; 255
    252a:	89 81       	ldd	r24, Y+1	; 0x01
    252c:	01 e0       	ldi	r16, 0x01	; 1
    252e:	0e 94 6b 11 	call	0x22d6	; 0x22d6 <disk_read>
    2532:	88 23       	and	r24, r24
    2534:	09 f0       	breq	.+2      	; 0x2538 <check_fs+0x20>
    2536:	82 c0       	rjmp	.+260    	; 0x263c <check_fs+0x124>
    2538:	fe 01       	movw	r30, r28
    253a:	e3 5d       	subi	r30, 0xD3	; 211
    253c:	fd 4f       	sbci	r31, 0xFD	; 253
    253e:	30 81       	ld	r19, Z
    2540:	20 e0       	ldi	r18, 0x00	; 0
    2542:	fe 01       	movw	r30, r28
    2544:	e4 5d       	subi	r30, 0xD4	; 212
    2546:	fd 4f       	sbci	r31, 0xFD	; 253
    2548:	80 81       	ld	r24, Z
    254a:	90 e0       	ldi	r25, 0x00	; 0
    254c:	82 2b       	or	r24, r18
    254e:	93 2b       	or	r25, r19
    2550:	2a ea       	ldi	r18, 0xAA	; 170
    2552:	85 35       	cpi	r24, 0x55	; 85
    2554:	92 07       	cpc	r25, r18
    2556:	09 f0       	breq	.+2      	; 0x255a <check_fs+0x42>
    2558:	73 c0       	rjmp	.+230    	; 0x2640 <check_fs+0x128>
    255a:	fe 01       	movw	r30, r28
    255c:	e9 59       	subi	r30, 0x99	; 153
    255e:	ff 4f       	sbci	r31, 0xFF	; 255
    2560:	80 81       	ld	r24, Z
    2562:	90 e0       	ldi	r25, 0x00	; 0
    2564:	a0 e0       	ldi	r26, 0x00	; 0
    2566:	b0 e0       	ldi	r27, 0x00	; 0
    2568:	b8 2f       	mov	r27, r24
    256a:	aa 27       	eor	r26, r26
    256c:	99 27       	eor	r25, r25
    256e:	88 27       	eor	r24, r24
    2570:	fe 01       	movw	r30, r28
    2572:	ea 59       	subi	r30, 0x9A	; 154
    2574:	ff 4f       	sbci	r31, 0xFF	; 255
    2576:	20 81       	ld	r18, Z
    2578:	30 e0       	ldi	r19, 0x00	; 0
    257a:	40 e0       	ldi	r20, 0x00	; 0
    257c:	50 e0       	ldi	r21, 0x00	; 0
    257e:	a9 01       	movw	r20, r18
    2580:	33 27       	eor	r19, r19
    2582:	22 27       	eor	r18, r18
    2584:	82 2b       	or	r24, r18
    2586:	93 2b       	or	r25, r19
    2588:	a4 2b       	or	r26, r20
    258a:	b5 2b       	or	r27, r21
    258c:	fe 01       	movw	r30, r28
    258e:	ec 59       	subi	r30, 0x9C	; 156
    2590:	ff 4f       	sbci	r31, 0xFF	; 255
    2592:	20 81       	ld	r18, Z
    2594:	30 e0       	ldi	r19, 0x00	; 0
    2596:	40 e0       	ldi	r20, 0x00	; 0
    2598:	50 e0       	ldi	r21, 0x00	; 0
    259a:	82 2b       	or	r24, r18
    259c:	93 2b       	or	r25, r19
    259e:	a4 2b       	or	r26, r20
    25a0:	b5 2b       	or	r27, r21
    25a2:	fe 01       	movw	r30, r28
    25a4:	eb 59       	subi	r30, 0x9B	; 155
    25a6:	ff 4f       	sbci	r31, 0xFF	; 255
    25a8:	30 81       	ld	r19, Z
    25aa:	20 e0       	ldi	r18, 0x00	; 0
    25ac:	40 e0       	ldi	r20, 0x00	; 0
    25ae:	50 e0       	ldi	r21, 0x00	; 0
    25b0:	82 2b       	or	r24, r18
    25b2:	93 2b       	or	r25, r19
    25b4:	a4 2b       	or	r26, r20
    25b6:	b5 2b       	or	r27, r21
    25b8:	b0 70       	andi	r27, 0x00	; 0
    25ba:	86 34       	cpi	r24, 0x46	; 70
    25bc:	21 e4       	ldi	r18, 0x41	; 65
    25be:	92 07       	cpc	r25, r18
    25c0:	24 e5       	ldi	r18, 0x54	; 84
    25c2:	a2 07       	cpc	r26, r18
    25c4:	20 e0       	ldi	r18, 0x00	; 0
    25c6:	b2 07       	cpc	r27, r18
    25c8:	e9 f1       	breq	.+122    	; 0x2644 <check_fs+0x12c>
    25ca:	fe 01       	movw	r30, r28
    25cc:	ed 57       	subi	r30, 0x7D	; 125
    25ce:	ff 4f       	sbci	r31, 0xFF	; 255
    25d0:	20 81       	ld	r18, Z
    25d2:	30 e0       	ldi	r19, 0x00	; 0
    25d4:	40 e0       	ldi	r20, 0x00	; 0
    25d6:	50 e0       	ldi	r21, 0x00	; 0
    25d8:	52 2f       	mov	r21, r18
    25da:	44 27       	eor	r20, r20
    25dc:	33 27       	eor	r19, r19
    25de:	22 27       	eor	r18, r18
    25e0:	fe 01       	movw	r30, r28
    25e2:	ee 57       	subi	r30, 0x7E	; 126
    25e4:	ff 4f       	sbci	r31, 0xFF	; 255
    25e6:	80 81       	ld	r24, Z
    25e8:	90 e0       	ldi	r25, 0x00	; 0
    25ea:	a0 e0       	ldi	r26, 0x00	; 0
    25ec:	b0 e0       	ldi	r27, 0x00	; 0
    25ee:	dc 01       	movw	r26, r24
    25f0:	99 27       	eor	r25, r25
    25f2:	88 27       	eor	r24, r24
    25f4:	28 2b       	or	r18, r24
    25f6:	39 2b       	or	r19, r25
    25f8:	4a 2b       	or	r20, r26
    25fa:	5b 2b       	or	r21, r27
    25fc:	fe 01       	movw	r30, r28
    25fe:	e0 58       	subi	r30, 0x80	; 128
    2600:	ff 4f       	sbci	r31, 0xFF	; 255
    2602:	80 81       	ld	r24, Z
    2604:	90 e0       	ldi	r25, 0x00	; 0
    2606:	a0 e0       	ldi	r26, 0x00	; 0
    2608:	b0 e0       	ldi	r27, 0x00	; 0
    260a:	28 2b       	or	r18, r24
    260c:	39 2b       	or	r19, r25
    260e:	4a 2b       	or	r20, r26
    2610:	5b 2b       	or	r21, r27
    2612:	cf 57       	subi	r28, 0x7F	; 127
    2614:	df 4f       	sbci	r29, 0xFF	; 255
    2616:	98 81       	ld	r25, Y
    2618:	80 e0       	ldi	r24, 0x00	; 0
    261a:	a0 e0       	ldi	r26, 0x00	; 0
    261c:	b0 e0       	ldi	r27, 0x00	; 0
    261e:	28 2b       	or	r18, r24
    2620:	39 2b       	or	r19, r25
    2622:	4a 2b       	or	r20, r26
    2624:	5b 2b       	or	r21, r27
    2626:	50 70       	andi	r21, 0x00	; 0
    2628:	81 e0       	ldi	r24, 0x01	; 1
    262a:	26 34       	cpi	r18, 0x46	; 70
    262c:	91 e4       	ldi	r25, 0x41	; 65
    262e:	39 07       	cpc	r19, r25
    2630:	94 e5       	ldi	r25, 0x54	; 84
    2632:	49 07       	cpc	r20, r25
    2634:	90 e0       	ldi	r25, 0x00	; 0
    2636:	59 07       	cpc	r21, r25
    2638:	31 f4       	brne	.+12     	; 0x2646 <check_fs+0x12e>
    263a:	04 c0       	rjmp	.+8      	; 0x2644 <check_fs+0x12c>
    263c:	83 e0       	ldi	r24, 0x03	; 3
    263e:	03 c0       	rjmp	.+6      	; 0x2646 <check_fs+0x12e>
    2640:	82 e0       	ldi	r24, 0x02	; 2
    2642:	01 c0       	rjmp	.+2      	; 0x2646 <check_fs+0x12e>
    2644:	80 e0       	ldi	r24, 0x00	; 0
    2646:	df 91       	pop	r29
    2648:	cf 91       	pop	r28
    264a:	0f 91       	pop	r16
    264c:	08 95       	ret

0000264e <chk_mounted>:
    264e:	3f 92       	push	r3
    2650:	4f 92       	push	r4
    2652:	5f 92       	push	r5
    2654:	6f 92       	push	r6
    2656:	7f 92       	push	r7
    2658:	8f 92       	push	r8
    265a:	9f 92       	push	r9
    265c:	af 92       	push	r10
    265e:	bf 92       	push	r11
    2660:	cf 92       	push	r12
    2662:	df 92       	push	r13
    2664:	ef 92       	push	r14
    2666:	ff 92       	push	r15
    2668:	0f 93       	push	r16
    266a:	1f 93       	push	r17
    266c:	df 93       	push	r29
    266e:	cf 93       	push	r28
    2670:	cd b7       	in	r28, 0x3d	; 61
    2672:	de b7       	in	r29, 0x3e	; 62
    2674:	2e 97       	sbiw	r28, 0x0e	; 14
    2676:	0f b6       	in	r0, 0x3f	; 63
    2678:	f8 94       	cli
    267a:	de bf       	out	0x3e, r29	; 62
    267c:	0f be       	out	0x3f, r0	; 63
    267e:	cd bf       	out	0x3d, r28	; 61
    2680:	fc 01       	movw	r30, r24
    2682:	e4 2e       	mov	r14, r20
    2684:	a0 81       	ld	r26, Z
    2686:	b1 81       	ldd	r27, Z+1	; 0x01
    2688:	8c 91       	ld	r24, X
    268a:	90 e0       	ldi	r25, 0x00	; 0
    268c:	c0 97       	sbiw	r24, 0x30	; 48
    268e:	8a 30       	cpi	r24, 0x0A	; 10
    2690:	91 05       	cpc	r25, r1
    2692:	58 f4       	brcc	.+22     	; 0x26aa <chk_mounted+0x5c>
    2694:	11 96       	adiw	r26, 0x01	; 1
    2696:	2c 91       	ld	r18, X
    2698:	11 97       	sbiw	r26, 0x01	; 1
    269a:	2a 33       	cpi	r18, 0x3A	; 58
    269c:	31 f4       	brne	.+12     	; 0x26aa <chk_mounted+0x5c>
    269e:	12 96       	adiw	r26, 0x02	; 2
    26a0:	b1 83       	std	Z+1, r27	; 0x01
    26a2:	a0 83       	st	Z, r26
    26a4:	00 97       	sbiw	r24, 0x00	; 0
    26a6:	09 f0       	breq	.+2      	; 0x26aa <chk_mounted+0x5c>
    26a8:	ad c3       	rjmp	.+1882   	; 0x2e04 <chk_mounted+0x7b6>
    26aa:	20 91 2e 02 	lds	r18, 0x022E
    26ae:	30 91 2f 02 	lds	r19, 0x022F
    26b2:	3e 87       	std	Y+14, r19	; 0x0e
    26b4:	2d 87       	std	Y+13, r18	; 0x0d
    26b6:	db 01       	movw	r26, r22
    26b8:	11 96       	adiw	r26, 0x01	; 1
    26ba:	3c 93       	st	X, r19
    26bc:	2e 93       	st	-X, r18
    26be:	21 15       	cp	r18, r1
    26c0:	31 05       	cpc	r19, r1
    26c2:	09 f4       	brne	.+2      	; 0x26c6 <chk_mounted+0x78>
    26c4:	a1 c3       	rjmp	.+1858   	; 0x2e08 <chk_mounted+0x7ba>
    26c6:	f9 01       	movw	r30, r18
    26c8:	80 81       	ld	r24, Z
    26ca:	88 23       	and	r24, r24
    26cc:	59 f0       	breq	.+22     	; 0x26e4 <chk_mounted+0x96>
    26ce:	81 81       	ldd	r24, Z+1	; 0x01
    26d0:	0e 94 64 11 	call	0x22c8	; 0x22c8 <disk_status>
    26d4:	80 fd       	sbrc	r24, 0
    26d6:	06 c0       	rjmp	.+12     	; 0x26e4 <chk_mounted+0x96>
    26d8:	ee 20       	and	r14, r14
    26da:	09 f4       	brne	.+2      	; 0x26de <chk_mounted+0x90>
    26dc:	97 c3       	rjmp	.+1838   	; 0x2e0c <chk_mounted+0x7be>
    26de:	82 ff       	sbrs	r24, 2
    26e0:	95 c3       	rjmp	.+1834   	; 0x2e0c <chk_mounted+0x7be>
    26e2:	98 c3       	rjmp	.+1840   	; 0x2e14 <chk_mounted+0x7c6>
    26e4:	ad 85       	ldd	r26, Y+13	; 0x0d
    26e6:	be 85       	ldd	r27, Y+14	; 0x0e
    26e8:	1c 92       	st	X, r1
    26ea:	11 96       	adiw	r26, 0x01	; 1
    26ec:	1c 92       	st	X, r1
    26ee:	80 e0       	ldi	r24, 0x00	; 0
    26f0:	0e 94 16 11 	call	0x222c	; 0x222c <disk_initialize>
    26f4:	80 fd       	sbrc	r24, 0
    26f6:	8c c3       	rjmp	.+1816   	; 0x2e10 <chk_mounted+0x7c2>
    26f8:	ee 20       	and	r14, r14
    26fa:	11 f0       	breq	.+4      	; 0x2700 <chk_mounted+0xb2>
    26fc:	82 fd       	sbrc	r24, 2
    26fe:	8a c3       	rjmp	.+1812   	; 0x2e14 <chk_mounted+0x7c6>
    2700:	8d 85       	ldd	r24, Y+13	; 0x0d
    2702:	9e 85       	ldd	r25, Y+14	; 0x0e
    2704:	40 e0       	ldi	r20, 0x00	; 0
    2706:	50 e0       	ldi	r21, 0x00	; 0
    2708:	ba 01       	movw	r22, r20
    270a:	0e 94 8c 12 	call	0x2518	; 0x2518 <check_fs>
    270e:	81 30       	cpi	r24, 0x01	; 1
    2710:	09 f0       	breq	.+2      	; 0x2714 <chk_mounted+0xc6>
    2712:	46 c0       	rjmp	.+140    	; 0x27a0 <chk_mounted+0x152>
    2714:	ed 85       	ldd	r30, Y+13	; 0x0d
    2716:	fe 85       	ldd	r31, Y+14	; 0x0e
    2718:	e0 51       	subi	r30, 0x10	; 16
    271a:	fe 4f       	sbci	r31, 0xFE	; 254
    271c:	80 81       	ld	r24, Z
    271e:	88 23       	and	r24, r24
    2720:	09 f4       	brne	.+2      	; 0x2724 <chk_mounted+0xd6>
    2722:	7c c3       	rjmp	.+1784   	; 0x2e1c <chk_mounted+0x7ce>
    2724:	ed 85       	ldd	r30, Y+13	; 0x0d
    2726:	fe 85       	ldd	r31, Y+14	; 0x0e
    2728:	e9 50       	subi	r30, 0x09	; 9
    272a:	fe 4f       	sbci	r31, 0xFE	; 254
    272c:	80 81       	ld	r24, Z
    272e:	90 e0       	ldi	r25, 0x00	; 0
    2730:	a0 e0       	ldi	r26, 0x00	; 0
    2732:	b0 e0       	ldi	r27, 0x00	; 0
    2734:	58 2f       	mov	r21, r24
    2736:	44 27       	eor	r20, r20
    2738:	33 27       	eor	r19, r19
    273a:	22 27       	eor	r18, r18
    273c:	ed 85       	ldd	r30, Y+13	; 0x0d
    273e:	fe 85       	ldd	r31, Y+14	; 0x0e
    2740:	ea 50       	subi	r30, 0x0A	; 10
    2742:	fe 4f       	sbci	r31, 0xFE	; 254
    2744:	80 81       	ld	r24, Z
    2746:	90 e0       	ldi	r25, 0x00	; 0
    2748:	a0 e0       	ldi	r26, 0x00	; 0
    274a:	b0 e0       	ldi	r27, 0x00	; 0
    274c:	dc 01       	movw	r26, r24
    274e:	99 27       	eor	r25, r25
    2750:	88 27       	eor	r24, r24
    2752:	28 2b       	or	r18, r24
    2754:	39 2b       	or	r19, r25
    2756:	4a 2b       	or	r20, r26
    2758:	5b 2b       	or	r21, r27
    275a:	ed 85       	ldd	r30, Y+13	; 0x0d
    275c:	fe 85       	ldd	r31, Y+14	; 0x0e
    275e:	ec 50       	subi	r30, 0x0C	; 12
    2760:	fe 4f       	sbci	r31, 0xFE	; 254
    2762:	80 81       	ld	r24, Z
    2764:	90 e0       	ldi	r25, 0x00	; 0
    2766:	a0 e0       	ldi	r26, 0x00	; 0
    2768:	b0 e0       	ldi	r27, 0x00	; 0
    276a:	28 2b       	or	r18, r24
    276c:	39 2b       	or	r19, r25
    276e:	4a 2b       	or	r20, r26
    2770:	5b 2b       	or	r21, r27
    2772:	ed 85       	ldd	r30, Y+13	; 0x0d
    2774:	fe 85       	ldd	r31, Y+14	; 0x0e
    2776:	eb 50       	subi	r30, 0x0B	; 11
    2778:	fe 4f       	sbci	r31, 0xFE	; 254
    277a:	90 81       	ld	r25, Z
    277c:	80 e0       	ldi	r24, 0x00	; 0
    277e:	a0 e0       	ldi	r26, 0x00	; 0
    2780:	b0 e0       	ldi	r27, 0x00	; 0
    2782:	28 2b       	or	r18, r24
    2784:	39 2b       	or	r19, r25
    2786:	4a 2b       	or	r20, r26
    2788:	5b 2b       	or	r21, r27
    278a:	29 83       	std	Y+1, r18	; 0x01
    278c:	3a 83       	std	Y+2, r19	; 0x02
    278e:	4b 83       	std	Y+3, r20	; 0x03
    2790:	5c 83       	std	Y+4, r21	; 0x04
    2792:	8d 85       	ldd	r24, Y+13	; 0x0d
    2794:	9e 85       	ldd	r25, Y+14	; 0x0e
    2796:	ba 01       	movw	r22, r20
    2798:	a9 01       	movw	r20, r18
    279a:	0e 94 8c 12 	call	0x2518	; 0x2518 <check_fs>
    279e:	04 c0       	rjmp	.+8      	; 0x27a8 <chk_mounted+0x15a>
    27a0:	19 82       	std	Y+1, r1	; 0x01
    27a2:	1a 82       	std	Y+2, r1	; 0x02
    27a4:	1b 82       	std	Y+3, r1	; 0x03
    27a6:	1c 82       	std	Y+4, r1	; 0x04
    27a8:	83 30       	cpi	r24, 0x03	; 3
    27aa:	09 f4       	brne	.+2      	; 0x27ae <chk_mounted+0x160>
    27ac:	35 c3       	rjmp	.+1642   	; 0x2e18 <chk_mounted+0x7ca>
    27ae:	88 23       	and	r24, r24
    27b0:	09 f0       	breq	.+2      	; 0x27b4 <chk_mounted+0x166>
    27b2:	34 c3       	rjmp	.+1640   	; 0x2e1c <chk_mounted+0x7ce>
    27b4:	ad 85       	ldd	r26, Y+13	; 0x0d
    27b6:	be 85       	ldd	r27, Y+14	; 0x0e
    27b8:	da 96       	adiw	r26, 0x3a	; 58
    27ba:	3c 91       	ld	r19, X
    27bc:	da 97       	sbiw	r26, 0x3a	; 58
    27be:	20 e0       	ldi	r18, 0x00	; 0
    27c0:	d9 96       	adiw	r26, 0x39	; 57
    27c2:	8c 91       	ld	r24, X
    27c4:	d9 97       	sbiw	r26, 0x39	; 57
    27c6:	90 e0       	ldi	r25, 0x00	; 0
    27c8:	82 2b       	or	r24, r18
    27ca:	93 2b       	or	r25, r19
    27cc:	b2 e0       	ldi	r27, 0x02	; 2
    27ce:	80 30       	cpi	r24, 0x00	; 0
    27d0:	9b 07       	cpc	r25, r27
    27d2:	09 f0       	breq	.+2      	; 0x27d6 <chk_mounted+0x188>
    27d4:	23 c3       	rjmp	.+1606   	; 0x2e1c <chk_mounted+0x7ce>
    27d6:	ed 85       	ldd	r30, Y+13	; 0x0d
    27d8:	fe 85       	ldd	r31, Y+14	; 0x0e
    27da:	eb 5b       	subi	r30, 0xBB	; 187
    27dc:	ff 4f       	sbci	r31, 0xFF	; 255
    27de:	90 81       	ld	r25, Z
    27e0:	80 e0       	ldi	r24, 0x00	; 0
    27e2:	ed 85       	ldd	r30, Y+13	; 0x0d
    27e4:	fe 85       	ldd	r31, Y+14	; 0x0e
    27e6:	ec 5b       	subi	r30, 0xBC	; 188
    27e8:	ff 4f       	sbci	r31, 0xFF	; 255
    27ea:	60 80       	ld	r6, Z
    27ec:	77 24       	eor	r7, r7
    27ee:	68 2a       	or	r6, r24
    27f0:	79 2a       	or	r7, r25
    27f2:	88 24       	eor	r8, r8
    27f4:	99 24       	eor	r9, r9
    27f6:	61 14       	cp	r6, r1
    27f8:	71 04       	cpc	r7, r1
    27fa:	81 04       	cpc	r8, r1
    27fc:	91 04       	cpc	r9, r1
    27fe:	99 f5       	brne	.+102    	; 0x2866 <chk_mounted+0x218>
    2800:	ed 85       	ldd	r30, Y+13	; 0x0d
    2802:	fe 85       	ldd	r31, Y+14	; 0x0e
    2804:	eb 5a       	subi	r30, 0xAB	; 171
    2806:	ff 4f       	sbci	r31, 0xFF	; 255
    2808:	60 80       	ld	r6, Z
    280a:	77 24       	eor	r7, r7
    280c:	88 24       	eor	r8, r8
    280e:	99 24       	eor	r9, r9
    2810:	96 2c       	mov	r9, r6
    2812:	88 24       	eor	r8, r8
    2814:	77 24       	eor	r7, r7
    2816:	66 24       	eor	r6, r6
    2818:	ed 85       	ldd	r30, Y+13	; 0x0d
    281a:	fe 85       	ldd	r31, Y+14	; 0x0e
    281c:	ec 5a       	subi	r30, 0xAC	; 172
    281e:	ff 4f       	sbci	r31, 0xFF	; 255
    2820:	80 81       	ld	r24, Z
    2822:	90 e0       	ldi	r25, 0x00	; 0
    2824:	a0 e0       	ldi	r26, 0x00	; 0
    2826:	b0 e0       	ldi	r27, 0x00	; 0
    2828:	dc 01       	movw	r26, r24
    282a:	99 27       	eor	r25, r25
    282c:	88 27       	eor	r24, r24
    282e:	68 2a       	or	r6, r24
    2830:	79 2a       	or	r7, r25
    2832:	8a 2a       	or	r8, r26
    2834:	9b 2a       	or	r9, r27
    2836:	ed 85       	ldd	r30, Y+13	; 0x0d
    2838:	fe 85       	ldd	r31, Y+14	; 0x0e
    283a:	ee 5a       	subi	r30, 0xAE	; 174
    283c:	ff 4f       	sbci	r31, 0xFF	; 255
    283e:	80 81       	ld	r24, Z
    2840:	90 e0       	ldi	r25, 0x00	; 0
    2842:	a0 e0       	ldi	r26, 0x00	; 0
    2844:	b0 e0       	ldi	r27, 0x00	; 0
    2846:	68 2a       	or	r6, r24
    2848:	79 2a       	or	r7, r25
    284a:	8a 2a       	or	r8, r26
    284c:	9b 2a       	or	r9, r27
    284e:	ed 85       	ldd	r30, Y+13	; 0x0d
    2850:	fe 85       	ldd	r31, Y+14	; 0x0e
    2852:	ed 5a       	subi	r30, 0xAD	; 173
    2854:	ff 4f       	sbci	r31, 0xFF	; 255
    2856:	90 81       	ld	r25, Z
    2858:	80 e0       	ldi	r24, 0x00	; 0
    285a:	a0 e0       	ldi	r26, 0x00	; 0
    285c:	b0 e0       	ldi	r27, 0x00	; 0
    285e:	68 2a       	or	r6, r24
    2860:	79 2a       	or	r7, r25
    2862:	8a 2a       	or	r8, r26
    2864:	9b 2a       	or	r9, r27
    2866:	ed 85       	ldd	r30, Y+13	; 0x0d
    2868:	fe 85       	ldd	r31, Y+14	; 0x0e
    286a:	62 8e       	std	Z+26, r6	; 0x1a
    286c:	73 8e       	std	Z+27, r7	; 0x1b
    286e:	84 8e       	std	Z+28, r8	; 0x1c
    2870:	95 8e       	std	Z+29, r9	; 0x1d
    2872:	26 ad       	ldd	r18, Z+62	; 0x3e
    2874:	23 83       	std	Z+3, r18	; 0x03
    2876:	82 2f       	mov	r24, r18
    2878:	81 50       	subi	r24, 0x01	; 1
    287a:	82 30       	cpi	r24, 0x02	; 2
    287c:	08 f0       	brcs	.+2      	; 0x2880 <chk_mounted+0x232>
    287e:	ce c2       	rjmp	.+1436   	; 0x2e1c <chk_mounted+0x7ce>
    2880:	33 ac       	ldd	r3, Z+59	; 0x3b
    2882:	32 82       	std	Z+2, r3	; 0x02
    2884:	33 20       	and	r3, r3
    2886:	09 f4       	brne	.+2      	; 0x288a <chk_mounted+0x23c>
    2888:	c9 c2       	rjmp	.+1426   	; 0x2e1c <chk_mounted+0x7ce>
    288a:	43 2d       	mov	r20, r3
    288c:	50 e0       	ldi	r21, 0x00	; 0
    288e:	ca 01       	movw	r24, r20
    2890:	01 97       	sbiw	r24, 0x01	; 1
    2892:	84 23       	and	r24, r20
    2894:	95 23       	and	r25, r21
    2896:	00 97       	sbiw	r24, 0x00	; 0
    2898:	09 f0       	breq	.+2      	; 0x289c <chk_mounted+0x24e>
    289a:	c0 c2       	rjmp	.+1408   	; 0x2e1c <chk_mounted+0x7ce>
    289c:	ed 85       	ldd	r30, Y+13	; 0x0d
    289e:	fe 85       	ldd	r31, Y+14	; 0x0e
    28a0:	e0 5c       	subi	r30, 0xC0	; 192
    28a2:	ff 4f       	sbci	r31, 0xFF	; 255
    28a4:	90 81       	ld	r25, Z
    28a6:	80 e0       	ldi	r24, 0x00	; 0
    28a8:	ad 85       	ldd	r26, Y+13	; 0x0d
    28aa:	be 85       	ldd	r27, Y+14	; 0x0e
    28ac:	df 96       	adiw	r26, 0x3f	; 63
    28ae:	4c 90       	ld	r4, X
    28b0:	df 97       	sbiw	r26, 0x3f	; 63
    28b2:	55 24       	eor	r5, r5
    28b4:	48 2a       	or	r4, r24
    28b6:	59 2a       	or	r5, r25
    28b8:	19 96       	adiw	r26, 0x09	; 9
    28ba:	5c 92       	st	X, r5
    28bc:	4e 92       	st	-X, r4
    28be:	18 97       	sbiw	r26, 0x08	; 8
    28c0:	c2 01       	movw	r24, r4
    28c2:	8f 70       	andi	r24, 0x0F	; 15
    28c4:	90 70       	andi	r25, 0x00	; 0
    28c6:	00 97       	sbiw	r24, 0x00	; 0
    28c8:	09 f0       	breq	.+2      	; 0x28cc <chk_mounted+0x27e>
    28ca:	a8 c2       	rjmp	.+1360   	; 0x2e1c <chk_mounted+0x7ce>
    28cc:	fd 01       	movw	r30, r26
    28ce:	ee 5b       	subi	r30, 0xBE	; 190
    28d0:	ff 4f       	sbci	r31, 0xFF	; 255
    28d2:	90 81       	ld	r25, Z
    28d4:	80 e0       	ldi	r24, 0x00	; 0
    28d6:	fd 01       	movw	r30, r26
    28d8:	ef 5b       	subi	r30, 0xBF	; 191
    28da:	ff 4f       	sbci	r31, 0xFF	; 255
    28dc:	e0 80       	ld	r14, Z
    28de:	ff 24       	eor	r15, r15
    28e0:	e8 2a       	or	r14, r24
    28e2:	f9 2a       	or	r15, r25
    28e4:	00 e0       	ldi	r16, 0x00	; 0
    28e6:	10 e0       	ldi	r17, 0x00	; 0
    28e8:	e1 14       	cp	r14, r1
    28ea:	f1 04       	cpc	r15, r1
    28ec:	01 05       	cpc	r16, r1
    28ee:	11 05       	cpc	r17, r1
    28f0:	89 f5       	brne	.+98     	; 0x2954 <chk_mounted+0x306>
    28f2:	fd 01       	movw	r30, r26
    28f4:	ef 5a       	subi	r30, 0xAF	; 175
    28f6:	ff 4f       	sbci	r31, 0xFF	; 255
    28f8:	e0 80       	ld	r14, Z
    28fa:	ff 24       	eor	r15, r15
    28fc:	00 e0       	ldi	r16, 0x00	; 0
    28fe:	10 e0       	ldi	r17, 0x00	; 0
    2900:	1e 2d       	mov	r17, r14
    2902:	00 27       	eor	r16, r16
    2904:	ff 24       	eor	r15, r15
    2906:	ee 24       	eor	r14, r14
    2908:	fd 01       	movw	r30, r26
    290a:	e0 5b       	subi	r30, 0xB0	; 176
    290c:	ff 4f       	sbci	r31, 0xFF	; 255
    290e:	80 81       	ld	r24, Z
    2910:	90 e0       	ldi	r25, 0x00	; 0
    2912:	a0 e0       	ldi	r26, 0x00	; 0
    2914:	b0 e0       	ldi	r27, 0x00	; 0
    2916:	dc 01       	movw	r26, r24
    2918:	99 27       	eor	r25, r25
    291a:	88 27       	eor	r24, r24
    291c:	e8 2a       	or	r14, r24
    291e:	f9 2a       	or	r15, r25
    2920:	0a 2b       	or	r16, r26
    2922:	1b 2b       	or	r17, r27
    2924:	ed 85       	ldd	r30, Y+13	; 0x0d
    2926:	fe 85       	ldd	r31, Y+14	; 0x0e
    2928:	e2 5b       	subi	r30, 0xB2	; 178
    292a:	ff 4f       	sbci	r31, 0xFF	; 255
    292c:	80 81       	ld	r24, Z
    292e:	90 e0       	ldi	r25, 0x00	; 0
    2930:	a0 e0       	ldi	r26, 0x00	; 0
    2932:	b0 e0       	ldi	r27, 0x00	; 0
    2934:	e8 2a       	or	r14, r24
    2936:	f9 2a       	or	r15, r25
    2938:	0a 2b       	or	r16, r26
    293a:	1b 2b       	or	r17, r27
    293c:	ed 85       	ldd	r30, Y+13	; 0x0d
    293e:	fe 85       	ldd	r31, Y+14	; 0x0e
    2940:	e1 5b       	subi	r30, 0xB1	; 177
    2942:	ff 4f       	sbci	r31, 0xFF	; 255
    2944:	90 81       	ld	r25, Z
    2946:	80 e0       	ldi	r24, 0x00	; 0
    2948:	a0 e0       	ldi	r26, 0x00	; 0
    294a:	b0 e0       	ldi	r27, 0x00	; 0
    294c:	e8 2a       	or	r14, r24
    294e:	f9 2a       	or	r15, r25
    2950:	0a 2b       	or	r16, r26
    2952:	1b 2b       	or	r17, r27
    2954:	ed 85       	ldd	r30, Y+13	; 0x0d
    2956:	fe 85       	ldd	r31, Y+14	; 0x0e
    2958:	95 ad       	ldd	r25, Z+61	; 0x3d
    295a:	80 e0       	ldi	r24, 0x00	; 0
    295c:	a4 ac       	ldd	r10, Z+60	; 0x3c
    295e:	bb 24       	eor	r11, r11
    2960:	a8 2a       	or	r10, r24
    2962:	b9 2a       	or	r11, r25
    2964:	a1 14       	cp	r10, r1
    2966:	b1 04       	cpc	r11, r1
    2968:	09 f4       	brne	.+2      	; 0x296c <chk_mounted+0x31e>
    296a:	58 c2       	rjmp	.+1200   	; 0x2e1c <chk_mounted+0x7ce>
    296c:	30 e0       	ldi	r19, 0x00	; 0
    296e:	40 e0       	ldi	r20, 0x00	; 0
    2970:	50 e0       	ldi	r21, 0x00	; 0
    2972:	c4 01       	movw	r24, r8
    2974:	b3 01       	movw	r22, r6
    2976:	0e 94 b8 42 	call	0x8570	; 0x8570 <__mulsi3>
    297a:	6d 83       	std	Y+5, r22	; 0x05
    297c:	7e 83       	std	Y+6, r23	; 0x06
    297e:	8f 83       	std	Y+7, r24	; 0x07
    2980:	98 87       	std	Y+8, r25	; 0x08
    2982:	95 01       	movw	r18, r10
    2984:	40 e0       	ldi	r20, 0x00	; 0
    2986:	50 e0       	ldi	r21, 0x00	; 0
    2988:	29 87       	std	Y+9, r18	; 0x09
    298a:	3a 87       	std	Y+10, r19	; 0x0a
    298c:	4b 87       	std	Y+11, r20	; 0x0b
    298e:	5c 87       	std	Y+12, r21	; 0x0c
    2990:	52 01       	movw	r10, r4
    2992:	b4 e0       	ldi	r27, 0x04	; 4
    2994:	b6 94       	lsr	r11
    2996:	a7 94       	ror	r10
    2998:	ba 95       	dec	r27
    299a:	e1 f7       	brne	.-8      	; 0x2994 <chk_mounted+0x346>
    299c:	cc 24       	eor	r12, r12
    299e:	dd 24       	eor	r13, r13
    29a0:	a2 0e       	add	r10, r18
    29a2:	b3 1e       	adc	r11, r19
    29a4:	c4 1e       	adc	r12, r20
    29a6:	d5 1e       	adc	r13, r21
    29a8:	a6 0e       	add	r10, r22
    29aa:	b7 1e       	adc	r11, r23
    29ac:	c8 1e       	adc	r12, r24
    29ae:	d9 1e       	adc	r13, r25
    29b0:	ea 14       	cp	r14, r10
    29b2:	fb 04       	cpc	r15, r11
    29b4:	0c 05       	cpc	r16, r12
    29b6:	1d 05       	cpc	r17, r13
    29b8:	08 f4       	brcc	.+2      	; 0x29bc <chk_mounted+0x36e>
    29ba:	30 c2       	rjmp	.+1120   	; 0x2e1c <chk_mounted+0x7ce>
    29bc:	c8 01       	movw	r24, r16
    29be:	b7 01       	movw	r22, r14
    29c0:	6a 19       	sub	r22, r10
    29c2:	7b 09       	sbc	r23, r11
    29c4:	8c 09       	sbc	r24, r12
    29c6:	9d 09       	sbc	r25, r13
    29c8:	23 2d       	mov	r18, r3
    29ca:	30 e0       	ldi	r19, 0x00	; 0
    29cc:	40 e0       	ldi	r20, 0x00	; 0
    29ce:	50 e0       	ldi	r21, 0x00	; 0
    29d0:	0e 94 f7 42 	call	0x85ee	; 0x85ee <__udivmodsi4>
    29d4:	21 15       	cp	r18, r1
    29d6:	31 05       	cpc	r19, r1
    29d8:	41 05       	cpc	r20, r1
    29da:	51 05       	cpc	r21, r1
    29dc:	09 f4       	brne	.+2      	; 0x29e0 <chk_mounted+0x392>
    29de:	1e c2       	rjmp	.+1084   	; 0x2e1c <chk_mounted+0x7ce>
    29e0:	26 3f       	cpi	r18, 0xF6	; 246
    29e2:	8f e0       	ldi	r24, 0x0F	; 15
    29e4:	38 07       	cpc	r19, r24
    29e6:	80 e0       	ldi	r24, 0x00	; 0
    29e8:	48 07       	cpc	r20, r24
    29ea:	80 e0       	ldi	r24, 0x00	; 0
    29ec:	58 07       	cpc	r21, r24
    29ee:	58 f0       	brcs	.+22     	; 0x2a06 <chk_mounted+0x3b8>
    29f0:	26 3f       	cpi	r18, 0xF6	; 246
    29f2:	9f ef       	ldi	r25, 0xFF	; 255
    29f4:	39 07       	cpc	r19, r25
    29f6:	90 e0       	ldi	r25, 0x00	; 0
    29f8:	49 07       	cpc	r20, r25
    29fa:	90 e0       	ldi	r25, 0x00	; 0
    29fc:	59 07       	cpc	r21, r25
    29fe:	30 f4       	brcc	.+12     	; 0x2a0c <chk_mounted+0x3be>
    2a00:	a2 e0       	ldi	r26, 0x02	; 2
    2a02:	3a 2e       	mov	r3, r26
    2a04:	05 c0       	rjmp	.+10     	; 0x2a10 <chk_mounted+0x3c2>
    2a06:	33 24       	eor	r3, r3
    2a08:	33 94       	inc	r3
    2a0a:	02 c0       	rjmp	.+4      	; 0x2a10 <chk_mounted+0x3c2>
    2a0c:	f3 e0       	ldi	r31, 0x03	; 3
    2a0e:	3f 2e       	mov	r3, r31
    2a10:	e2 e0       	ldi	r30, 0x02	; 2
    2a12:	ee 2e       	mov	r14, r30
    2a14:	f1 2c       	mov	r15, r1
    2a16:	01 2d       	mov	r16, r1
    2a18:	11 2d       	mov	r17, r1
    2a1a:	e2 0e       	add	r14, r18
    2a1c:	f3 1e       	adc	r15, r19
    2a1e:	04 1f       	adc	r16, r20
    2a20:	15 1f       	adc	r17, r21
    2a22:	ad 85       	ldd	r26, Y+13	; 0x0d
    2a24:	be 85       	ldd	r27, Y+14	; 0x0e
    2a26:	56 96       	adiw	r26, 0x16	; 22
    2a28:	ed 92       	st	X+, r14
    2a2a:	fd 92       	st	X+, r15
    2a2c:	0d 93       	st	X+, r16
    2a2e:	1c 93       	st	X, r17
    2a30:	59 97       	sbiw	r26, 0x19	; 25
    2a32:	29 81       	ldd	r18, Y+1	; 0x01
    2a34:	3a 81       	ldd	r19, Y+2	; 0x02
    2a36:	4b 81       	ldd	r20, Y+3	; 0x03
    2a38:	5c 81       	ldd	r21, Y+4	; 0x04
    2a3a:	a2 0e       	add	r10, r18
    2a3c:	b3 1e       	adc	r11, r19
    2a3e:	c4 1e       	adc	r12, r20
    2a40:	d5 1e       	adc	r13, r21
    2a42:	96 96       	adiw	r26, 0x26	; 38
    2a44:	ad 92       	st	X+, r10
    2a46:	bd 92       	st	X+, r11
    2a48:	cd 92       	st	X+, r12
    2a4a:	dc 92       	st	X, r13
    2a4c:	99 97       	sbiw	r26, 0x29	; 41
    2a4e:	59 01       	movw	r10, r18
    2a50:	6a 01       	movw	r12, r20
    2a52:	29 85       	ldd	r18, Y+9	; 0x09
    2a54:	3a 85       	ldd	r19, Y+10	; 0x0a
    2a56:	4b 85       	ldd	r20, Y+11	; 0x0b
    2a58:	5c 85       	ldd	r21, Y+12	; 0x0c
    2a5a:	a2 0e       	add	r10, r18
    2a5c:	b3 1e       	adc	r11, r19
    2a5e:	c4 1e       	adc	r12, r20
    2a60:	d5 1e       	adc	r13, r21
    2a62:	5e 96       	adiw	r26, 0x1e	; 30
    2a64:	ad 92       	st	X+, r10
    2a66:	bd 92       	st	X+, r11
    2a68:	cd 92       	st	X+, r12
    2a6a:	dc 92       	st	X, r13
    2a6c:	91 97       	sbiw	r26, 0x21	; 33
    2a6e:	b3 2d       	mov	r27, r3
    2a70:	b3 30       	cpi	r27, 0x03	; 3
    2a72:	09 f0       	breq	.+2      	; 0x2a76 <chk_mounted+0x428>
    2a74:	47 c0       	rjmp	.+142    	; 0x2b04 <chk_mounted+0x4b6>
    2a76:	41 14       	cp	r4, r1
    2a78:	51 04       	cpc	r5, r1
    2a7a:	09 f0       	breq	.+2      	; 0x2a7e <chk_mounted+0x430>
    2a7c:	cf c1       	rjmp	.+926    	; 0x2e1c <chk_mounted+0x7ce>
    2a7e:	ed 85       	ldd	r30, Y+13	; 0x0d
    2a80:	fe 85       	ldd	r31, Y+14	; 0x0e
    2a82:	e3 5a       	subi	r30, 0xA3	; 163
    2a84:	ff 4f       	sbci	r31, 0xFF	; 255
    2a86:	80 81       	ld	r24, Z
    2a88:	90 e0       	ldi	r25, 0x00	; 0
    2a8a:	a0 e0       	ldi	r26, 0x00	; 0
    2a8c:	b0 e0       	ldi	r27, 0x00	; 0
    2a8e:	b8 2f       	mov	r27, r24
    2a90:	aa 27       	eor	r26, r26
    2a92:	99 27       	eor	r25, r25
    2a94:	88 27       	eor	r24, r24
    2a96:	ed 85       	ldd	r30, Y+13	; 0x0d
    2a98:	fe 85       	ldd	r31, Y+14	; 0x0e
    2a9a:	e4 5a       	subi	r30, 0xA4	; 164
    2a9c:	ff 4f       	sbci	r31, 0xFF	; 255
    2a9e:	20 81       	ld	r18, Z
    2aa0:	30 e0       	ldi	r19, 0x00	; 0
    2aa2:	40 e0       	ldi	r20, 0x00	; 0
    2aa4:	50 e0       	ldi	r21, 0x00	; 0
    2aa6:	a9 01       	movw	r20, r18
    2aa8:	33 27       	eor	r19, r19
    2aaa:	22 27       	eor	r18, r18
    2aac:	82 2b       	or	r24, r18
    2aae:	93 2b       	or	r25, r19
    2ab0:	a4 2b       	or	r26, r20
    2ab2:	b5 2b       	or	r27, r21
    2ab4:	ed 85       	ldd	r30, Y+13	; 0x0d
    2ab6:	fe 85       	ldd	r31, Y+14	; 0x0e
    2ab8:	e6 5a       	subi	r30, 0xA6	; 166
    2aba:	ff 4f       	sbci	r31, 0xFF	; 255
    2abc:	20 81       	ld	r18, Z
    2abe:	30 e0       	ldi	r19, 0x00	; 0
    2ac0:	40 e0       	ldi	r20, 0x00	; 0
    2ac2:	50 e0       	ldi	r21, 0x00	; 0
    2ac4:	82 2b       	or	r24, r18
    2ac6:	93 2b       	or	r25, r19
    2ac8:	a4 2b       	or	r26, r20
    2aca:	b5 2b       	or	r27, r21
    2acc:	ed 85       	ldd	r30, Y+13	; 0x0d
    2ace:	fe 85       	ldd	r31, Y+14	; 0x0e
    2ad0:	e5 5a       	subi	r30, 0xA5	; 165
    2ad2:	ff 4f       	sbci	r31, 0xFF	; 255
    2ad4:	30 81       	ld	r19, Z
    2ad6:	20 e0       	ldi	r18, 0x00	; 0
    2ad8:	40 e0       	ldi	r20, 0x00	; 0
    2ada:	50 e0       	ldi	r21, 0x00	; 0
    2adc:	82 2b       	or	r24, r18
    2ade:	93 2b       	or	r25, r19
    2ae0:	a4 2b       	or	r26, r20
    2ae2:	b5 2b       	or	r27, r21
    2ae4:	ed 85       	ldd	r30, Y+13	; 0x0d
    2ae6:	fe 85       	ldd	r31, Y+14	; 0x0e
    2ae8:	82 a3       	std	Z+34, r24	; 0x22
    2aea:	93 a3       	std	Z+35, r25	; 0x23
    2aec:	a4 a3       	std	Z+36, r26	; 0x24
    2aee:	b5 a3       	std	Z+37, r27	; 0x25
    2af0:	d8 01       	movw	r26, r16
    2af2:	c7 01       	movw	r24, r14
    2af4:	52 e0       	ldi	r21, 0x02	; 2
    2af6:	88 0f       	add	r24, r24
    2af8:	99 1f       	adc	r25, r25
    2afa:	aa 1f       	adc	r26, r26
    2afc:	bb 1f       	adc	r27, r27
    2afe:	5a 95       	dec	r21
    2b00:	d1 f7       	brne	.-12     	; 0x2af6 <chk_mounted+0x4a8>
    2b02:	2d c0       	rjmp	.+90     	; 0x2b5e <chk_mounted+0x510>
    2b04:	41 14       	cp	r4, r1
    2b06:	51 04       	cpc	r5, r1
    2b08:	09 f4       	brne	.+2      	; 0x2b0c <chk_mounted+0x4be>
    2b0a:	88 c1       	rjmp	.+784    	; 0x2e1c <chk_mounted+0x7ce>
    2b0c:	8d 81       	ldd	r24, Y+5	; 0x05
    2b0e:	9e 81       	ldd	r25, Y+6	; 0x06
    2b10:	af 81       	ldd	r26, Y+7	; 0x07
    2b12:	b8 85       	ldd	r27, Y+8	; 0x08
    2b14:	8a 0d       	add	r24, r10
    2b16:	9b 1d       	adc	r25, r11
    2b18:	ac 1d       	adc	r26, r12
    2b1a:	bd 1d       	adc	r27, r13
    2b1c:	ed 85       	ldd	r30, Y+13	; 0x0d
    2b1e:	fe 85       	ldd	r31, Y+14	; 0x0e
    2b20:	82 a3       	std	Z+34, r24	; 0x22
    2b22:	93 a3       	std	Z+35, r25	; 0x23
    2b24:	a4 a3       	std	Z+36, r26	; 0x24
    2b26:	b5 a3       	std	Z+37, r27	; 0x25
    2b28:	d8 01       	movw	r26, r16
    2b2a:	c7 01       	movw	r24, r14
    2b2c:	88 0f       	add	r24, r24
    2b2e:	99 1f       	adc	r25, r25
    2b30:	aa 1f       	adc	r26, r26
    2b32:	bb 1f       	adc	r27, r27
    2b34:	f3 2d       	mov	r31, r3
    2b36:	f2 30       	cpi	r31, 0x02	; 2
    2b38:	91 f0       	breq	.+36     	; 0x2b5e <chk_mounted+0x510>
    2b3a:	8e 0d       	add	r24, r14
    2b3c:	9f 1d       	adc	r25, r15
    2b3e:	a0 1f       	adc	r26, r16
    2b40:	b1 1f       	adc	r27, r17
    2b42:	b6 95       	lsr	r27
    2b44:	a7 95       	ror	r26
    2b46:	97 95       	ror	r25
    2b48:	87 95       	ror	r24
    2b4a:	a8 01       	movw	r20, r16
    2b4c:	97 01       	movw	r18, r14
    2b4e:	21 70       	andi	r18, 0x01	; 1
    2b50:	30 70       	andi	r19, 0x00	; 0
    2b52:	40 70       	andi	r20, 0x00	; 0
    2b54:	50 70       	andi	r21, 0x00	; 0
    2b56:	82 0f       	add	r24, r18
    2b58:	93 1f       	adc	r25, r19
    2b5a:	a4 1f       	adc	r26, r20
    2b5c:	b5 1f       	adc	r27, r21
    2b5e:	81 50       	subi	r24, 0x01	; 1
    2b60:	9e 4f       	sbci	r25, 0xFE	; 254
    2b62:	af 4f       	sbci	r26, 0xFF	; 255
    2b64:	bf 4f       	sbci	r27, 0xFF	; 255
    2b66:	29 e0       	ldi	r18, 0x09	; 9
    2b68:	b6 95       	lsr	r27
    2b6a:	a7 95       	ror	r26
    2b6c:	97 95       	ror	r25
    2b6e:	87 95       	ror	r24
    2b70:	2a 95       	dec	r18
    2b72:	d1 f7       	brne	.-12     	; 0x2b68 <chk_mounted+0x51a>
    2b74:	68 16       	cp	r6, r24
    2b76:	79 06       	cpc	r7, r25
    2b78:	8a 06       	cpc	r8, r26
    2b7a:	9b 06       	cpc	r9, r27
    2b7c:	08 f4       	brcc	.+2      	; 0x2b80 <chk_mounted+0x532>
    2b7e:	4e c1       	rjmp	.+668    	; 0x2e1c <chk_mounted+0x7ce>
    2b80:	8f ef       	ldi	r24, 0xFF	; 255
    2b82:	9f ef       	ldi	r25, 0xFF	; 255
    2b84:	dc 01       	movw	r26, r24
    2b86:	ed 85       	ldd	r30, Y+13	; 0x0d
    2b88:	fe 85       	ldd	r31, Y+14	; 0x0e
    2b8a:	86 87       	std	Z+14, r24	; 0x0e
    2b8c:	97 87       	std	Z+15, r25	; 0x0f
    2b8e:	a0 8b       	std	Z+16, r26	; 0x10
    2b90:	b1 8b       	std	Z+17, r27	; 0x11
    2b92:	12 86       	std	Z+10, r1	; 0x0a
    2b94:	13 86       	std	Z+11, r1	; 0x0b
    2b96:	14 86       	std	Z+12, r1	; 0x0c
    2b98:	15 86       	std	Z+13, r1	; 0x0d
    2b9a:	b3 2d       	mov	r27, r3
    2b9c:	b3 30       	cpi	r27, 0x03	; 3
    2b9e:	09 f0       	breq	.+2      	; 0x2ba2 <chk_mounted+0x554>
    2ba0:	19 c1       	rjmp	.+562    	; 0x2dd4 <chk_mounted+0x786>
    2ba2:	15 82       	std	Z+5, r1	; 0x05
    2ba4:	ed 85       	ldd	r30, Y+13	; 0x0d
    2ba6:	fe 85       	ldd	r31, Y+14	; 0x0e
    2ba8:	e1 5a       	subi	r30, 0xA1	; 161
    2baa:	ff 4f       	sbci	r31, 0xFF	; 255
    2bac:	90 81       	ld	r25, Z
    2bae:	80 e0       	ldi	r24, 0x00	; 0
    2bb0:	ed 85       	ldd	r30, Y+13	; 0x0d
    2bb2:	fe 85       	ldd	r31, Y+14	; 0x0e
    2bb4:	e2 5a       	subi	r30, 0xA2	; 162
    2bb6:	ff 4f       	sbci	r31, 0xFF	; 255
    2bb8:	20 81       	ld	r18, Z
    2bba:	30 e0       	ldi	r19, 0x00	; 0
    2bbc:	28 2b       	or	r18, r24
    2bbe:	39 2b       	or	r19, r25
    2bc0:	40 e0       	ldi	r20, 0x00	; 0
    2bc2:	50 e0       	ldi	r21, 0x00	; 0
    2bc4:	89 81       	ldd	r24, Y+1	; 0x01
    2bc6:	9a 81       	ldd	r25, Y+2	; 0x02
    2bc8:	ab 81       	ldd	r26, Y+3	; 0x03
    2bca:	bc 81       	ldd	r27, Y+4	; 0x04
    2bcc:	28 0f       	add	r18, r24
    2bce:	39 1f       	adc	r19, r25
    2bd0:	4a 1f       	adc	r20, r26
    2bd2:	5b 1f       	adc	r21, r27
    2bd4:	ad 85       	ldd	r26, Y+13	; 0x0d
    2bd6:	be 85       	ldd	r27, Y+14	; 0x0e
    2bd8:	52 96       	adiw	r26, 0x12	; 18
    2bda:	2d 93       	st	X+, r18
    2bdc:	3d 93       	st	X+, r19
    2bde:	4d 93       	st	X+, r20
    2be0:	5c 93       	st	X, r21
    2be2:	55 97       	sbiw	r26, 0x15	; 21
    2be4:	bd 01       	movw	r22, r26
    2be6:	62 5d       	subi	r22, 0xD2	; 210
    2be8:	7f 4f       	sbci	r23, 0xFF	; 255
    2bea:	11 96       	adiw	r26, 0x01	; 1
    2bec:	8c 91       	ld	r24, X
    2bee:	01 e0       	ldi	r16, 0x01	; 1
    2bf0:	0e 94 6b 11 	call	0x22d6	; 0x22d6 <disk_read>
    2bf4:	88 23       	and	r24, r24
    2bf6:	09 f0       	breq	.+2      	; 0x2bfa <chk_mounted+0x5ac>
    2bf8:	ed c0       	rjmp	.+474    	; 0x2dd4 <chk_mounted+0x786>
    2bfa:	ed 85       	ldd	r30, Y+13	; 0x0d
    2bfc:	fe 85       	ldd	r31, Y+14	; 0x0e
    2bfe:	e3 5d       	subi	r30, 0xD3	; 211
    2c00:	fd 4f       	sbci	r31, 0xFD	; 253
    2c02:	30 81       	ld	r19, Z
    2c04:	20 e0       	ldi	r18, 0x00	; 0
    2c06:	ed 85       	ldd	r30, Y+13	; 0x0d
    2c08:	fe 85       	ldd	r31, Y+14	; 0x0e
    2c0a:	e4 5d       	subi	r30, 0xD4	; 212
    2c0c:	fd 4f       	sbci	r31, 0xFD	; 253
    2c0e:	80 81       	ld	r24, Z
    2c10:	90 e0       	ldi	r25, 0x00	; 0
    2c12:	82 2b       	or	r24, r18
    2c14:	93 2b       	or	r25, r19
    2c16:	ba ea       	ldi	r27, 0xAA	; 170
    2c18:	85 35       	cpi	r24, 0x55	; 85
    2c1a:	9b 07       	cpc	r25, r27
    2c1c:	09 f0       	breq	.+2      	; 0x2c20 <chk_mounted+0x5d2>
    2c1e:	da c0       	rjmp	.+436    	; 0x2dd4 <chk_mounted+0x786>
    2c20:	ed 85       	ldd	r30, Y+13	; 0x0d
    2c22:	fe 85       	ldd	r31, Y+14	; 0x0e
    2c24:	81 a9       	ldd	r24, Z+49	; 0x31
    2c26:	90 e0       	ldi	r25, 0x00	; 0
    2c28:	a0 e0       	ldi	r26, 0x00	; 0
    2c2a:	b0 e0       	ldi	r27, 0x00	; 0
    2c2c:	b8 2f       	mov	r27, r24
    2c2e:	aa 27       	eor	r26, r26
    2c30:	99 27       	eor	r25, r25
    2c32:	88 27       	eor	r24, r24
    2c34:	20 a9       	ldd	r18, Z+48	; 0x30
    2c36:	30 e0       	ldi	r19, 0x00	; 0
    2c38:	40 e0       	ldi	r20, 0x00	; 0
    2c3a:	50 e0       	ldi	r21, 0x00	; 0
    2c3c:	a9 01       	movw	r20, r18
    2c3e:	33 27       	eor	r19, r19
    2c40:	22 27       	eor	r18, r18
    2c42:	82 2b       	or	r24, r18
    2c44:	93 2b       	or	r25, r19
    2c46:	a4 2b       	or	r26, r20
    2c48:	b5 2b       	or	r27, r21
    2c4a:	26 a5       	ldd	r18, Z+46	; 0x2e
    2c4c:	30 e0       	ldi	r19, 0x00	; 0
    2c4e:	40 e0       	ldi	r20, 0x00	; 0
    2c50:	50 e0       	ldi	r21, 0x00	; 0
    2c52:	82 2b       	or	r24, r18
    2c54:	93 2b       	or	r25, r19
    2c56:	a4 2b       	or	r26, r20
    2c58:	b5 2b       	or	r27, r21
    2c5a:	37 a5       	ldd	r19, Z+47	; 0x2f
    2c5c:	20 e0       	ldi	r18, 0x00	; 0
    2c5e:	40 e0       	ldi	r20, 0x00	; 0
    2c60:	50 e0       	ldi	r21, 0x00	; 0
    2c62:	82 2b       	or	r24, r18
    2c64:	93 2b       	or	r25, r19
    2c66:	a4 2b       	or	r26, r20
    2c68:	b5 2b       	or	r27, r21
    2c6a:	82 35       	cpi	r24, 0x52	; 82
    2c6c:	f2 e5       	ldi	r31, 0x52	; 82
    2c6e:	9f 07       	cpc	r25, r31
    2c70:	f1 e6       	ldi	r31, 0x61	; 97
    2c72:	af 07       	cpc	r26, r31
    2c74:	f1 e4       	ldi	r31, 0x41	; 65
    2c76:	bf 07       	cpc	r27, r31
    2c78:	09 f0       	breq	.+2      	; 0x2c7c <chk_mounted+0x62e>
    2c7a:	ac c0       	rjmp	.+344    	; 0x2dd4 <chk_mounted+0x786>
    2c7c:	ed 85       	ldd	r30, Y+13	; 0x0d
    2c7e:	fe 85       	ldd	r31, Y+14	; 0x0e
    2c80:	eb 5e       	subi	r30, 0xEB	; 235
    2c82:	fd 4f       	sbci	r31, 0xFD	; 253
    2c84:	80 81       	ld	r24, Z
    2c86:	90 e0       	ldi	r25, 0x00	; 0
    2c88:	a0 e0       	ldi	r26, 0x00	; 0
    2c8a:	b0 e0       	ldi	r27, 0x00	; 0
    2c8c:	b8 2f       	mov	r27, r24
    2c8e:	aa 27       	eor	r26, r26
    2c90:	99 27       	eor	r25, r25
    2c92:	88 27       	eor	r24, r24
    2c94:	ed 85       	ldd	r30, Y+13	; 0x0d
    2c96:	fe 85       	ldd	r31, Y+14	; 0x0e
    2c98:	ec 5e       	subi	r30, 0xEC	; 236
    2c9a:	fd 4f       	sbci	r31, 0xFD	; 253
    2c9c:	20 81       	ld	r18, Z
    2c9e:	30 e0       	ldi	r19, 0x00	; 0
    2ca0:	40 e0       	ldi	r20, 0x00	; 0
    2ca2:	50 e0       	ldi	r21, 0x00	; 0
    2ca4:	a9 01       	movw	r20, r18
    2ca6:	33 27       	eor	r19, r19
    2ca8:	22 27       	eor	r18, r18
    2caa:	82 2b       	or	r24, r18
    2cac:	93 2b       	or	r25, r19
    2cae:	a4 2b       	or	r26, r20
    2cb0:	b5 2b       	or	r27, r21
    2cb2:	ed 85       	ldd	r30, Y+13	; 0x0d
    2cb4:	fe 85       	ldd	r31, Y+14	; 0x0e
    2cb6:	ee 5e       	subi	r30, 0xEE	; 238
    2cb8:	fd 4f       	sbci	r31, 0xFD	; 253
    2cba:	20 81       	ld	r18, Z
    2cbc:	30 e0       	ldi	r19, 0x00	; 0
    2cbe:	40 e0       	ldi	r20, 0x00	; 0
    2cc0:	50 e0       	ldi	r21, 0x00	; 0
    2cc2:	82 2b       	or	r24, r18
    2cc4:	93 2b       	or	r25, r19
    2cc6:	a4 2b       	or	r26, r20
    2cc8:	b5 2b       	or	r27, r21
    2cca:	ed 85       	ldd	r30, Y+13	; 0x0d
    2ccc:	fe 85       	ldd	r31, Y+14	; 0x0e
    2cce:	ed 5e       	subi	r30, 0xED	; 237
    2cd0:	fd 4f       	sbci	r31, 0xFD	; 253
    2cd2:	30 81       	ld	r19, Z
    2cd4:	20 e0       	ldi	r18, 0x00	; 0
    2cd6:	40 e0       	ldi	r20, 0x00	; 0
    2cd8:	50 e0       	ldi	r21, 0x00	; 0
    2cda:	82 2b       	or	r24, r18
    2cdc:	93 2b       	or	r25, r19
    2cde:	a4 2b       	or	r26, r20
    2ce0:	b5 2b       	or	r27, r21
    2ce2:	82 37       	cpi	r24, 0x72	; 114
    2ce4:	22 e7       	ldi	r18, 0x72	; 114
    2ce6:	92 07       	cpc	r25, r18
    2ce8:	21 e4       	ldi	r18, 0x41	; 65
    2cea:	a2 07       	cpc	r26, r18
    2cec:	21 e6       	ldi	r18, 0x61	; 97
    2cee:	b2 07       	cpc	r27, r18
    2cf0:	09 f0       	breq	.+2      	; 0x2cf4 <chk_mounted+0x6a6>
    2cf2:	70 c0       	rjmp	.+224    	; 0x2dd4 <chk_mounted+0x786>
    2cf4:	ed 85       	ldd	r30, Y+13	; 0x0d
    2cf6:	fe 85       	ldd	r31, Y+14	; 0x0e
    2cf8:	e3 5e       	subi	r30, 0xE3	; 227
    2cfa:	fd 4f       	sbci	r31, 0xFD	; 253
    2cfc:	80 81       	ld	r24, Z
    2cfe:	90 e0       	ldi	r25, 0x00	; 0
    2d00:	a0 e0       	ldi	r26, 0x00	; 0
    2d02:	b0 e0       	ldi	r27, 0x00	; 0
    2d04:	b8 2f       	mov	r27, r24
    2d06:	aa 27       	eor	r26, r26
    2d08:	99 27       	eor	r25, r25
    2d0a:	88 27       	eor	r24, r24
    2d0c:	ed 85       	ldd	r30, Y+13	; 0x0d
    2d0e:	fe 85       	ldd	r31, Y+14	; 0x0e
    2d10:	e4 5e       	subi	r30, 0xE4	; 228
    2d12:	fd 4f       	sbci	r31, 0xFD	; 253
    2d14:	20 81       	ld	r18, Z
    2d16:	30 e0       	ldi	r19, 0x00	; 0
    2d18:	40 e0       	ldi	r20, 0x00	; 0
    2d1a:	50 e0       	ldi	r21, 0x00	; 0
    2d1c:	a9 01       	movw	r20, r18
    2d1e:	33 27       	eor	r19, r19
    2d20:	22 27       	eor	r18, r18
    2d22:	82 2b       	or	r24, r18
    2d24:	93 2b       	or	r25, r19
    2d26:	a4 2b       	or	r26, r20
    2d28:	b5 2b       	or	r27, r21
    2d2a:	ed 85       	ldd	r30, Y+13	; 0x0d
    2d2c:	fe 85       	ldd	r31, Y+14	; 0x0e
    2d2e:	e6 5e       	subi	r30, 0xE6	; 230
    2d30:	fd 4f       	sbci	r31, 0xFD	; 253
    2d32:	20 81       	ld	r18, Z
    2d34:	30 e0       	ldi	r19, 0x00	; 0
    2d36:	40 e0       	ldi	r20, 0x00	; 0
    2d38:	50 e0       	ldi	r21, 0x00	; 0
    2d3a:	82 2b       	or	r24, r18
    2d3c:	93 2b       	or	r25, r19
    2d3e:	a4 2b       	or	r26, r20
    2d40:	b5 2b       	or	r27, r21
    2d42:	ed 85       	ldd	r30, Y+13	; 0x0d
    2d44:	fe 85       	ldd	r31, Y+14	; 0x0e
    2d46:	e5 5e       	subi	r30, 0xE5	; 229
    2d48:	fd 4f       	sbci	r31, 0xFD	; 253
    2d4a:	30 81       	ld	r19, Z
    2d4c:	20 e0       	ldi	r18, 0x00	; 0
    2d4e:	40 e0       	ldi	r20, 0x00	; 0
    2d50:	50 e0       	ldi	r21, 0x00	; 0
    2d52:	82 2b       	or	r24, r18
    2d54:	93 2b       	or	r25, r19
    2d56:	a4 2b       	or	r26, r20
    2d58:	b5 2b       	or	r27, r21
    2d5a:	ed 85       	ldd	r30, Y+13	; 0x0d
    2d5c:	fe 85       	ldd	r31, Y+14	; 0x0e
    2d5e:	82 87       	std	Z+10, r24	; 0x0a
    2d60:	93 87       	std	Z+11, r25	; 0x0b
    2d62:	a4 87       	std	Z+12, r26	; 0x0c
    2d64:	b5 87       	std	Z+13, r27	; 0x0d
    2d66:	e7 5e       	subi	r30, 0xE7	; 231
    2d68:	fd 4f       	sbci	r31, 0xFD	; 253
    2d6a:	80 81       	ld	r24, Z
    2d6c:	90 e0       	ldi	r25, 0x00	; 0
    2d6e:	a0 e0       	ldi	r26, 0x00	; 0
    2d70:	b0 e0       	ldi	r27, 0x00	; 0
    2d72:	b8 2f       	mov	r27, r24
    2d74:	aa 27       	eor	r26, r26
    2d76:	99 27       	eor	r25, r25
    2d78:	88 27       	eor	r24, r24
    2d7a:	ed 85       	ldd	r30, Y+13	; 0x0d
    2d7c:	fe 85       	ldd	r31, Y+14	; 0x0e
    2d7e:	e8 5e       	subi	r30, 0xE8	; 232
    2d80:	fd 4f       	sbci	r31, 0xFD	; 253
    2d82:	20 81       	ld	r18, Z
    2d84:	30 e0       	ldi	r19, 0x00	; 0
    2d86:	40 e0       	ldi	r20, 0x00	; 0
    2d88:	50 e0       	ldi	r21, 0x00	; 0
    2d8a:	a9 01       	movw	r20, r18
    2d8c:	33 27       	eor	r19, r19
    2d8e:	22 27       	eor	r18, r18
    2d90:	82 2b       	or	r24, r18
    2d92:	93 2b       	or	r25, r19
    2d94:	a4 2b       	or	r26, r20
    2d96:	b5 2b       	or	r27, r21
    2d98:	ed 85       	ldd	r30, Y+13	; 0x0d
    2d9a:	fe 85       	ldd	r31, Y+14	; 0x0e
    2d9c:	ea 5e       	subi	r30, 0xEA	; 234
    2d9e:	fd 4f       	sbci	r31, 0xFD	; 253
    2da0:	20 81       	ld	r18, Z
    2da2:	30 e0       	ldi	r19, 0x00	; 0
    2da4:	40 e0       	ldi	r20, 0x00	; 0
    2da6:	50 e0       	ldi	r21, 0x00	; 0
    2da8:	82 2b       	or	r24, r18
    2daa:	93 2b       	or	r25, r19
    2dac:	a4 2b       	or	r26, r20
    2dae:	b5 2b       	or	r27, r21
    2db0:	ed 85       	ldd	r30, Y+13	; 0x0d
    2db2:	fe 85       	ldd	r31, Y+14	; 0x0e
    2db4:	e9 5e       	subi	r30, 0xE9	; 233
    2db6:	fd 4f       	sbci	r31, 0xFD	; 253
    2db8:	30 81       	ld	r19, Z
    2dba:	20 e0       	ldi	r18, 0x00	; 0
    2dbc:	40 e0       	ldi	r20, 0x00	; 0
    2dbe:	50 e0       	ldi	r21, 0x00	; 0
    2dc0:	82 2b       	or	r24, r18
    2dc2:	93 2b       	or	r25, r19
    2dc4:	a4 2b       	or	r26, r20
    2dc6:	b5 2b       	or	r27, r21
    2dc8:	ed 85       	ldd	r30, Y+13	; 0x0d
    2dca:	fe 85       	ldd	r31, Y+14	; 0x0e
    2dcc:	86 87       	std	Z+14, r24	; 0x0e
    2dce:	97 87       	std	Z+15, r25	; 0x0f
    2dd0:	a0 8b       	std	Z+16, r26	; 0x10
    2dd2:	b1 8b       	std	Z+17, r27	; 0x11
    2dd4:	ad 85       	ldd	r26, Y+13	; 0x0d
    2dd6:	be 85       	ldd	r27, Y+14	; 0x0e
    2dd8:	3c 92       	st	X, r3
    2dda:	80 91 30 02 	lds	r24, 0x0230
    2dde:	90 91 31 02 	lds	r25, 0x0231
    2de2:	01 96       	adiw	r24, 0x01	; 1
    2de4:	90 93 31 02 	sts	0x0231, r25
    2de8:	80 93 30 02 	sts	0x0230, r24
    2dec:	17 96       	adiw	r26, 0x07	; 7
    2dee:	9c 93       	st	X, r25
    2df0:	8e 93       	st	-X, r24
    2df2:	16 97       	sbiw	r26, 0x06	; 6
    2df4:	ed 85       	ldd	r30, Y+13	; 0x0d
    2df6:	fe 85       	ldd	r31, Y+14	; 0x0e
    2df8:	12 a6       	std	Z+42, r1	; 0x2a
    2dfa:	13 a6       	std	Z+43, r1	; 0x2b
    2dfc:	14 a6       	std	Z+44, r1	; 0x2c
    2dfe:	15 a6       	std	Z+45, r1	; 0x2d
    2e00:	14 82       	std	Z+4, r1	; 0x04
    2e02:	04 c0       	rjmp	.+8      	; 0x2e0c <chk_mounted+0x7be>
    2e04:	8b e0       	ldi	r24, 0x0B	; 11
    2e06:	0b c0       	rjmp	.+22     	; 0x2e1e <chk_mounted+0x7d0>
    2e08:	8c e0       	ldi	r24, 0x0C	; 12
    2e0a:	09 c0       	rjmp	.+18     	; 0x2e1e <chk_mounted+0x7d0>
    2e0c:	80 e0       	ldi	r24, 0x00	; 0
    2e0e:	07 c0       	rjmp	.+14     	; 0x2e1e <chk_mounted+0x7d0>
    2e10:	83 e0       	ldi	r24, 0x03	; 3
    2e12:	05 c0       	rjmp	.+10     	; 0x2e1e <chk_mounted+0x7d0>
    2e14:	8a e0       	ldi	r24, 0x0A	; 10
    2e16:	03 c0       	rjmp	.+6      	; 0x2e1e <chk_mounted+0x7d0>
    2e18:	81 e0       	ldi	r24, 0x01	; 1
    2e1a:	01 c0       	rjmp	.+2      	; 0x2e1e <chk_mounted+0x7d0>
    2e1c:	8d e0       	ldi	r24, 0x0D	; 13
    2e1e:	2e 96       	adiw	r28, 0x0e	; 14
    2e20:	0f b6       	in	r0, 0x3f	; 63
    2e22:	f8 94       	cli
    2e24:	de bf       	out	0x3e, r29	; 62
    2e26:	0f be       	out	0x3f, r0	; 63
    2e28:	cd bf       	out	0x3d, r28	; 61
    2e2a:	cf 91       	pop	r28
    2e2c:	df 91       	pop	r29
    2e2e:	1f 91       	pop	r17
    2e30:	0f 91       	pop	r16
    2e32:	ff 90       	pop	r15
    2e34:	ef 90       	pop	r14
    2e36:	df 90       	pop	r13
    2e38:	cf 90       	pop	r12
    2e3a:	bf 90       	pop	r11
    2e3c:	af 90       	pop	r10
    2e3e:	9f 90       	pop	r9
    2e40:	8f 90       	pop	r8
    2e42:	7f 90       	pop	r7
    2e44:	6f 90       	pop	r6
    2e46:	5f 90       	pop	r5
    2e48:	4f 90       	pop	r4
    2e4a:	3f 90       	pop	r3
    2e4c:	08 95       	ret

00002e4e <clust2sect>:
    2e4e:	cf 93       	push	r28
    2e50:	df 93       	push	r29
    2e52:	ec 01       	movw	r28, r24
    2e54:	cb 01       	movw	r24, r22
    2e56:	ba 01       	movw	r22, r20
    2e58:	62 50       	subi	r22, 0x02	; 2
    2e5a:	70 40       	sbci	r23, 0x00	; 0
    2e5c:	80 40       	sbci	r24, 0x00	; 0
    2e5e:	90 40       	sbci	r25, 0x00	; 0
    2e60:	2e 89       	ldd	r18, Y+22	; 0x16
    2e62:	3f 89       	ldd	r19, Y+23	; 0x17
    2e64:	48 8d       	ldd	r20, Y+24	; 0x18
    2e66:	59 8d       	ldd	r21, Y+25	; 0x19
    2e68:	22 50       	subi	r18, 0x02	; 2
    2e6a:	30 40       	sbci	r19, 0x00	; 0
    2e6c:	40 40       	sbci	r20, 0x00	; 0
    2e6e:	50 40       	sbci	r21, 0x00	; 0
    2e70:	62 17       	cp	r22, r18
    2e72:	73 07       	cpc	r23, r19
    2e74:	84 07       	cpc	r24, r20
    2e76:	95 07       	cpc	r25, r21
    2e78:	88 f4       	brcc	.+34     	; 0x2e9c <clust2sect+0x4e>
    2e7a:	2a 81       	ldd	r18, Y+2	; 0x02
    2e7c:	30 e0       	ldi	r19, 0x00	; 0
    2e7e:	40 e0       	ldi	r20, 0x00	; 0
    2e80:	50 e0       	ldi	r21, 0x00	; 0
    2e82:	0e 94 b8 42 	call	0x8570	; 0x8570 <__mulsi3>
    2e86:	9b 01       	movw	r18, r22
    2e88:	ac 01       	movw	r20, r24
    2e8a:	8e a1       	ldd	r24, Y+38	; 0x26
    2e8c:	9f a1       	ldd	r25, Y+39	; 0x27
    2e8e:	a8 a5       	ldd	r26, Y+40	; 0x28
    2e90:	b9 a5       	ldd	r27, Y+41	; 0x29
    2e92:	28 0f       	add	r18, r24
    2e94:	39 1f       	adc	r19, r25
    2e96:	4a 1f       	adc	r20, r26
    2e98:	5b 1f       	adc	r21, r27
    2e9a:	03 c0       	rjmp	.+6      	; 0x2ea2 <clust2sect+0x54>
    2e9c:	20 e0       	ldi	r18, 0x00	; 0
    2e9e:	30 e0       	ldi	r19, 0x00	; 0
    2ea0:	a9 01       	movw	r20, r18
    2ea2:	b9 01       	movw	r22, r18
    2ea4:	ca 01       	movw	r24, r20
    2ea6:	df 91       	pop	r29
    2ea8:	cf 91       	pop	r28
    2eaa:	08 95       	ret

00002eac <get_fat>:
    2eac:	bf 92       	push	r11
    2eae:	cf 92       	push	r12
    2eb0:	df 92       	push	r13
    2eb2:	ef 92       	push	r14
    2eb4:	ff 92       	push	r15
    2eb6:	0f 93       	push	r16
    2eb8:	1f 93       	push	r17
    2eba:	cf 93       	push	r28
    2ebc:	df 93       	push	r29
    2ebe:	ec 01       	movw	r28, r24
    2ec0:	6a 01       	movw	r12, r20
    2ec2:	7b 01       	movw	r14, r22
    2ec4:	42 30       	cpi	r20, 0x02	; 2
    2ec6:	51 05       	cpc	r21, r1
    2ec8:	61 05       	cpc	r22, r1
    2eca:	71 05       	cpc	r23, r1
    2ecc:	08 f4       	brcc	.+2      	; 0x2ed0 <get_fat+0x24>
    2ece:	ca c0       	rjmp	.+404    	; 0x3064 <get_fat+0x1b8>
    2ed0:	8e 89       	ldd	r24, Y+22	; 0x16
    2ed2:	9f 89       	ldd	r25, Y+23	; 0x17
    2ed4:	a8 8d       	ldd	r26, Y+24	; 0x18
    2ed6:	b9 8d       	ldd	r27, Y+25	; 0x19
    2ed8:	48 17       	cp	r20, r24
    2eda:	59 07       	cpc	r21, r25
    2edc:	6a 07       	cpc	r22, r26
    2ede:	7b 07       	cpc	r23, r27
    2ee0:	08 f0       	brcs	.+2      	; 0x2ee4 <get_fat+0x38>
    2ee2:	c0 c0       	rjmp	.+384    	; 0x3064 <get_fat+0x1b8>
    2ee4:	88 81       	ld	r24, Y
    2ee6:	82 30       	cpi	r24, 0x02	; 2
    2ee8:	09 f4       	brne	.+2      	; 0x2eec <get_fat+0x40>
    2eea:	55 c0       	rjmp	.+170    	; 0x2f96 <get_fat+0xea>
    2eec:	83 30       	cpi	r24, 0x03	; 3
    2eee:	09 f4       	brne	.+2      	; 0x2ef2 <get_fat+0x46>
    2ef0:	74 c0       	rjmp	.+232    	; 0x2fda <get_fat+0x12e>
    2ef2:	81 30       	cpi	r24, 0x01	; 1
    2ef4:	09 f0       	breq	.+2      	; 0x2ef8 <get_fat+0x4c>
    2ef6:	bb c0       	rjmp	.+374    	; 0x306e <get_fat+0x1c2>
    2ef8:	8a 01       	movw	r16, r20
    2efa:	16 95       	lsr	r17
    2efc:	07 95       	ror	r16
    2efe:	04 0f       	add	r16, r20
    2f00:	15 1f       	adc	r17, r21
    2f02:	a8 01       	movw	r20, r16
    2f04:	45 2f       	mov	r20, r21
    2f06:	55 27       	eor	r21, r21
    2f08:	46 95       	lsr	r20
    2f0a:	60 e0       	ldi	r22, 0x00	; 0
    2f0c:	70 e0       	ldi	r23, 0x00	; 0
    2f0e:	8e 8d       	ldd	r24, Y+30	; 0x1e
    2f10:	9f 8d       	ldd	r25, Y+31	; 0x1f
    2f12:	a8 a1       	ldd	r26, Y+32	; 0x20
    2f14:	b9 a1       	ldd	r27, Y+33	; 0x21
    2f16:	48 0f       	add	r20, r24
    2f18:	59 1f       	adc	r21, r25
    2f1a:	6a 1f       	adc	r22, r26
    2f1c:	7b 1f       	adc	r23, r27
    2f1e:	ce 01       	movw	r24, r28
    2f20:	0e 94 13 12 	call	0x2426	; 0x2426 <move_window>
    2f24:	88 23       	and	r24, r24
    2f26:	09 f0       	breq	.+2      	; 0x2f2a <get_fat+0x7e>
    2f28:	a2 c0       	rjmp	.+324    	; 0x306e <get_fat+0x1c2>
    2f2a:	f8 01       	movw	r30, r16
    2f2c:	f1 70       	andi	r31, 0x01	; 1
    2f2e:	ec 0f       	add	r30, r28
    2f30:	fd 1f       	adc	r31, r29
    2f32:	b6 a4       	ldd	r11, Z+46	; 0x2e
    2f34:	0f 5f       	subi	r16, 0xFF	; 255
    2f36:	1f 4f       	sbci	r17, 0xFF	; 255
    2f38:	a8 01       	movw	r20, r16
    2f3a:	45 2f       	mov	r20, r21
    2f3c:	55 27       	eor	r21, r21
    2f3e:	46 95       	lsr	r20
    2f40:	60 e0       	ldi	r22, 0x00	; 0
    2f42:	70 e0       	ldi	r23, 0x00	; 0
    2f44:	8e 8d       	ldd	r24, Y+30	; 0x1e
    2f46:	9f 8d       	ldd	r25, Y+31	; 0x1f
    2f48:	a8 a1       	ldd	r26, Y+32	; 0x20
    2f4a:	b9 a1       	ldd	r27, Y+33	; 0x21
    2f4c:	48 0f       	add	r20, r24
    2f4e:	59 1f       	adc	r21, r25
    2f50:	6a 1f       	adc	r22, r26
    2f52:	7b 1f       	adc	r23, r27
    2f54:	ce 01       	movw	r24, r28
    2f56:	0e 94 13 12 	call	0x2426	; 0x2426 <move_window>
    2f5a:	88 23       	and	r24, r24
    2f5c:	09 f0       	breq	.+2      	; 0x2f60 <get_fat+0xb4>
    2f5e:	87 c0       	rjmp	.+270    	; 0x306e <get_fat+0x1c2>
    2f60:	2b 2d       	mov	r18, r11
    2f62:	30 e0       	ldi	r19, 0x00	; 0
    2f64:	11 70       	andi	r17, 0x01	; 1
    2f66:	0c 0f       	add	r16, r28
    2f68:	1d 1f       	adc	r17, r29
    2f6a:	f8 01       	movw	r30, r16
    2f6c:	96 a5       	ldd	r25, Z+46	; 0x2e
    2f6e:	80 e0       	ldi	r24, 0x00	; 0
    2f70:	28 2b       	or	r18, r24
    2f72:	39 2b       	or	r19, r25
    2f74:	e6 01       	movw	r28, r12
    2f76:	c1 70       	andi	r28, 0x01	; 1
    2f78:	d0 70       	andi	r29, 0x00	; 0
    2f7a:	20 97       	sbiw	r28, 0x00	; 0
    2f7c:	31 f0       	breq	.+12     	; 0x2f8a <get_fat+0xde>
    2f7e:	44 e0       	ldi	r20, 0x04	; 4
    2f80:	36 95       	lsr	r19
    2f82:	27 95       	ror	r18
    2f84:	4a 95       	dec	r20
    2f86:	e1 f7       	brne	.-8      	; 0x2f80 <get_fat+0xd4>
    2f88:	25 c0       	rjmp	.+74     	; 0x2fd4 <get_fat+0x128>
    2f8a:	40 e0       	ldi	r20, 0x00	; 0
    2f8c:	50 e0       	ldi	r21, 0x00	; 0
    2f8e:	3f 70       	andi	r19, 0x0F	; 15
    2f90:	40 70       	andi	r20, 0x00	; 0
    2f92:	50 70       	andi	r21, 0x00	; 0
    2f94:	6f c0       	rjmp	.+222    	; 0x3074 <get_fat+0x1c8>
    2f96:	45 2f       	mov	r20, r21
    2f98:	56 2f       	mov	r21, r22
    2f9a:	67 2f       	mov	r22, r23
    2f9c:	77 27       	eor	r23, r23
    2f9e:	8e 8d       	ldd	r24, Y+30	; 0x1e
    2fa0:	9f 8d       	ldd	r25, Y+31	; 0x1f
    2fa2:	a8 a1       	ldd	r26, Y+32	; 0x20
    2fa4:	b9 a1       	ldd	r27, Y+33	; 0x21
    2fa6:	48 0f       	add	r20, r24
    2fa8:	59 1f       	adc	r21, r25
    2faa:	6a 1f       	adc	r22, r26
    2fac:	7b 1f       	adc	r23, r27
    2fae:	ce 01       	movw	r24, r28
    2fb0:	0e 94 13 12 	call	0x2426	; 0x2426 <move_window>
    2fb4:	88 23       	and	r24, r24
    2fb6:	09 f0       	breq	.+2      	; 0x2fba <get_fat+0x10e>
    2fb8:	5a c0       	rjmp	.+180    	; 0x306e <get_fat+0x1c2>
    2fba:	b6 01       	movw	r22, r12
    2fbc:	66 0f       	add	r22, r22
    2fbe:	77 1f       	adc	r23, r23
    2fc0:	71 70       	andi	r23, 0x01	; 1
    2fc2:	fe 01       	movw	r30, r28
    2fc4:	e6 0f       	add	r30, r22
    2fc6:	f7 1f       	adc	r31, r23
    2fc8:	26 a5       	ldd	r18, Z+46	; 0x2e
    2fca:	30 e0       	ldi	r19, 0x00	; 0
    2fcc:	97 a5       	ldd	r25, Z+47	; 0x2f
    2fce:	80 e0       	ldi	r24, 0x00	; 0
    2fd0:	28 2b       	or	r18, r24
    2fd2:	39 2b       	or	r19, r25
    2fd4:	40 e0       	ldi	r20, 0x00	; 0
    2fd6:	50 e0       	ldi	r21, 0x00	; 0
    2fd8:	4d c0       	rjmp	.+154    	; 0x3074 <get_fat+0x1c8>
    2fda:	97 e0       	ldi	r25, 0x07	; 7
    2fdc:	76 95       	lsr	r23
    2fde:	67 95       	ror	r22
    2fe0:	57 95       	ror	r21
    2fe2:	47 95       	ror	r20
    2fe4:	9a 95       	dec	r25
    2fe6:	d1 f7       	brne	.-12     	; 0x2fdc <get_fat+0x130>
    2fe8:	8e 8d       	ldd	r24, Y+30	; 0x1e
    2fea:	9f 8d       	ldd	r25, Y+31	; 0x1f
    2fec:	a8 a1       	ldd	r26, Y+32	; 0x20
    2fee:	b9 a1       	ldd	r27, Y+33	; 0x21
    2ff0:	48 0f       	add	r20, r24
    2ff2:	59 1f       	adc	r21, r25
    2ff4:	6a 1f       	adc	r22, r26
    2ff6:	7b 1f       	adc	r23, r27
    2ff8:	ce 01       	movw	r24, r28
    2ffa:	0e 94 13 12 	call	0x2426	; 0x2426 <move_window>
    2ffe:	88 23       	and	r24, r24
    3000:	b1 f5       	brne	.+108    	; 0x306e <get_fat+0x1c2>
    3002:	b6 01       	movw	r22, r12
    3004:	66 0f       	add	r22, r22
    3006:	77 1f       	adc	r23, r23
    3008:	66 0f       	add	r22, r22
    300a:	77 1f       	adc	r23, r23
    300c:	71 70       	andi	r23, 0x01	; 1
    300e:	fb 01       	movw	r30, r22
    3010:	be 96       	adiw	r30, 0x2e	; 46
    3012:	ec 0f       	add	r30, r28
    3014:	fd 1f       	adc	r31, r29
    3016:	22 81       	ldd	r18, Z+2	; 0x02
    3018:	30 e0       	ldi	r19, 0x00	; 0
    301a:	40 e0       	ldi	r20, 0x00	; 0
    301c:	50 e0       	ldi	r21, 0x00	; 0
    301e:	a9 01       	movw	r20, r18
    3020:	33 27       	eor	r19, r19
    3022:	22 27       	eor	r18, r18
    3024:	83 81       	ldd	r24, Z+3	; 0x03
    3026:	90 e0       	ldi	r25, 0x00	; 0
    3028:	a0 e0       	ldi	r26, 0x00	; 0
    302a:	b0 e0       	ldi	r27, 0x00	; 0
    302c:	b8 2f       	mov	r27, r24
    302e:	aa 27       	eor	r26, r26
    3030:	99 27       	eor	r25, r25
    3032:	88 27       	eor	r24, r24
    3034:	28 2b       	or	r18, r24
    3036:	39 2b       	or	r19, r25
    3038:	4a 2b       	or	r20, r26
    303a:	5b 2b       	or	r21, r27
    303c:	91 81       	ldd	r25, Z+1	; 0x01
    303e:	80 e0       	ldi	r24, 0x00	; 0
    3040:	a0 e0       	ldi	r26, 0x00	; 0
    3042:	b0 e0       	ldi	r27, 0x00	; 0
    3044:	28 2b       	or	r18, r24
    3046:	39 2b       	or	r19, r25
    3048:	4a 2b       	or	r20, r26
    304a:	5b 2b       	or	r21, r27
    304c:	c6 0f       	add	r28, r22
    304e:	d7 1f       	adc	r29, r23
    3050:	8e a5       	ldd	r24, Y+46	; 0x2e
    3052:	90 e0       	ldi	r25, 0x00	; 0
    3054:	a0 e0       	ldi	r26, 0x00	; 0
    3056:	b0 e0       	ldi	r27, 0x00	; 0
    3058:	28 2b       	or	r18, r24
    305a:	39 2b       	or	r19, r25
    305c:	4a 2b       	or	r20, r26
    305e:	5b 2b       	or	r21, r27
    3060:	5f 70       	andi	r21, 0x0F	; 15
    3062:	08 c0       	rjmp	.+16     	; 0x3074 <get_fat+0x1c8>
    3064:	21 e0       	ldi	r18, 0x01	; 1
    3066:	30 e0       	ldi	r19, 0x00	; 0
    3068:	40 e0       	ldi	r20, 0x00	; 0
    306a:	50 e0       	ldi	r21, 0x00	; 0
    306c:	03 c0       	rjmp	.+6      	; 0x3074 <get_fat+0x1c8>
    306e:	2f ef       	ldi	r18, 0xFF	; 255
    3070:	3f ef       	ldi	r19, 0xFF	; 255
    3072:	a9 01       	movw	r20, r18
    3074:	b9 01       	movw	r22, r18
    3076:	ca 01       	movw	r24, r20
    3078:	df 91       	pop	r29
    307a:	cf 91       	pop	r28
    307c:	1f 91       	pop	r17
    307e:	0f 91       	pop	r16
    3080:	ff 90       	pop	r15
    3082:	ef 90       	pop	r14
    3084:	df 90       	pop	r13
    3086:	cf 90       	pop	r12
    3088:	bf 90       	pop	r11
    308a:	08 95       	ret

0000308c <dir_sdi.clone.1>:
    308c:	0f 93       	push	r16
    308e:	1f 93       	push	r17
    3090:	cf 93       	push	r28
    3092:	df 93       	push	r29
    3094:	ec 01       	movw	r28, r24
    3096:	1d 82       	std	Y+5, r1	; 0x05
    3098:	1c 82       	std	Y+4, r1	; 0x04
    309a:	4e 81       	ldd	r20, Y+6	; 0x06
    309c:	5f 81       	ldd	r21, Y+7	; 0x07
    309e:	68 85       	ldd	r22, Y+8	; 0x08
    30a0:	79 85       	ldd	r23, Y+9	; 0x09
    30a2:	41 30       	cpi	r20, 0x01	; 1
    30a4:	51 05       	cpc	r21, r1
    30a6:	61 05       	cpc	r22, r1
    30a8:	71 05       	cpc	r23, r1
    30aa:	09 f4       	brne	.+2      	; 0x30ae <dir_sdi.clone.1+0x22>
    30ac:	67 c0       	rjmp	.+206    	; 0x317c <dir_sdi.clone.1+0xf0>
    30ae:	08 81       	ld	r16, Y
    30b0:	19 81       	ldd	r17, Y+1	; 0x01
    30b2:	f8 01       	movw	r30, r16
    30b4:	86 89       	ldd	r24, Z+22	; 0x16
    30b6:	97 89       	ldd	r25, Z+23	; 0x17
    30b8:	a0 8d       	ldd	r26, Z+24	; 0x18
    30ba:	b1 8d       	ldd	r27, Z+25	; 0x19
    30bc:	48 17       	cp	r20, r24
    30be:	59 07       	cpc	r21, r25
    30c0:	6a 07       	cpc	r22, r26
    30c2:	7b 07       	cpc	r23, r27
    30c4:	08 f0       	brcs	.+2      	; 0x30c8 <dir_sdi.clone.1+0x3c>
    30c6:	5a c0       	rjmp	.+180    	; 0x317c <dir_sdi.clone.1+0xf0>
    30c8:	41 15       	cp	r20, r1
    30ca:	51 05       	cpc	r21, r1
    30cc:	61 05       	cpc	r22, r1
    30ce:	71 05       	cpc	r23, r1
    30d0:	f9 f4       	brne	.+62     	; 0x3110 <dir_sdi.clone.1+0x84>
    30d2:	80 81       	ld	r24, Z
    30d4:	83 30       	cpi	r24, 0x03	; 3
    30d6:	49 f4       	brne	.+18     	; 0x30ea <dir_sdi.clone.1+0x5e>
    30d8:	42 a1       	ldd	r20, Z+34	; 0x22
    30da:	53 a1       	ldd	r21, Z+35	; 0x23
    30dc:	64 a1       	ldd	r22, Z+36	; 0x24
    30de:	75 a1       	ldd	r23, Z+37	; 0x25
    30e0:	41 15       	cp	r20, r1
    30e2:	51 05       	cpc	r21, r1
    30e4:	61 05       	cpc	r22, r1
    30e6:	71 05       	cpc	r23, r1
    30e8:	99 f4       	brne	.+38     	; 0x3110 <dir_sdi.clone.1+0x84>
    30ea:	1a 86       	std	Y+10, r1	; 0x0a
    30ec:	1b 86       	std	Y+11, r1	; 0x0b
    30ee:	1c 86       	std	Y+12, r1	; 0x0c
    30f0:	1d 86       	std	Y+13, r1	; 0x0d
    30f2:	f8 01       	movw	r30, r16
    30f4:	80 85       	ldd	r24, Z+8	; 0x08
    30f6:	91 85       	ldd	r25, Z+9	; 0x09
    30f8:	00 97       	sbiw	r24, 0x00	; 0
    30fa:	09 f4       	brne	.+2      	; 0x30fe <dir_sdi.clone.1+0x72>
    30fc:	3f c0       	rjmp	.+126    	; 0x317c <dir_sdi.clone.1+0xf0>
    30fe:	82 a1       	ldd	r24, Z+34	; 0x22
    3100:	93 a1       	ldd	r25, Z+35	; 0x23
    3102:	a4 a1       	ldd	r26, Z+36	; 0x24
    3104:	b5 a1       	ldd	r27, Z+37	; 0x25
    3106:	8e 87       	std	Y+14, r24	; 0x0e
    3108:	9f 87       	std	Y+15, r25	; 0x0f
    310a:	a8 8b       	std	Y+16, r26	; 0x10
    310c:	b9 8b       	std	Y+17, r27	; 0x11
    310e:	2e c0       	rjmp	.+92     	; 0x316c <dir_sdi.clone.1+0xe0>
    3110:	f8 01       	movw	r30, r16
    3112:	82 81       	ldd	r24, Z+2	; 0x02
    3114:	88 23       	and	r24, r24
    3116:	f9 f4       	brne	.+62     	; 0x3156 <dir_sdi.clone.1+0xca>
    3118:	88 81       	ld	r24, Y
    311a:	99 81       	ldd	r25, Y+1	; 0x01
    311c:	0e 94 56 17 	call	0x2eac	; 0x2eac <get_fat>
    3120:	ab 01       	movw	r20, r22
    3122:	bc 01       	movw	r22, r24
    3124:	4f 3f       	cpi	r20, 0xFF	; 255
    3126:	ff ef       	ldi	r31, 0xFF	; 255
    3128:	5f 07       	cpc	r21, r31
    312a:	ff ef       	ldi	r31, 0xFF	; 255
    312c:	6f 07       	cpc	r22, r31
    312e:	ff ef       	ldi	r31, 0xFF	; 255
    3130:	7f 07       	cpc	r23, r31
    3132:	11 f1       	breq	.+68     	; 0x3178 <dir_sdi.clone.1+0xec>
    3134:	42 30       	cpi	r20, 0x02	; 2
    3136:	51 05       	cpc	r21, r1
    3138:	61 05       	cpc	r22, r1
    313a:	71 05       	cpc	r23, r1
    313c:	f8 f0       	brcs	.+62     	; 0x317c <dir_sdi.clone.1+0xf0>
    313e:	e8 81       	ld	r30, Y
    3140:	f9 81       	ldd	r31, Y+1	; 0x01
    3142:	86 89       	ldd	r24, Z+22	; 0x16
    3144:	97 89       	ldd	r25, Z+23	; 0x17
    3146:	a0 8d       	ldd	r26, Z+24	; 0x18
    3148:	b1 8d       	ldd	r27, Z+25	; 0x19
    314a:	48 17       	cp	r20, r24
    314c:	59 07       	cpc	r21, r25
    314e:	6a 07       	cpc	r22, r26
    3150:	7b 07       	cpc	r23, r27
    3152:	10 f3       	brcs	.-60     	; 0x3118 <dir_sdi.clone.1+0x8c>
    3154:	13 c0       	rjmp	.+38     	; 0x317c <dir_sdi.clone.1+0xf0>
    3156:	4a 87       	std	Y+10, r20	; 0x0a
    3158:	5b 87       	std	Y+11, r21	; 0x0b
    315a:	6c 87       	std	Y+12, r22	; 0x0c
    315c:	7d 87       	std	Y+13, r23	; 0x0d
    315e:	c8 01       	movw	r24, r16
    3160:	0e 94 27 17 	call	0x2e4e	; 0x2e4e <clust2sect>
    3164:	6e 87       	std	Y+14, r22	; 0x0e
    3166:	7f 87       	std	Y+15, r23	; 0x0f
    3168:	88 8b       	std	Y+16, r24	; 0x10
    316a:	99 8b       	std	Y+17, r25	; 0x11
    316c:	02 5d       	subi	r16, 0xD2	; 210
    316e:	1f 4f       	sbci	r17, 0xFF	; 255
    3170:	1b 8b       	std	Y+19, r17	; 0x13
    3172:	0a 8b       	std	Y+18, r16	; 0x12
    3174:	80 e0       	ldi	r24, 0x00	; 0
    3176:	03 c0       	rjmp	.+6      	; 0x317e <dir_sdi.clone.1+0xf2>
    3178:	81 e0       	ldi	r24, 0x01	; 1
    317a:	01 c0       	rjmp	.+2      	; 0x317e <dir_sdi.clone.1+0xf2>
    317c:	82 e0       	ldi	r24, 0x02	; 2
    317e:	df 91       	pop	r29
    3180:	cf 91       	pop	r28
    3182:	1f 91       	pop	r17
    3184:	0f 91       	pop	r16
    3186:	08 95       	ret

00003188 <put_fat>:
    3188:	8f 92       	push	r8
    318a:	9f 92       	push	r9
    318c:	af 92       	push	r10
    318e:	bf 92       	push	r11
    3190:	cf 92       	push	r12
    3192:	df 92       	push	r13
    3194:	ef 92       	push	r14
    3196:	ff 92       	push	r15
    3198:	0f 93       	push	r16
    319a:	1f 93       	push	r17
    319c:	cf 93       	push	r28
    319e:	df 93       	push	r29
    31a0:	ec 01       	movw	r28, r24
    31a2:	6a 01       	movw	r12, r20
    31a4:	7b 01       	movw	r14, r22
    31a6:	48 01       	movw	r8, r16
    31a8:	59 01       	movw	r10, r18
    31aa:	42 30       	cpi	r20, 0x02	; 2
    31ac:	51 05       	cpc	r21, r1
    31ae:	61 05       	cpc	r22, r1
    31b0:	71 05       	cpc	r23, r1
    31b2:	08 f4       	brcc	.+2      	; 0x31b6 <put_fat+0x2e>
    31b4:	d0 c0       	rjmp	.+416    	; 0x3356 <put_fat+0x1ce>
    31b6:	8e 89       	ldd	r24, Y+22	; 0x16
    31b8:	9f 89       	ldd	r25, Y+23	; 0x17
    31ba:	a8 8d       	ldd	r26, Y+24	; 0x18
    31bc:	b9 8d       	ldd	r27, Y+25	; 0x19
    31be:	48 17       	cp	r20, r24
    31c0:	59 07       	cpc	r21, r25
    31c2:	6a 07       	cpc	r22, r26
    31c4:	7b 07       	cpc	r23, r27
    31c6:	08 f0       	brcs	.+2      	; 0x31ca <put_fat+0x42>
    31c8:	c6 c0       	rjmp	.+396    	; 0x3356 <put_fat+0x1ce>
    31ca:	88 81       	ld	r24, Y
    31cc:	82 30       	cpi	r24, 0x02	; 2
    31ce:	09 f4       	brne	.+2      	; 0x31d2 <put_fat+0x4a>
    31d0:	6a c0       	rjmp	.+212    	; 0x32a6 <put_fat+0x11e>
    31d2:	83 30       	cpi	r24, 0x03	; 3
    31d4:	09 f4       	brne	.+2      	; 0x31d8 <put_fat+0x50>
    31d6:	83 c0       	rjmp	.+262    	; 0x32de <put_fat+0x156>
    31d8:	81 30       	cpi	r24, 0x01	; 1
    31da:	09 f0       	breq	.+2      	; 0x31de <put_fat+0x56>
    31dc:	b8 c0       	rjmp	.+368    	; 0x334e <put_fat+0x1c6>
    31de:	8a 01       	movw	r16, r20
    31e0:	16 95       	lsr	r17
    31e2:	07 95       	ror	r16
    31e4:	0c 0d       	add	r16, r12
    31e6:	1d 1d       	adc	r17, r13
    31e8:	a8 01       	movw	r20, r16
    31ea:	45 2f       	mov	r20, r21
    31ec:	55 27       	eor	r21, r21
    31ee:	46 95       	lsr	r20
    31f0:	60 e0       	ldi	r22, 0x00	; 0
    31f2:	70 e0       	ldi	r23, 0x00	; 0
    31f4:	8e 8d       	ldd	r24, Y+30	; 0x1e
    31f6:	9f 8d       	ldd	r25, Y+31	; 0x1f
    31f8:	a8 a1       	ldd	r26, Y+32	; 0x20
    31fa:	b9 a1       	ldd	r27, Y+33	; 0x21
    31fc:	48 0f       	add	r20, r24
    31fe:	59 1f       	adc	r21, r25
    3200:	6a 1f       	adc	r22, r26
    3202:	7b 1f       	adc	r23, r27
    3204:	ce 01       	movw	r24, r28
    3206:	0e 94 13 12 	call	0x2426	; 0x2426 <move_window>
    320a:	88 23       	and	r24, r24
    320c:	09 f0       	breq	.+2      	; 0x3210 <put_fat+0x88>
    320e:	a0 c0       	rjmp	.+320    	; 0x3350 <put_fat+0x1c8>
    3210:	c8 01       	movw	r24, r16
    3212:	91 70       	andi	r25, 0x01	; 1
    3214:	a1 e0       	ldi	r26, 0x01	; 1
    3216:	ca 22       	and	r12, r26
    3218:	dd 24       	eor	r13, r13
    321a:	c1 14       	cp	r12, r1
    321c:	d1 04       	cpc	r13, r1
    321e:	51 f0       	breq	.+20     	; 0x3234 <put_fat+0xac>
    3220:	fe 01       	movw	r30, r28
    3222:	e8 0f       	add	r30, r24
    3224:	f9 1f       	adc	r31, r25
    3226:	36 a5       	ldd	r19, Z+46	; 0x2e
    3228:	3f 70       	andi	r19, 0x0F	; 15
    322a:	28 2d       	mov	r18, r8
    322c:	22 95       	swap	r18
    322e:	20 7f       	andi	r18, 0xF0	; 240
    3230:	23 2b       	or	r18, r19
    3232:	01 c0       	rjmp	.+2      	; 0x3236 <put_fat+0xae>
    3234:	28 2d       	mov	r18, r8
    3236:	8c 0f       	add	r24, r28
    3238:	9d 1f       	adc	r25, r29
    323a:	fc 01       	movw	r30, r24
    323c:	26 a7       	std	Z+46, r18	; 0x2e
    323e:	0f 5f       	subi	r16, 0xFF	; 255
    3240:	1f 4f       	sbci	r17, 0xFF	; 255
    3242:	81 e0       	ldi	r24, 0x01	; 1
    3244:	8c 83       	std	Y+4, r24	; 0x04
    3246:	a8 01       	movw	r20, r16
    3248:	45 2f       	mov	r20, r21
    324a:	55 27       	eor	r21, r21
    324c:	46 95       	lsr	r20
    324e:	60 e0       	ldi	r22, 0x00	; 0
    3250:	70 e0       	ldi	r23, 0x00	; 0
    3252:	8e 8d       	ldd	r24, Y+30	; 0x1e
    3254:	9f 8d       	ldd	r25, Y+31	; 0x1f
    3256:	a8 a1       	ldd	r26, Y+32	; 0x20
    3258:	b9 a1       	ldd	r27, Y+33	; 0x21
    325a:	48 0f       	add	r20, r24
    325c:	59 1f       	adc	r21, r25
    325e:	6a 1f       	adc	r22, r26
    3260:	7b 1f       	adc	r23, r27
    3262:	ce 01       	movw	r24, r28
    3264:	0e 94 13 12 	call	0x2426	; 0x2426 <move_window>
    3268:	88 23       	and	r24, r24
    326a:	09 f0       	breq	.+2      	; 0x326e <put_fat+0xe6>
    326c:	71 c0       	rjmp	.+226    	; 0x3350 <put_fat+0x1c8>
    326e:	11 70       	andi	r17, 0x01	; 1
    3270:	c1 14       	cp	r12, r1
    3272:	d1 04       	cpc	r13, r1
    3274:	49 f0       	breq	.+18     	; 0x3288 <put_fat+0x100>
    3276:	94 e0       	ldi	r25, 0x04	; 4
    3278:	b6 94       	lsr	r11
    327a:	a7 94       	ror	r10
    327c:	97 94       	ror	r9
    327e:	87 94       	ror	r8
    3280:	9a 95       	dec	r25
    3282:	d1 f7       	brne	.-12     	; 0x3278 <put_fat+0xf0>
    3284:	98 2d       	mov	r25, r8
    3286:	08 c0       	rjmp	.+16     	; 0x3298 <put_fat+0x110>
    3288:	fe 01       	movw	r30, r28
    328a:	e0 0f       	add	r30, r16
    328c:	f1 1f       	adc	r31, r17
    328e:	96 a5       	ldd	r25, Z+46	; 0x2e
    3290:	90 7f       	andi	r25, 0xF0	; 240
    3292:	29 2d       	mov	r18, r9
    3294:	2f 70       	andi	r18, 0x0F	; 15
    3296:	92 2b       	or	r25, r18
    3298:	0c 0f       	add	r16, r28
    329a:	1d 1f       	adc	r17, r29
    329c:	d8 01       	movw	r26, r16
    329e:	9e 96       	adiw	r26, 0x2e	; 46
    32a0:	9c 93       	st	X, r25
    32a2:	9e 97       	sbiw	r26, 0x2e	; 46
    32a4:	55 c0       	rjmp	.+170    	; 0x3350 <put_fat+0x1c8>
    32a6:	45 2f       	mov	r20, r21
    32a8:	56 2f       	mov	r21, r22
    32aa:	67 2f       	mov	r22, r23
    32ac:	77 27       	eor	r23, r23
    32ae:	8e 8d       	ldd	r24, Y+30	; 0x1e
    32b0:	9f 8d       	ldd	r25, Y+31	; 0x1f
    32b2:	a8 a1       	ldd	r26, Y+32	; 0x20
    32b4:	b9 a1       	ldd	r27, Y+33	; 0x21
    32b6:	48 0f       	add	r20, r24
    32b8:	59 1f       	adc	r21, r25
    32ba:	6a 1f       	adc	r22, r26
    32bc:	7b 1f       	adc	r23, r27
    32be:	ce 01       	movw	r24, r28
    32c0:	0e 94 13 12 	call	0x2426	; 0x2426 <move_window>
    32c4:	88 23       	and	r24, r24
    32c6:	09 f0       	breq	.+2      	; 0x32ca <put_fat+0x142>
    32c8:	43 c0       	rjmp	.+134    	; 0x3350 <put_fat+0x1c8>
    32ca:	96 01       	movw	r18, r12
    32cc:	22 0f       	add	r18, r18
    32ce:	33 1f       	adc	r19, r19
    32d0:	31 70       	andi	r19, 0x01	; 1
    32d2:	fe 01       	movw	r30, r28
    32d4:	e2 0f       	add	r30, r18
    32d6:	f3 1f       	adc	r31, r19
    32d8:	86 a6       	std	Z+46, r8	; 0x2e
    32da:	97 a6       	std	Z+47, r9	; 0x2f
    32dc:	39 c0       	rjmp	.+114    	; 0x3350 <put_fat+0x1c8>
    32de:	17 e0       	ldi	r17, 0x07	; 7
    32e0:	76 95       	lsr	r23
    32e2:	67 95       	ror	r22
    32e4:	57 95       	ror	r21
    32e6:	47 95       	ror	r20
    32e8:	1a 95       	dec	r17
    32ea:	d1 f7       	brne	.-12     	; 0x32e0 <put_fat+0x158>
    32ec:	8e 8d       	ldd	r24, Y+30	; 0x1e
    32ee:	9f 8d       	ldd	r25, Y+31	; 0x1f
    32f0:	a8 a1       	ldd	r26, Y+32	; 0x20
    32f2:	b9 a1       	ldd	r27, Y+33	; 0x21
    32f4:	48 0f       	add	r20, r24
    32f6:	59 1f       	adc	r21, r25
    32f8:	6a 1f       	adc	r22, r26
    32fa:	7b 1f       	adc	r23, r27
    32fc:	ce 01       	movw	r24, r28
    32fe:	0e 94 13 12 	call	0x2426	; 0x2426 <move_window>
    3302:	88 23       	and	r24, r24
    3304:	29 f5       	brne	.+74     	; 0x3350 <put_fat+0x1c8>
    3306:	b6 01       	movw	r22, r12
    3308:	66 0f       	add	r22, r22
    330a:	77 1f       	adc	r23, r23
    330c:	66 0f       	add	r22, r22
    330e:	77 1f       	adc	r23, r23
    3310:	71 70       	andi	r23, 0x01	; 1
    3312:	fb 01       	movw	r30, r22
    3314:	be 96       	adiw	r30, 0x2e	; 46
    3316:	ec 0f       	add	r30, r28
    3318:	fd 1f       	adc	r31, r29
    331a:	23 81       	ldd	r18, Z+3	; 0x03
    331c:	30 e0       	ldi	r19, 0x00	; 0
    331e:	40 e0       	ldi	r20, 0x00	; 0
    3320:	50 e0       	ldi	r21, 0x00	; 0
    3322:	52 2f       	mov	r21, r18
    3324:	44 27       	eor	r20, r20
    3326:	33 27       	eor	r19, r19
    3328:	22 27       	eor	r18, r18
    332a:	6c 0f       	add	r22, r28
    332c:	7d 1f       	adc	r23, r29
    332e:	20 70       	andi	r18, 0x00	; 0
    3330:	30 70       	andi	r19, 0x00	; 0
    3332:	40 70       	andi	r20, 0x00	; 0
    3334:	50 7f       	andi	r21, 0xF0	; 240
    3336:	28 29       	or	r18, r8
    3338:	39 29       	or	r19, r9
    333a:	4a 29       	or	r20, r10
    333c:	5b 29       	or	r21, r11
    333e:	db 01       	movw	r26, r22
    3340:	9e 96       	adiw	r26, 0x2e	; 46
    3342:	2c 93       	st	X, r18
    3344:	9e 97       	sbiw	r26, 0x2e	; 46
    3346:	31 83       	std	Z+1, r19	; 0x01
    3348:	42 83       	std	Z+2, r20	; 0x02
    334a:	53 83       	std	Z+3, r21	; 0x03
    334c:	01 c0       	rjmp	.+2      	; 0x3350 <put_fat+0x1c8>
    334e:	82 e0       	ldi	r24, 0x02	; 2
    3350:	91 e0       	ldi	r25, 0x01	; 1
    3352:	9c 83       	std	Y+4, r25	; 0x04
    3354:	01 c0       	rjmp	.+2      	; 0x3358 <put_fat+0x1d0>
    3356:	82 e0       	ldi	r24, 0x02	; 2
    3358:	df 91       	pop	r29
    335a:	cf 91       	pop	r28
    335c:	1f 91       	pop	r17
    335e:	0f 91       	pop	r16
    3360:	ff 90       	pop	r15
    3362:	ef 90       	pop	r14
    3364:	df 90       	pop	r13
    3366:	cf 90       	pop	r12
    3368:	bf 90       	pop	r11
    336a:	af 90       	pop	r10
    336c:	9f 90       	pop	r9
    336e:	8f 90       	pop	r8
    3370:	08 95       	ret

00003372 <create_chain>:
    3372:	4f 92       	push	r4
    3374:	5f 92       	push	r5
    3376:	6f 92       	push	r6
    3378:	7f 92       	push	r7
    337a:	8f 92       	push	r8
    337c:	9f 92       	push	r9
    337e:	af 92       	push	r10
    3380:	bf 92       	push	r11
    3382:	cf 92       	push	r12
    3384:	df 92       	push	r13
    3386:	ef 92       	push	r14
    3388:	ff 92       	push	r15
    338a:	0f 93       	push	r16
    338c:	1f 93       	push	r17
    338e:	cf 93       	push	r28
    3390:	df 93       	push	r29
    3392:	ec 01       	movw	r28, r24
    3394:	2a 01       	movw	r4, r20
    3396:	3b 01       	movw	r6, r22
    3398:	41 15       	cp	r20, r1
    339a:	51 05       	cpc	r21, r1
    339c:	61 05       	cpc	r22, r1
    339e:	71 05       	cpc	r23, r1
    33a0:	99 f4       	brne	.+38     	; 0x33c8 <create_chain+0x56>
    33a2:	8a 84       	ldd	r8, Y+10	; 0x0a
    33a4:	9b 84       	ldd	r9, Y+11	; 0x0b
    33a6:	ac 84       	ldd	r10, Y+12	; 0x0c
    33a8:	bd 84       	ldd	r11, Y+13	; 0x0d
    33aa:	81 14       	cp	r8, r1
    33ac:	91 04       	cpc	r9, r1
    33ae:	a1 04       	cpc	r10, r1
    33b0:	b1 04       	cpc	r11, r1
    33b2:	09 f1       	breq	.+66     	; 0x33f6 <create_chain+0x84>
    33b4:	8e 89       	ldd	r24, Y+22	; 0x16
    33b6:	9f 89       	ldd	r25, Y+23	; 0x17
    33b8:	a8 8d       	ldd	r26, Y+24	; 0x18
    33ba:	b9 8d       	ldd	r27, Y+25	; 0x19
    33bc:	88 16       	cp	r8, r24
    33be:	99 06       	cpc	r9, r25
    33c0:	aa 06       	cpc	r10, r26
    33c2:	bb 06       	cpc	r11, r27
    33c4:	c0 f4       	brcc	.+48     	; 0x33f6 <create_chain+0x84>
    33c6:	1c c0       	rjmp	.+56     	; 0x3400 <create_chain+0x8e>
    33c8:	0e 94 56 17 	call	0x2eac	; 0x2eac <get_fat>
    33cc:	9b 01       	movw	r18, r22
    33ce:	ac 01       	movw	r20, r24
    33d0:	62 30       	cpi	r22, 0x02	; 2
    33d2:	71 05       	cpc	r23, r1
    33d4:	81 05       	cpc	r24, r1
    33d6:	91 05       	cpc	r25, r1
    33d8:	08 f4       	brcc	.+2      	; 0x33dc <create_chain+0x6a>
    33da:	93 c0       	rjmp	.+294    	; 0x3502 <create_chain+0x190>
    33dc:	8e 89       	ldd	r24, Y+22	; 0x16
    33de:	9f 89       	ldd	r25, Y+23	; 0x17
    33e0:	a8 8d       	ldd	r26, Y+24	; 0x18
    33e2:	b9 8d       	ldd	r27, Y+25	; 0x19
    33e4:	28 17       	cp	r18, r24
    33e6:	39 07       	cpc	r19, r25
    33e8:	4a 07       	cpc	r20, r26
    33ea:	5b 07       	cpc	r21, r27
    33ec:	08 f4       	brcc	.+2      	; 0x33f0 <create_chain+0x7e>
    33ee:	8d c0       	rjmp	.+282    	; 0x350a <create_chain+0x198>
    33f0:	53 01       	movw	r10, r6
    33f2:	42 01       	movw	r8, r4
    33f4:	05 c0       	rjmp	.+10     	; 0x3400 <create_chain+0x8e>
    33f6:	61 e0       	ldi	r22, 0x01	; 1
    33f8:	86 2e       	mov	r8, r22
    33fa:	91 2c       	mov	r9, r1
    33fc:	a1 2c       	mov	r10, r1
    33fe:	b1 2c       	mov	r11, r1
    3400:	75 01       	movw	r14, r10
    3402:	64 01       	movw	r12, r8
    3404:	08 94       	sec
    3406:	c1 1c       	adc	r12, r1
    3408:	d1 1c       	adc	r13, r1
    340a:	e1 1c       	adc	r14, r1
    340c:	f1 1c       	adc	r15, r1
    340e:	8e 89       	ldd	r24, Y+22	; 0x16
    3410:	9f 89       	ldd	r25, Y+23	; 0x17
    3412:	a8 8d       	ldd	r26, Y+24	; 0x18
    3414:	b9 8d       	ldd	r27, Y+25	; 0x19
    3416:	c8 16       	cp	r12, r24
    3418:	d9 06       	cpc	r13, r25
    341a:	ea 06       	cpc	r14, r26
    341c:	fb 06       	cpc	r15, r27
    341e:	60 f0       	brcs	.+24     	; 0x3438 <create_chain+0xc6>
    3420:	22 e0       	ldi	r18, 0x02	; 2
    3422:	82 16       	cp	r8, r18
    3424:	91 04       	cpc	r9, r1
    3426:	a1 04       	cpc	r10, r1
    3428:	b1 04       	cpc	r11, r1
    342a:	08 f4       	brcc	.+2      	; 0x342e <create_chain+0xbc>
    342c:	63 c0       	rjmp	.+198    	; 0x34f4 <create_chain+0x182>
    342e:	52 e0       	ldi	r21, 0x02	; 2
    3430:	c5 2e       	mov	r12, r21
    3432:	d1 2c       	mov	r13, r1
    3434:	e1 2c       	mov	r14, r1
    3436:	f1 2c       	mov	r15, r1
    3438:	ce 01       	movw	r24, r28
    343a:	b7 01       	movw	r22, r14
    343c:	a6 01       	movw	r20, r12
    343e:	0e 94 56 17 	call	0x2eac	; 0x2eac <get_fat>
    3442:	9b 01       	movw	r18, r22
    3444:	ac 01       	movw	r20, r24
    3446:	61 15       	cp	r22, r1
    3448:	71 05       	cpc	r23, r1
    344a:	81 05       	cpc	r24, r1
    344c:	91 05       	cpc	r25, r1
    344e:	a9 f0       	breq	.+42     	; 0x347a <create_chain+0x108>
    3450:	2f 3f       	cpi	r18, 0xFF	; 255
    3452:	8f ef       	ldi	r24, 0xFF	; 255
    3454:	38 07       	cpc	r19, r24
    3456:	8f ef       	ldi	r24, 0xFF	; 255
    3458:	48 07       	cpc	r20, r24
    345a:	8f ef       	ldi	r24, 0xFF	; 255
    345c:	58 07       	cpc	r21, r24
    345e:	09 f4       	brne	.+2      	; 0x3462 <create_chain+0xf0>
    3460:	54 c0       	rjmp	.+168    	; 0x350a <create_chain+0x198>
    3462:	21 30       	cpi	r18, 0x01	; 1
    3464:	31 05       	cpc	r19, r1
    3466:	41 05       	cpc	r20, r1
    3468:	51 05       	cpc	r21, r1
    346a:	09 f4       	brne	.+2      	; 0x346e <create_chain+0xfc>
    346c:	4e c0       	rjmp	.+156    	; 0x350a <create_chain+0x198>
    346e:	c8 14       	cp	r12, r8
    3470:	d9 04       	cpc	r13, r9
    3472:	ea 04       	cpc	r14, r10
    3474:	fb 04       	cpc	r15, r11
    3476:	31 f6       	brne	.-116    	; 0x3404 <create_chain+0x92>
    3478:	3d c0       	rjmp	.+122    	; 0x34f4 <create_chain+0x182>
    347a:	8c 2c       	mov	r8, r12
    347c:	bd 2c       	mov	r11, r13
    347e:	ae 2c       	mov	r10, r14
    3480:	9f 2c       	mov	r9, r15
    3482:	ce 01       	movw	r24, r28
    3484:	a6 01       	movw	r20, r12
    3486:	b7 01       	movw	r22, r14
    3488:	0f ef       	ldi	r16, 0xFF	; 255
    348a:	1f ef       	ldi	r17, 0xFF	; 255
    348c:	2f ef       	ldi	r18, 0xFF	; 255
    348e:	3f e0       	ldi	r19, 0x0F	; 15
    3490:	0e 94 c4 18 	call	0x3188	; 0x3188 <put_fat>
    3494:	88 23       	and	r24, r24
    3496:	41 f5       	brne	.+80     	; 0x34e8 <create_chain+0x176>
    3498:	41 14       	cp	r4, r1
    349a:	51 04       	cpc	r5, r1
    349c:	61 04       	cpc	r6, r1
    349e:	71 04       	cpc	r7, r1
    34a0:	49 f0       	breq	.+18     	; 0x34b4 <create_chain+0x142>
    34a2:	ce 01       	movw	r24, r28
    34a4:	b3 01       	movw	r22, r6
    34a6:	a2 01       	movw	r20, r4
    34a8:	86 01       	movw	r16, r12
    34aa:	97 01       	movw	r18, r14
    34ac:	0e 94 c4 18 	call	0x3188	; 0x3188 <put_fat>
    34b0:	88 23       	and	r24, r24
    34b2:	d1 f4       	brne	.+52     	; 0x34e8 <create_chain+0x176>
    34b4:	8a 86       	std	Y+10, r8	; 0x0a
    34b6:	bb 86       	std	Y+11, r11	; 0x0b
    34b8:	ac 86       	std	Y+12, r10	; 0x0c
    34ba:	9d 86       	std	Y+13, r9	; 0x0d
    34bc:	8e 85       	ldd	r24, Y+14	; 0x0e
    34be:	9f 85       	ldd	r25, Y+15	; 0x0f
    34c0:	a8 89       	ldd	r26, Y+16	; 0x10
    34c2:	b9 89       	ldd	r27, Y+17	; 0x11
    34c4:	8f 3f       	cpi	r24, 0xFF	; 255
    34c6:	2f ef       	ldi	r18, 0xFF	; 255
    34c8:	92 07       	cpc	r25, r18
    34ca:	2f ef       	ldi	r18, 0xFF	; 255
    34cc:	a2 07       	cpc	r26, r18
    34ce:	2f ef       	ldi	r18, 0xFF	; 255
    34d0:	b2 07       	cpc	r27, r18
    34d2:	a1 f0       	breq	.+40     	; 0x34fc <create_chain+0x18a>
    34d4:	01 97       	sbiw	r24, 0x01	; 1
    34d6:	a1 09       	sbc	r26, r1
    34d8:	b1 09       	sbc	r27, r1
    34da:	8e 87       	std	Y+14, r24	; 0x0e
    34dc:	9f 87       	std	Y+15, r25	; 0x0f
    34de:	a8 8b       	std	Y+16, r26	; 0x10
    34e0:	b9 8b       	std	Y+17, r27	; 0x11
    34e2:	81 e0       	ldi	r24, 0x01	; 1
    34e4:	8d 83       	std	Y+5, r24	; 0x05
    34e6:	0a c0       	rjmp	.+20     	; 0x34fc <create_chain+0x18a>
    34e8:	81 30       	cpi	r24, 0x01	; 1
    34ea:	59 f4       	brne	.+22     	; 0x3502 <create_chain+0x190>
    34ec:	2f ef       	ldi	r18, 0xFF	; 255
    34ee:	3f ef       	ldi	r19, 0xFF	; 255
    34f0:	a9 01       	movw	r20, r18
    34f2:	0b c0       	rjmp	.+22     	; 0x350a <create_chain+0x198>
    34f4:	20 e0       	ldi	r18, 0x00	; 0
    34f6:	30 e0       	ldi	r19, 0x00	; 0
    34f8:	a9 01       	movw	r20, r18
    34fa:	07 c0       	rjmp	.+14     	; 0x350a <create_chain+0x198>
    34fc:	a7 01       	movw	r20, r14
    34fe:	96 01       	movw	r18, r12
    3500:	04 c0       	rjmp	.+8      	; 0x350a <create_chain+0x198>
    3502:	21 e0       	ldi	r18, 0x01	; 1
    3504:	30 e0       	ldi	r19, 0x00	; 0
    3506:	40 e0       	ldi	r20, 0x00	; 0
    3508:	50 e0       	ldi	r21, 0x00	; 0
    350a:	b9 01       	movw	r22, r18
    350c:	ca 01       	movw	r24, r20
    350e:	df 91       	pop	r29
    3510:	cf 91       	pop	r28
    3512:	1f 91       	pop	r17
    3514:	0f 91       	pop	r16
    3516:	ff 90       	pop	r15
    3518:	ef 90       	pop	r14
    351a:	df 90       	pop	r13
    351c:	cf 90       	pop	r12
    351e:	bf 90       	pop	r11
    3520:	af 90       	pop	r10
    3522:	9f 90       	pop	r9
    3524:	8f 90       	pop	r8
    3526:	7f 90       	pop	r7
    3528:	6f 90       	pop	r6
    352a:	5f 90       	pop	r5
    352c:	4f 90       	pop	r4
    352e:	08 95       	ret

00003530 <dir_next>:
    3530:	8f 92       	push	r8
    3532:	9f 92       	push	r9
    3534:	af 92       	push	r10
    3536:	bf 92       	push	r11
    3538:	cf 92       	push	r12
    353a:	df 92       	push	r13
    353c:	ef 92       	push	r14
    353e:	ff 92       	push	r15
    3540:	0f 93       	push	r16
    3542:	1f 93       	push	r17
    3544:	cf 93       	push	r28
    3546:	df 93       	push	r29
    3548:	ec 01       	movw	r28, r24
    354a:	5b 01       	movw	r10, r22
    354c:	cc 80       	ldd	r12, Y+4	; 0x04
    354e:	dd 80       	ldd	r13, Y+5	; 0x05
    3550:	08 94       	sec
    3552:	c1 1c       	adc	r12, r1
    3554:	d1 1c       	adc	r13, r1
    3556:	c1 14       	cp	r12, r1
    3558:	d1 04       	cpc	r13, r1
    355a:	09 f4       	brne	.+2      	; 0x355e <dir_next+0x2e>
    355c:	ed c0       	rjmp	.+474    	; 0x3738 <dir_next+0x208>
    355e:	8e 85       	ldd	r24, Y+14	; 0x0e
    3560:	9f 85       	ldd	r25, Y+15	; 0x0f
    3562:	a8 89       	ldd	r26, Y+16	; 0x10
    3564:	b9 89       	ldd	r27, Y+17	; 0x11
    3566:	00 97       	sbiw	r24, 0x00	; 0
    3568:	a1 05       	cpc	r26, r1
    356a:	b1 05       	cpc	r27, r1
    356c:	09 f4       	brne	.+2      	; 0x3570 <dir_next+0x40>
    356e:	e4 c0       	rjmp	.+456    	; 0x3738 <dir_next+0x208>
    3570:	1f e0       	ldi	r17, 0x0F	; 15
    3572:	81 2e       	mov	r8, r17
    3574:	91 2c       	mov	r9, r1
    3576:	8c 20       	and	r8, r12
    3578:	9d 20       	and	r9, r13
    357a:	81 14       	cp	r8, r1
    357c:	91 04       	cpc	r9, r1
    357e:	09 f0       	breq	.+2      	; 0x3582 <dir_next+0x52>
    3580:	cb c0       	rjmp	.+406    	; 0x3718 <dir_next+0x1e8>
    3582:	01 96       	adiw	r24, 0x01	; 1
    3584:	a1 1d       	adc	r26, r1
    3586:	b1 1d       	adc	r27, r1
    3588:	8e 87       	std	Y+14, r24	; 0x0e
    358a:	9f 87       	std	Y+15, r25	; 0x0f
    358c:	a8 8b       	std	Y+16, r26	; 0x10
    358e:	b9 8b       	std	Y+17, r27	; 0x11
    3590:	4a 85       	ldd	r20, Y+10	; 0x0a
    3592:	5b 85       	ldd	r21, Y+11	; 0x0b
    3594:	6c 85       	ldd	r22, Y+12	; 0x0c
    3596:	7d 85       	ldd	r23, Y+13	; 0x0d
    3598:	88 81       	ld	r24, Y
    359a:	99 81       	ldd	r25, Y+1	; 0x01
    359c:	41 15       	cp	r20, r1
    359e:	51 05       	cpc	r21, r1
    35a0:	61 05       	cpc	r22, r1
    35a2:	71 05       	cpc	r23, r1
    35a4:	41 f4       	brne	.+16     	; 0x35b6 <dir_next+0x86>
    35a6:	fc 01       	movw	r30, r24
    35a8:	80 85       	ldd	r24, Z+8	; 0x08
    35aa:	91 85       	ldd	r25, Z+9	; 0x09
    35ac:	c8 16       	cp	r12, r24
    35ae:	d9 06       	cpc	r13, r25
    35b0:	08 f4       	brcc	.+2      	; 0x35b4 <dir_next+0x84>
    35b2:	b2 c0       	rjmp	.+356    	; 0x3718 <dir_next+0x1e8>
    35b4:	c1 c0       	rjmp	.+386    	; 0x3738 <dir_next+0x208>
    35b6:	fc 01       	movw	r30, r24
    35b8:	22 81       	ldd	r18, Z+2	; 0x02
    35ba:	30 e0       	ldi	r19, 0x00	; 0
    35bc:	21 50       	subi	r18, 0x01	; 1
    35be:	30 40       	sbci	r19, 0x00	; 0
    35c0:	f6 01       	movw	r30, r12
    35c2:	a4 e0       	ldi	r26, 0x04	; 4
    35c4:	f6 95       	lsr	r31
    35c6:	e7 95       	ror	r30
    35c8:	aa 95       	dec	r26
    35ca:	e1 f7       	brne	.-8      	; 0x35c4 <dir_next+0x94>
    35cc:	2e 23       	and	r18, r30
    35ce:	3f 23       	and	r19, r31
    35d0:	21 15       	cp	r18, r1
    35d2:	31 05       	cpc	r19, r1
    35d4:	09 f0       	breq	.+2      	; 0x35d8 <dir_next+0xa8>
    35d6:	a0 c0       	rjmp	.+320    	; 0x3718 <dir_next+0x1e8>
    35d8:	0e 94 56 17 	call	0x2eac	; 0x2eac <get_fat>
    35dc:	7b 01       	movw	r14, r22
    35de:	8c 01       	movw	r16, r24
    35e0:	62 30       	cpi	r22, 0x02	; 2
    35e2:	71 05       	cpc	r23, r1
    35e4:	81 05       	cpc	r24, r1
    35e6:	91 05       	cpc	r25, r1
    35e8:	08 f4       	brcc	.+2      	; 0x35ec <dir_next+0xbc>
    35ea:	aa c0       	rjmp	.+340    	; 0x3740 <dir_next+0x210>
    35ec:	8f ef       	ldi	r24, 0xFF	; 255
    35ee:	e8 16       	cp	r14, r24
    35f0:	8f ef       	ldi	r24, 0xFF	; 255
    35f2:	f8 06       	cpc	r15, r24
    35f4:	8f ef       	ldi	r24, 0xFF	; 255
    35f6:	08 07       	cpc	r16, r24
    35f8:	8f ef       	ldi	r24, 0xFF	; 255
    35fa:	18 07       	cpc	r17, r24
    35fc:	09 f4       	brne	.+2      	; 0x3600 <dir_next+0xd0>
    35fe:	a2 c0       	rjmp	.+324    	; 0x3744 <dir_next+0x214>
    3600:	88 81       	ld	r24, Y
    3602:	99 81       	ldd	r25, Y+1	; 0x01
    3604:	fc 01       	movw	r30, r24
    3606:	26 89       	ldd	r18, Z+22	; 0x16
    3608:	37 89       	ldd	r19, Z+23	; 0x17
    360a:	40 8d       	ldd	r20, Z+24	; 0x18
    360c:	51 8d       	ldd	r21, Z+25	; 0x19
    360e:	e2 16       	cp	r14, r18
    3610:	f3 06       	cpc	r15, r19
    3612:	04 07       	cpc	r16, r20
    3614:	15 07       	cpc	r17, r21
    3616:	08 f4       	brcc	.+2      	; 0x361a <dir_next+0xea>
    3618:	71 c0       	rjmp	.+226    	; 0x36fc <dir_next+0x1cc>
    361a:	a1 14       	cp	r10, r1
    361c:	b1 04       	cpc	r11, r1
    361e:	09 f4       	brne	.+2      	; 0x3622 <dir_next+0xf2>
    3620:	8b c0       	rjmp	.+278    	; 0x3738 <dir_next+0x208>
    3622:	4a 85       	ldd	r20, Y+10	; 0x0a
    3624:	5b 85       	ldd	r21, Y+11	; 0x0b
    3626:	6c 85       	ldd	r22, Y+12	; 0x0c
    3628:	7d 85       	ldd	r23, Y+13	; 0x0d
    362a:	0e 94 b9 19 	call	0x3372	; 0x3372 <create_chain>
    362e:	7b 01       	movw	r14, r22
    3630:	8c 01       	movw	r16, r24
    3632:	61 15       	cp	r22, r1
    3634:	71 05       	cpc	r23, r1
    3636:	81 05       	cpc	r24, r1
    3638:	91 05       	cpc	r25, r1
    363a:	09 f4       	brne	.+2      	; 0x363e <dir_next+0x10e>
    363c:	7f c0       	rjmp	.+254    	; 0x373c <dir_next+0x20c>
    363e:	61 30       	cpi	r22, 0x01	; 1
    3640:	71 05       	cpc	r23, r1
    3642:	81 05       	cpc	r24, r1
    3644:	91 05       	cpc	r25, r1
    3646:	09 f4       	brne	.+2      	; 0x364a <dir_next+0x11a>
    3648:	7b c0       	rjmp	.+246    	; 0x3740 <dir_next+0x210>
    364a:	8f ef       	ldi	r24, 0xFF	; 255
    364c:	e8 16       	cp	r14, r24
    364e:	8f ef       	ldi	r24, 0xFF	; 255
    3650:	f8 06       	cpc	r15, r24
    3652:	8f ef       	ldi	r24, 0xFF	; 255
    3654:	08 07       	cpc	r16, r24
    3656:	8f ef       	ldi	r24, 0xFF	; 255
    3658:	18 07       	cpc	r17, r24
    365a:	09 f4       	brne	.+2      	; 0x365e <dir_next+0x12e>
    365c:	73 c0       	rjmp	.+230    	; 0x3744 <dir_next+0x214>
    365e:	88 81       	ld	r24, Y
    3660:	99 81       	ldd	r25, Y+1	; 0x01
    3662:	40 e0       	ldi	r20, 0x00	; 0
    3664:	50 e0       	ldi	r21, 0x00	; 0
    3666:	ba 01       	movw	r22, r20
    3668:	0e 94 13 12 	call	0x2426	; 0x2426 <move_window>
    366c:	88 23       	and	r24, r24
    366e:	09 f0       	breq	.+2      	; 0x3672 <dir_next+0x142>
    3670:	69 c0       	rjmp	.+210    	; 0x3744 <dir_next+0x214>
    3672:	88 81       	ld	r24, Y
    3674:	99 81       	ldd	r25, Y+1	; 0x01
    3676:	fc 01       	movw	r30, r24
    3678:	be 96       	adiw	r30, 0x2e	; 46
    367a:	82 5d       	subi	r24, 0xD2	; 210
    367c:	9d 4f       	sbci	r25, 0xFD	; 253
    367e:	01 c0       	rjmp	.+2      	; 0x3682 <dir_next+0x152>
    3680:	11 92       	st	Z+, r1
    3682:	e8 17       	cp	r30, r24
    3684:	f9 07       	cpc	r31, r25
    3686:	e1 f7       	brne	.-8      	; 0x3680 <dir_next+0x150>
    3688:	a8 80       	ld	r10, Y
    368a:	b9 80       	ldd	r11, Y+1	; 0x01
    368c:	c5 01       	movw	r24, r10
    368e:	b8 01       	movw	r22, r16
    3690:	a7 01       	movw	r20, r14
    3692:	0e 94 27 17 	call	0x2e4e	; 0x2e4e <clust2sect>
    3696:	f5 01       	movw	r30, r10
    3698:	62 a7       	std	Z+42, r22	; 0x2a
    369a:	73 a7       	std	Z+43, r23	; 0x2b
    369c:	84 a7       	std	Z+44, r24	; 0x2c
    369e:	95 a7       	std	Z+45, r25	; 0x2d
    36a0:	bb 24       	eor	r11, r11
    36a2:	aa 24       	eor	r10, r10
    36a4:	a3 94       	inc	r10
    36a6:	19 c0       	rjmp	.+50     	; 0x36da <dir_next+0x1aa>
    36a8:	a4 82       	std	Z+4, r10	; 0x04
    36aa:	88 81       	ld	r24, Y
    36ac:	99 81       	ldd	r25, Y+1	; 0x01
    36ae:	40 e0       	ldi	r20, 0x00	; 0
    36b0:	50 e0       	ldi	r21, 0x00	; 0
    36b2:	ba 01       	movw	r22, r20
    36b4:	0e 94 13 12 	call	0x2426	; 0x2426 <move_window>
    36b8:	88 23       	and	r24, r24
    36ba:	09 f0       	breq	.+2      	; 0x36be <dir_next+0x18e>
    36bc:	43 c0       	rjmp	.+134    	; 0x3744 <dir_next+0x214>
    36be:	e8 81       	ld	r30, Y
    36c0:	f9 81       	ldd	r31, Y+1	; 0x01
    36c2:	82 a5       	ldd	r24, Z+42	; 0x2a
    36c4:	93 a5       	ldd	r25, Z+43	; 0x2b
    36c6:	a4 a5       	ldd	r26, Z+44	; 0x2c
    36c8:	b5 a5       	ldd	r27, Z+45	; 0x2d
    36ca:	01 96       	adiw	r24, 0x01	; 1
    36cc:	a1 1d       	adc	r26, r1
    36ce:	b1 1d       	adc	r27, r1
    36d0:	82 a7       	std	Z+42, r24	; 0x2a
    36d2:	93 a7       	std	Z+43, r25	; 0x2b
    36d4:	a4 a7       	std	Z+44, r26	; 0x2c
    36d6:	b5 a7       	std	Z+45, r27	; 0x2d
    36d8:	b3 94       	inc	r11
    36da:	e8 81       	ld	r30, Y
    36dc:	f9 81       	ldd	r31, Y+1	; 0x01
    36de:	82 81       	ldd	r24, Z+2	; 0x02
    36e0:	b8 16       	cp	r11, r24
    36e2:	10 f3       	brcs	.-60     	; 0x36a8 <dir_next+0x178>
    36e4:	82 a5       	ldd	r24, Z+42	; 0x2a
    36e6:	93 a5       	ldd	r25, Z+43	; 0x2b
    36e8:	a4 a5       	ldd	r26, Z+44	; 0x2c
    36ea:	b5 a5       	ldd	r27, Z+45	; 0x2d
    36ec:	8b 19       	sub	r24, r11
    36ee:	91 09       	sbc	r25, r1
    36f0:	a1 09       	sbc	r26, r1
    36f2:	b1 09       	sbc	r27, r1
    36f4:	82 a7       	std	Z+42, r24	; 0x2a
    36f6:	93 a7       	std	Z+43, r25	; 0x2b
    36f8:	a4 a7       	std	Z+44, r26	; 0x2c
    36fa:	b5 a7       	std	Z+45, r27	; 0x2d
    36fc:	ea 86       	std	Y+10, r14	; 0x0a
    36fe:	fb 86       	std	Y+11, r15	; 0x0b
    3700:	0c 87       	std	Y+12, r16	; 0x0c
    3702:	1d 87       	std	Y+13, r17	; 0x0d
    3704:	88 81       	ld	r24, Y
    3706:	99 81       	ldd	r25, Y+1	; 0x01
    3708:	b8 01       	movw	r22, r16
    370a:	a7 01       	movw	r20, r14
    370c:	0e 94 27 17 	call	0x2e4e	; 0x2e4e <clust2sect>
    3710:	6e 87       	std	Y+14, r22	; 0x0e
    3712:	7f 87       	std	Y+15, r23	; 0x0f
    3714:	88 8b       	std	Y+16, r24	; 0x10
    3716:	99 8b       	std	Y+17, r25	; 0x11
    3718:	dd 82       	std	Y+5, r13	; 0x05
    371a:	cc 82       	std	Y+4, r12	; 0x04
    371c:	88 81       	ld	r24, Y
    371e:	99 81       	ldd	r25, Y+1	; 0x01
    3720:	8e 96       	adiw	r24, 0x2e	; 46
    3722:	75 e0       	ldi	r23, 0x05	; 5
    3724:	88 0c       	add	r8, r8
    3726:	99 1c       	adc	r9, r9
    3728:	7a 95       	dec	r23
    372a:	e1 f7       	brne	.-8      	; 0x3724 <dir_next+0x1f4>
    372c:	88 0d       	add	r24, r8
    372e:	99 1d       	adc	r25, r9
    3730:	9b 8b       	std	Y+19, r25	; 0x13
    3732:	8a 8b       	std	Y+18, r24	; 0x12
    3734:	80 e0       	ldi	r24, 0x00	; 0
    3736:	07 c0       	rjmp	.+14     	; 0x3746 <dir_next+0x216>
    3738:	84 e0       	ldi	r24, 0x04	; 4
    373a:	05 c0       	rjmp	.+10     	; 0x3746 <dir_next+0x216>
    373c:	87 e0       	ldi	r24, 0x07	; 7
    373e:	03 c0       	rjmp	.+6      	; 0x3746 <dir_next+0x216>
    3740:	82 e0       	ldi	r24, 0x02	; 2
    3742:	01 c0       	rjmp	.+2      	; 0x3746 <dir_next+0x216>
    3744:	81 e0       	ldi	r24, 0x01	; 1
    3746:	df 91       	pop	r29
    3748:	cf 91       	pop	r28
    374a:	1f 91       	pop	r17
    374c:	0f 91       	pop	r16
    374e:	ff 90       	pop	r15
    3750:	ef 90       	pop	r14
    3752:	df 90       	pop	r13
    3754:	cf 90       	pop	r12
    3756:	bf 90       	pop	r11
    3758:	af 90       	pop	r10
    375a:	9f 90       	pop	r9
    375c:	8f 90       	pop	r8
    375e:	08 95       	ret

00003760 <follow_path>:
    3760:	2f 92       	push	r2
    3762:	3f 92       	push	r3
    3764:	4f 92       	push	r4
    3766:	5f 92       	push	r5
    3768:	6f 92       	push	r6
    376a:	7f 92       	push	r7
    376c:	8f 92       	push	r8
    376e:	9f 92       	push	r9
    3770:	af 92       	push	r10
    3772:	bf 92       	push	r11
    3774:	cf 92       	push	r12
    3776:	df 92       	push	r13
    3778:	ef 92       	push	r14
    377a:	ff 92       	push	r15
    377c:	0f 93       	push	r16
    377e:	1f 93       	push	r17
    3780:	cf 93       	push	r28
    3782:	df 93       	push	r29
    3784:	ec 01       	movw	r28, r24
    3786:	db 01       	movw	r26, r22
    3788:	8c 91       	ld	r24, X
    378a:	8f 32       	cpi	r24, 0x2F	; 47
    378c:	11 f0       	breq	.+4      	; 0x3792 <follow_path+0x32>
    378e:	8c 35       	cpi	r24, 0x5C	; 92
    3790:	11 f4       	brne	.+4      	; 0x3796 <follow_path+0x36>
    3792:	6f 5f       	subi	r22, 0xFF	; 255
    3794:	7f 4f       	sbci	r23, 0xFF	; 255
    3796:	1e 82       	std	Y+6, r1	; 0x06
    3798:	1f 82       	std	Y+7, r1	; 0x07
    379a:	18 86       	std	Y+8, r1	; 0x08
    379c:	19 86       	std	Y+9, r1	; 0x09
    379e:	fb 01       	movw	r30, r22
    37a0:	80 81       	ld	r24, Z
    37a2:	80 32       	cpi	r24, 0x20	; 32
    37a4:	30 f4       	brcc	.+12     	; 0x37b2 <follow_path+0x52>
    37a6:	ce 01       	movw	r24, r28
    37a8:	0e 94 46 18 	call	0x308c	; 0x308c <dir_sdi.clone.1>
    37ac:	1b 8a       	std	Y+19, r1	; 0x13
    37ae:	1a 8a       	std	Y+18, r1	; 0x12
    37b0:	ec c0       	rjmp	.+472    	; 0x398a <follow_path+0x22a>
    37b2:	90 e2       	ldi	r25, 0x20	; 32
    37b4:	59 2e       	mov	r5, r25
    37b6:	85 e0       	ldi	r24, 0x05	; 5
    37b8:	48 2e       	mov	r4, r24
    37ba:	fb 01       	movw	r30, r22
    37bc:	8f 01       	movw	r16, r30
    37be:	80 81       	ld	r24, Z
    37c0:	31 96       	adiw	r30, 0x01	; 1
    37c2:	8f 32       	cpi	r24, 0x2F	; 47
    37c4:	d9 f3       	breq	.-10     	; 0x37bc <follow_path+0x5c>
    37c6:	8c 35       	cpi	r24, 0x5C	; 92
    37c8:	c9 f3       	breq	.-14     	; 0x37bc <follow_path+0x5c>
    37ca:	ec 89       	ldd	r30, Y+20	; 0x14
    37cc:	fd 89       	ldd	r31, Y+21	; 0x15
    37ce:	df 01       	movw	r26, r30
    37d0:	8c e0       	ldi	r24, 0x0C	; 12
    37d2:	90 e0       	ldi	r25, 0x00	; 0
    37d4:	01 c0       	rjmp	.+2      	; 0x37d8 <follow_path+0x78>
    37d6:	5d 92       	st	X+, r5
    37d8:	01 97       	sbiw	r24, 0x01	; 1
    37da:	e9 f7       	brne	.-6      	; 0x37d6 <follow_path+0x76>
    37dc:	18 01       	movw	r2, r16
    37de:	80 e0       	ldi	r24, 0x00	; 0
    37e0:	90 e0       	ldi	r25, 0x00	; 0
    37e2:	ee 24       	eor	r14, r14
    37e4:	ff 24       	eor	r15, r15
    37e6:	28 e0       	ldi	r18, 0x08	; 8
    37e8:	30 e0       	ldi	r19, 0x00	; 0
    37ea:	99 24       	eor	r9, r9
    37ec:	d1 01       	movw	r26, r2
    37ee:	8d 90       	ld	r8, X+
    37f0:	1d 01       	movw	r2, r26
    37f2:	08 94       	sec
    37f4:	e1 1c       	adc	r14, r1
    37f6:	f1 1c       	adc	r15, r1
    37f8:	b8 2d       	mov	r27, r8
    37fa:	b1 32       	cpi	r27, 0x21	; 33
    37fc:	08 f4       	brcc	.+2      	; 0x3800 <follow_path+0xa0>
    37fe:	48 c0       	rjmp	.+144    	; 0x3890 <follow_path+0x130>
    3800:	bf 32       	cpi	r27, 0x2F	; 47
    3802:	09 f4       	brne	.+2      	; 0x3806 <follow_path+0xa6>
    3804:	47 c0       	rjmp	.+142    	; 0x3894 <follow_path+0x134>
    3806:	bc 35       	cpi	r27, 0x5C	; 92
    3808:	09 f4       	brne	.+2      	; 0x380c <follow_path+0xac>
    380a:	44 c0       	rjmp	.+136    	; 0x3894 <follow_path+0x134>
    380c:	be 32       	cpi	r27, 0x2E	; 46
    380e:	19 f0       	breq	.+6      	; 0x3816 <follow_path+0xb6>
    3810:	82 17       	cp	r24, r18
    3812:	93 07       	cpc	r25, r19
    3814:	78 f0       	brcs	.+30     	; 0x3834 <follow_path+0xd4>
    3816:	28 30       	cpi	r18, 0x08	; 8
    3818:	31 05       	cpc	r19, r1
    381a:	09 f0       	breq	.+2      	; 0x381e <follow_path+0xbe>
    381c:	b3 c0       	rjmp	.+358    	; 0x3984 <follow_path+0x224>
    381e:	48 2d       	mov	r20, r8
    3820:	4e 32       	cpi	r20, 0x2E	; 46
    3822:	09 f0       	breq	.+2      	; 0x3826 <follow_path+0xc6>
    3824:	af c0       	rjmp	.+350    	; 0x3984 <follow_path+0x224>
    3826:	99 0c       	add	r9, r9
    3828:	99 0c       	add	r9, r9
    382a:	88 e0       	ldi	r24, 0x08	; 8
    382c:	90 e0       	ldi	r25, 0x00	; 0
    382e:	2b e0       	ldi	r18, 0x0B	; 11
    3830:	30 e0       	ldi	r19, 0x00	; 0
    3832:	dc cf       	rjmp	.-72     	; 0x37ec <follow_path+0x8c>
    3834:	87 fe       	sbrs	r8, 7
    3836:	08 c0       	rjmp	.+16     	; 0x3848 <follow_path+0xe8>
    3838:	a3 e0       	ldi	r26, 0x03	; 3
    383a:	9a 2a       	or	r9, r26
    383c:	48 2d       	mov	r20, r8
    383e:	50 e0       	ldi	r21, 0x00	; 0
    3840:	4d 56       	subi	r20, 0x6D	; 109
    3842:	5f 4f       	sbci	r21, 0xFF	; 255
    3844:	da 01       	movw	r26, r20
    3846:	8c 90       	ld	r8, X
    3848:	c8 2c       	mov	r12, r8
    384a:	dd 24       	eor	r13, r13
    384c:	44 e0       	ldi	r20, 0x04	; 4
    384e:	51 e0       	ldi	r21, 0x01	; 1
    3850:	da 01       	movw	r26, r20
    3852:	6d 91       	ld	r22, X+
    3854:	ad 01       	movw	r20, r26
    3856:	66 23       	and	r22, r22
    3858:	29 f0       	breq	.+10     	; 0x3864 <follow_path+0x104>
    385a:	70 e0       	ldi	r23, 0x00	; 0
    385c:	6c 15       	cp	r22, r12
    385e:	7d 05       	cpc	r23, r13
    3860:	b9 f7       	brne	.-18     	; 0x3850 <follow_path+0xf0>
    3862:	90 c0       	rjmp	.+288    	; 0x3984 <follow_path+0x224>
    3864:	48 2d       	mov	r20, r8
    3866:	41 54       	subi	r20, 0x41	; 65
    3868:	4a 31       	cpi	r20, 0x1A	; 26
    386a:	18 f4       	brcc	.+6      	; 0x3872 <follow_path+0x112>
    386c:	b2 e0       	ldi	r27, 0x02	; 2
    386e:	9b 2a       	or	r9, r27
    3870:	08 c0       	rjmp	.+16     	; 0x3882 <follow_path+0x122>
    3872:	48 2d       	mov	r20, r8
    3874:	41 56       	subi	r20, 0x61	; 97
    3876:	4a 31       	cpi	r20, 0x1A	; 26
    3878:	20 f4       	brcc	.+8      	; 0x3882 <follow_path+0x122>
    387a:	41 e0       	ldi	r20, 0x01	; 1
    387c:	94 2a       	or	r9, r20
    387e:	a0 ee       	ldi	r26, 0xE0	; 224
    3880:	8a 0e       	add	r8, r26
    3882:	bf 01       	movw	r22, r30
    3884:	68 0f       	add	r22, r24
    3886:	79 1f       	adc	r23, r25
    3888:	db 01       	movw	r26, r22
    388a:	8c 92       	st	X, r8
    388c:	01 96       	adiw	r24, 0x01	; 1
    388e:	ae cf       	rjmp	.-164    	; 0x37ec <follow_path+0x8c>
    3890:	44 e0       	ldi	r20, 0x04	; 4
    3892:	01 c0       	rjmp	.+2      	; 0x3896 <follow_path+0x136>
    3894:	40 e0       	ldi	r20, 0x00	; 0
    3896:	00 97       	sbiw	r24, 0x00	; 0
    3898:	09 f4       	brne	.+2      	; 0x389c <follow_path+0x13c>
    389a:	74 c0       	rjmp	.+232    	; 0x3984 <follow_path+0x224>
    389c:	80 81       	ld	r24, Z
    389e:	85 3e       	cpi	r24, 0xE5	; 229
    38a0:	09 f4       	brne	.+2      	; 0x38a4 <follow_path+0x144>
    38a2:	40 82       	st	Z, r4
    38a4:	28 30       	cpi	r18, 0x08	; 8
    38a6:	31 05       	cpc	r19, r1
    38a8:	11 f4       	brne	.+4      	; 0x38ae <follow_path+0x14e>
    38aa:	99 0c       	add	r9, r9
    38ac:	99 0c       	add	r9, r9
    38ae:	89 2d       	mov	r24, r9
    38b0:	90 e0       	ldi	r25, 0x00	; 0
    38b2:	9c 01       	movw	r18, r24
    38b4:	23 70       	andi	r18, 0x03	; 3
    38b6:	30 70       	andi	r19, 0x00	; 0
    38b8:	21 30       	cpi	r18, 0x01	; 1
    38ba:	31 05       	cpc	r19, r1
    38bc:	09 f4       	brne	.+2      	; 0x38c0 <follow_path+0x160>
    38be:	40 61       	ori	r20, 0x10	; 16
    38c0:	8c 70       	andi	r24, 0x0C	; 12
    38c2:	90 70       	andi	r25, 0x00	; 0
    38c4:	84 30       	cpi	r24, 0x04	; 4
    38c6:	91 05       	cpc	r25, r1
    38c8:	09 f4       	brne	.+2      	; 0x38cc <follow_path+0x16c>
    38ca:	48 60       	ori	r20, 0x08	; 8
    38cc:	43 87       	std	Z+11, r20	; 0x0b
    38ce:	ce 01       	movw	r24, r28
    38d0:	0e 94 46 18 	call	0x308c	; 0x308c <dir_sdi.clone.1>
    38d4:	88 23       	and	r24, r24
    38d6:	29 f5       	brne	.+74     	; 0x3922 <follow_path+0x1c2>
    38d8:	4e 85       	ldd	r20, Y+14	; 0x0e
    38da:	5f 85       	ldd	r21, Y+15	; 0x0f
    38dc:	68 89       	ldd	r22, Y+16	; 0x10
    38de:	79 89       	ldd	r23, Y+17	; 0x11
    38e0:	88 81       	ld	r24, Y
    38e2:	99 81       	ldd	r25, Y+1	; 0x01
    38e4:	0e 94 13 12 	call	0x2426	; 0x2426 <move_window>
    38e8:	88 23       	and	r24, r24
    38ea:	d9 f4       	brne	.+54     	; 0x3922 <follow_path+0x1c2>
    38ec:	ea 89       	ldd	r30, Y+18	; 0x12
    38ee:	fb 89       	ldd	r31, Y+19	; 0x13
    38f0:	90 81       	ld	r25, Z
    38f2:	99 23       	and	r25, r25
    38f4:	a9 f0       	breq	.+42     	; 0x3920 <follow_path+0x1c0>
    38f6:	93 85       	ldd	r25, Z+11	; 0x0b
    38f8:	93 fd       	sbrc	r25, 3
    38fa:	0c c0       	rjmp	.+24     	; 0x3914 <follow_path+0x1b4>
    38fc:	ac 89       	ldd	r26, Y+20	; 0x14
    38fe:	bd 89       	ldd	r27, Y+21	; 0x15
    3900:	9f 01       	movw	r18, r30
    3902:	25 5f       	subi	r18, 0xF5	; 245
    3904:	3f 4f       	sbci	r19, 0xFF	; 255
    3906:	e2 17       	cp	r30, r18
    3908:	f3 07       	cpc	r31, r19
    390a:	59 f0       	breq	.+22     	; 0x3922 <follow_path+0x1c2>
    390c:	41 91       	ld	r20, Z+
    390e:	9d 91       	ld	r25, X+
    3910:	49 17       	cp	r20, r25
    3912:	c9 f3       	breq	.-14     	; 0x3906 <follow_path+0x1a6>
    3914:	ce 01       	movw	r24, r28
    3916:	60 e0       	ldi	r22, 0x00	; 0
    3918:	70 e0       	ldi	r23, 0x00	; 0
    391a:	0e 94 98 1a 	call	0x3530	; 0x3530 <dir_next>
    391e:	da cf       	rjmp	.-76     	; 0x38d4 <follow_path+0x174>
    3920:	84 e0       	ldi	r24, 0x04	; 4
    3922:	ec 89       	ldd	r30, Y+20	; 0x14
    3924:	fd 89       	ldd	r31, Y+21	; 0x15
    3926:	93 85       	ldd	r25, Z+11	; 0x0b
    3928:	88 23       	and	r24, r24
    392a:	29 f0       	breq	.+10     	; 0x3936 <follow_path+0x1d6>
    392c:	84 30       	cpi	r24, 0x04	; 4
    392e:	69 f5       	brne	.+90     	; 0x398a <follow_path+0x22a>
    3930:	92 ff       	sbrs	r25, 2
    3932:	2a c0       	rjmp	.+84     	; 0x3988 <follow_path+0x228>
    3934:	2a c0       	rjmp	.+84     	; 0x398a <follow_path+0x22a>
    3936:	92 fd       	sbrc	r25, 2
    3938:	28 c0       	rjmp	.+80     	; 0x398a <follow_path+0x22a>
    393a:	2a 89       	ldd	r18, Y+18	; 0x12
    393c:	3b 89       	ldd	r19, Y+19	; 0x13
    393e:	f9 01       	movw	r30, r18
    3940:	83 85       	ldd	r24, Z+11	; 0x0b
    3942:	84 ff       	sbrs	r24, 4
    3944:	21 c0       	rjmp	.+66     	; 0x3988 <follow_path+0x228>
    3946:	b8 01       	movw	r22, r16
    3948:	6e 0d       	add	r22, r14
    394a:	7f 1d       	adc	r23, r15
    394c:	75 88       	ldd	r7, Z+21	; 0x15
    394e:	66 24       	eor	r6, r6
    3950:	84 89       	ldd	r24, Z+20	; 0x14
    3952:	90 e0       	ldi	r25, 0x00	; 0
    3954:	86 29       	or	r24, r6
    3956:	97 29       	or	r25, r7
    3958:	a0 e0       	ldi	r26, 0x00	; 0
    395a:	b0 e0       	ldi	r27, 0x00	; 0
    395c:	dc 01       	movw	r26, r24
    395e:	99 27       	eor	r25, r25
    3960:	88 27       	eor	r24, r24
    3962:	b3 8c       	ldd	r11, Z+27	; 0x1b
    3964:	aa 24       	eor	r10, r10
    3966:	22 8d       	ldd	r18, Z+26	; 0x1a
    3968:	30 e0       	ldi	r19, 0x00	; 0
    396a:	2a 29       	or	r18, r10
    396c:	3b 29       	or	r19, r11
    396e:	40 e0       	ldi	r20, 0x00	; 0
    3970:	50 e0       	ldi	r21, 0x00	; 0
    3972:	82 2b       	or	r24, r18
    3974:	93 2b       	or	r25, r19
    3976:	a4 2b       	or	r26, r20
    3978:	b5 2b       	or	r27, r21
    397a:	8e 83       	std	Y+6, r24	; 0x06
    397c:	9f 83       	std	Y+7, r25	; 0x07
    397e:	a8 87       	std	Y+8, r26	; 0x08
    3980:	b9 87       	std	Y+9, r27	; 0x09
    3982:	1b cf       	rjmp	.-458    	; 0x37ba <follow_path+0x5a>
    3984:	86 e0       	ldi	r24, 0x06	; 6
    3986:	01 c0       	rjmp	.+2      	; 0x398a <follow_path+0x22a>
    3988:	85 e0       	ldi	r24, 0x05	; 5
    398a:	df 91       	pop	r29
    398c:	cf 91       	pop	r28
    398e:	1f 91       	pop	r17
    3990:	0f 91       	pop	r16
    3992:	ff 90       	pop	r15
    3994:	ef 90       	pop	r14
    3996:	df 90       	pop	r13
    3998:	cf 90       	pop	r12
    399a:	bf 90       	pop	r11
    399c:	af 90       	pop	r10
    399e:	9f 90       	pop	r9
    39a0:	8f 90       	pop	r8
    39a2:	7f 90       	pop	r7
    39a4:	6f 90       	pop	r6
    39a6:	5f 90       	pop	r5
    39a8:	4f 90       	pop	r4
    39aa:	3f 90       	pop	r3
    39ac:	2f 90       	pop	r2
    39ae:	08 95       	ret

000039b0 <f_mount>:
    39b0:	88 23       	and	r24, r24
    39b2:	91 f4       	brne	.+36     	; 0x39d8 <f_mount+0x28>
    39b4:	e0 91 2e 02 	lds	r30, 0x022E
    39b8:	f0 91 2f 02 	lds	r31, 0x022F
    39bc:	30 97       	sbiw	r30, 0x00	; 0
    39be:	09 f0       	breq	.+2      	; 0x39c2 <f_mount+0x12>
    39c0:	10 82       	st	Z, r1
    39c2:	61 15       	cp	r22, r1
    39c4:	71 05       	cpc	r23, r1
    39c6:	11 f0       	breq	.+4      	; 0x39cc <f_mount+0x1c>
    39c8:	fb 01       	movw	r30, r22
    39ca:	10 82       	st	Z, r1
    39cc:	70 93 2f 02 	sts	0x022F, r23
    39d0:	60 93 2e 02 	sts	0x022E, r22
    39d4:	80 e0       	ldi	r24, 0x00	; 0
    39d6:	08 95       	ret
    39d8:	8b e0       	ldi	r24, 0x0B	; 11
    39da:	08 95       	ret

000039dc <f_open>:
    39dc:	2f 92       	push	r2
    39de:	3f 92       	push	r3
    39e0:	4f 92       	push	r4
    39e2:	5f 92       	push	r5
    39e4:	6f 92       	push	r6
    39e6:	7f 92       	push	r7
    39e8:	8f 92       	push	r8
    39ea:	9f 92       	push	r9
    39ec:	af 92       	push	r10
    39ee:	bf 92       	push	r11
    39f0:	cf 92       	push	r12
    39f2:	df 92       	push	r13
    39f4:	ef 92       	push	r14
    39f6:	ff 92       	push	r15
    39f8:	0f 93       	push	r16
    39fa:	1f 93       	push	r17
    39fc:	df 93       	push	r29
    39fe:	cf 93       	push	r28
    3a00:	cd b7       	in	r28, 0x3d	; 61
    3a02:	de b7       	in	r29, 0x3e	; 62
    3a04:	ad 97       	sbiw	r28, 0x2d	; 45
    3a06:	0f b6       	in	r0, 0x3f	; 63
    3a08:	f8 94       	cli
    3a0a:	de bf       	out	0x3e, r29	; 62
    3a0c:	0f be       	out	0x3f, r0	; 63
    3a0e:	cd bf       	out	0x3d, r28	; 61
    3a10:	6c 01       	movw	r12, r24
    3a12:	7c a3       	std	Y+36, r23	; 0x24
    3a14:	6b a3       	std	Y+35, r22	; 0x23
    3a16:	dc 01       	movw	r26, r24
    3a18:	1d 92       	st	X+, r1
    3a1a:	1c 92       	st	X, r1
    3a1c:	b4 2f       	mov	r27, r20
    3a1e:	bf 71       	andi	r27, 0x1F	; 31
    3a20:	bd a3       	std	Y+37, r27	; 0x25
    3a22:	5d e0       	ldi	r21, 0x0D	; 13
    3a24:	e5 2e       	mov	r14, r21
    3a26:	f1 2c       	mov	r15, r1
    3a28:	ec 0e       	add	r14, r28
    3a2a:	fd 1e       	adc	r15, r29
    3a2c:	4e 71       	andi	r20, 0x1E	; 30
    3a2e:	ce 01       	movw	r24, r28
    3a30:	83 96       	adiw	r24, 0x23	; 35
    3a32:	b7 01       	movw	r22, r14
    3a34:	0e 94 27 13 	call	0x264e	; 0x264e <chk_mounted>
    3a38:	18 2f       	mov	r17, r24
    3a3a:	ce 01       	movw	r24, r28
    3a3c:	01 96       	adiw	r24, 0x01	; 1
    3a3e:	9a a3       	std	Y+34, r25	; 0x22
    3a40:	89 a3       	std	Y+33, r24	; 0x21
    3a42:	11 23       	and	r17, r17
    3a44:	31 f4       	brne	.+12     	; 0x3a52 <f_open+0x76>
    3a46:	6b a1       	ldd	r22, Y+35	; 0x23
    3a48:	7c a1       	ldd	r23, Y+36	; 0x24
    3a4a:	c7 01       	movw	r24, r14
    3a4c:	0e 94 b0 1b 	call	0x3760	; 0x3760 <follow_path>
    3a50:	18 2f       	mov	r17, r24
    3a52:	ef 8c       	ldd	r14, Y+31	; 0x1f
    3a54:	f8 a0       	ldd	r15, Y+32	; 0x20
    3a56:	11 23       	and	r17, r17
    3a58:	21 f4       	brne	.+8      	; 0x3a62 <f_open+0x86>
    3a5a:	e1 14       	cp	r14, r1
    3a5c:	f1 04       	cpc	r15, r1
    3a5e:	09 f4       	brne	.+2      	; 0x3a62 <f_open+0x86>
    3a60:	16 e0       	ldi	r17, 0x06	; 6
    3a62:	ed a1       	ldd	r30, Y+37	; 0x25
    3a64:	8e 2f       	mov	r24, r30
    3a66:	90 e0       	ldi	r25, 0x00	; 0
    3a68:	9c 01       	movw	r18, r24
    3a6a:	2c 71       	andi	r18, 0x1C	; 28
    3a6c:	30 70       	andi	r19, 0x00	; 0
    3a6e:	21 15       	cp	r18, r1
    3a70:	31 05       	cpc	r19, r1
    3a72:	09 f4       	brne	.+2      	; 0x3a76 <f_open+0x9a>
    3a74:	02 c1       	rjmp	.+516    	; 0x3c7a <f_open+0x29e>
    3a76:	11 23       	and	r17, r17
    3a78:	09 f4       	brne	.+2      	; 0x3a7c <f_open+0xa0>
    3a7a:	4d c0       	rjmp	.+154    	; 0x3b16 <f_open+0x13a>
    3a7c:	14 30       	cpi	r17, 0x04	; 4
    3a7e:	09 f0       	breq	.+2      	; 0x3a82 <f_open+0xa6>
    3a80:	41 c0       	rjmp	.+130    	; 0x3b04 <f_open+0x128>
    3a82:	4d e0       	ldi	r20, 0x0D	; 13
    3a84:	e4 2e       	mov	r14, r20
    3a86:	f1 2c       	mov	r15, r1
    3a88:	ec 0e       	add	r14, r28
    3a8a:	fd 1e       	adc	r15, r29
    3a8c:	c7 01       	movw	r24, r14
    3a8e:	0e 94 46 18 	call	0x308c	; 0x308c <dir_sdi.clone.1>
    3a92:	18 2f       	mov	r17, r24
    3a94:	88 23       	and	r24, r24
    3a96:	b1 f5       	brne	.+108    	; 0x3b04 <f_open+0x128>
    3a98:	ae 2c       	mov	r10, r14
    3a9a:	ef 2c       	mov	r14, r15
    3a9c:	4b 8d       	ldd	r20, Y+27	; 0x1b
    3a9e:	5c 8d       	ldd	r21, Y+28	; 0x1c
    3aa0:	6d 8d       	ldd	r22, Y+29	; 0x1d
    3aa2:	7e 8d       	ldd	r23, Y+30	; 0x1e
    3aa4:	8d 85       	ldd	r24, Y+13	; 0x0d
    3aa6:	9e 85       	ldd	r25, Y+14	; 0x0e
    3aa8:	0e 94 13 12 	call	0x2426	; 0x2426 <move_window>
    3aac:	18 2f       	mov	r17, r24
    3aae:	88 23       	and	r24, r24
    3ab0:	49 f5       	brne	.+82     	; 0x3b04 <f_open+0x128>
    3ab2:	ef 8d       	ldd	r30, Y+31	; 0x1f
    3ab4:	f8 a1       	ldd	r31, Y+32	; 0x20
    3ab6:	80 81       	ld	r24, Z
    3ab8:	85 3e       	cpi	r24, 0xE5	; 229
    3aba:	09 f4       	brne	.+2      	; 0x3abe <f_open+0xe2>
    3abc:	80 c1       	rjmp	.+768    	; 0x3dbe <f_open+0x3e2>
    3abe:	88 23       	and	r24, r24
    3ac0:	09 f4       	brne	.+2      	; 0x3ac4 <f_open+0xe8>
    3ac2:	7d c1       	rjmp	.+762    	; 0x3dbe <f_open+0x3e2>
    3ac4:	8a 2d       	mov	r24, r10
    3ac6:	9e 2d       	mov	r25, r14
    3ac8:	61 e0       	ldi	r22, 0x01	; 1
    3aca:	70 e0       	ldi	r23, 0x00	; 0
    3acc:	0e 94 98 1a 	call	0x3530	; 0x3530 <dir_next>
    3ad0:	18 2f       	mov	r17, r24
    3ad2:	88 23       	and	r24, r24
    3ad4:	19 f3       	breq	.-58     	; 0x3a9c <f_open+0xc0>
    3ad6:	16 c0       	rjmp	.+44     	; 0x3b04 <f_open+0x128>
    3ad8:	8f 8d       	ldd	r24, Y+31	; 0x1f
    3ada:	98 a1       	ldd	r25, Y+32	; 0x20
    3adc:	28 2f       	mov	r18, r24
    3ade:	39 2f       	mov	r19, r25
    3ae0:	f9 01       	movw	r30, r18
    3ae2:	21 e2       	ldi	r18, 0x21	; 33
    3ae4:	30 e0       	ldi	r19, 0x00	; 0
    3ae6:	01 c0       	rjmp	.+2      	; 0x3aea <f_open+0x10e>
    3ae8:	11 92       	st	Z+, r1
    3aea:	21 50       	subi	r18, 0x01	; 1
    3aec:	30 40       	sbci	r19, 0x00	; 0
    3aee:	e1 f7       	brne	.-8      	; 0x3ae8 <f_open+0x10c>
    3af0:	69 a1       	ldd	r22, Y+33	; 0x21
    3af2:	7a a1       	ldd	r23, Y+34	; 0x22
    3af4:	4b e0       	ldi	r20, 0x0B	; 11
    3af6:	50 e0       	ldi	r21, 0x00	; 0
    3af8:	0e 94 ee 11 	call	0x23dc	; 0x23dc <mem_cpy>
    3afc:	ed 85       	ldd	r30, Y+13	; 0x0d
    3afe:	fe 85       	ldd	r31, Y+14	; 0x0e
    3b00:	81 e0       	ldi	r24, 0x01	; 1
    3b02:	84 83       	std	Z+4, r24	; 0x04
    3b04:	ef 8c       	ldd	r14, Y+31	; 0x1f
    3b06:	f8 a0       	ldd	r15, Y+32	; 0x20
    3b08:	11 23       	and	r17, r17
    3b0a:	09 f0       	breq	.+2      	; 0x3b0e <f_open+0x132>
    3b0c:	3e c1       	rjmp	.+636    	; 0x3d8a <f_open+0x3ae>
    3b0e:	fd a1       	ldd	r31, Y+37	; 0x25
    3b10:	f8 60       	ori	r31, 0x08	; 8
    3b12:	fd a3       	std	Y+37, r31	; 0x25
    3b14:	09 c0       	rjmp	.+18     	; 0x3b28 <f_open+0x14c>
    3b16:	d7 01       	movw	r26, r14
    3b18:	1b 96       	adiw	r26, 0x0b	; 11
    3b1a:	2c 91       	ld	r18, X
    3b1c:	1b 97       	sbiw	r26, 0x0b	; 11
    3b1e:	21 71       	andi	r18, 0x11	; 17
    3b20:	09 f0       	breq	.+2      	; 0x3b24 <f_open+0x148>
    3b22:	75 c1       	rjmp	.+746    	; 0x3e0e <f_open+0x432>
    3b24:	e2 fd       	sbrc	r30, 2
    3b26:	58 c1       	rjmp	.+688    	; 0x3dd8 <f_open+0x3fc>
    3b28:	bd a1       	ldd	r27, Y+37	; 0x25
    3b2a:	b3 ff       	sbrs	r27, 3
    3b2c:	b3 c0       	rjmp	.+358    	; 0x3c94 <f_open+0x2b8>
    3b2e:	0e 94 ea 11 	call	0x23d4	; 0x23d4 <get_fattime>
    3b32:	f7 01       	movw	r30, r14
    3b34:	66 87       	std	Z+14, r22	; 0x0e
    3b36:	77 87       	std	Z+15, r23	; 0x0f
    3b38:	80 8b       	std	Z+16, r24	; 0x10
    3b3a:	91 8b       	std	Z+17, r25	; 0x11
    3b3c:	13 86       	std	Z+11, r1	; 0x0b
    3b3e:	14 8e       	std	Z+28, r1	; 0x1c
    3b40:	15 8e       	std	Z+29, r1	; 0x1d
    3b42:	16 8e       	std	Z+30, r1	; 0x1e
    3b44:	17 8e       	std	Z+31, r1	; 0x1f
    3b46:	95 89       	ldd	r25, Z+21	; 0x15
    3b48:	80 e0       	ldi	r24, 0x00	; 0
    3b4a:	24 88       	ldd	r2, Z+20	; 0x14
    3b4c:	33 24       	eor	r3, r3
    3b4e:	28 2a       	or	r2, r24
    3b50:	39 2a       	or	r3, r25
    3b52:	44 24       	eor	r4, r4
    3b54:	55 24       	eor	r5, r5
    3b56:	21 01       	movw	r4, r2
    3b58:	33 24       	eor	r3, r3
    3b5a:	22 24       	eor	r2, r2
    3b5c:	33 8d       	ldd	r19, Z+27	; 0x1b
    3b5e:	20 e0       	ldi	r18, 0x00	; 0
    3b60:	82 8d       	ldd	r24, Z+26	; 0x1a
    3b62:	90 e0       	ldi	r25, 0x00	; 0
    3b64:	82 2b       	or	r24, r18
    3b66:	93 2b       	or	r25, r19
    3b68:	a0 e0       	ldi	r26, 0x00	; 0
    3b6a:	b0 e0       	ldi	r27, 0x00	; 0
    3b6c:	28 2a       	or	r2, r24
    3b6e:	39 2a       	or	r3, r25
    3b70:	4a 2a       	or	r4, r26
    3b72:	5b 2a       	or	r5, r27
    3b74:	12 8e       	std	Z+26, r1	; 0x1a
    3b76:	13 8e       	std	Z+27, r1	; 0x1b
    3b78:	14 8a       	std	Z+20, r1	; 0x14
    3b7a:	15 8a       	std	Z+21, r1	; 0x15
    3b7c:	ad 84       	ldd	r10, Y+13	; 0x0d
    3b7e:	be 84       	ldd	r11, Y+14	; 0x0e
    3b80:	81 e0       	ldi	r24, 0x01	; 1
    3b82:	d5 01       	movw	r26, r10
    3b84:	14 96       	adiw	r26, 0x04	; 4
    3b86:	8c 93       	st	X, r24
    3b88:	14 97       	sbiw	r26, 0x04	; 4
    3b8a:	21 14       	cp	r2, r1
    3b8c:	31 04       	cpc	r3, r1
    3b8e:	41 04       	cpc	r4, r1
    3b90:	51 04       	cpc	r5, r1
    3b92:	09 f4       	brne	.+2      	; 0x3b96 <f_open+0x1ba>
    3b94:	7f c0       	rjmp	.+254    	; 0x3c94 <f_open+0x2b8>
    3b96:	9a 96       	adiw	r26, 0x2a	; 42
    3b98:	8d 91       	ld	r24, X+
    3b9a:	9d 91       	ld	r25, X+
    3b9c:	0d 90       	ld	r0, X+
    3b9e:	bc 91       	ld	r27, X
    3ba0:	a0 2d       	mov	r26, r0
    3ba2:	8a a7       	std	Y+42, r24	; 0x2a
    3ba4:	9b a7       	std	Y+43, r25	; 0x2b
    3ba6:	ac a7       	std	Y+44, r26	; 0x2c
    3ba8:	bd a7       	std	Y+45, r27	; 0x2d
    3baa:	b1 e0       	ldi	r27, 0x01	; 1
    3bac:	2b 16       	cp	r2, r27
    3bae:	31 04       	cpc	r3, r1
    3bb0:	41 04       	cpc	r4, r1
    3bb2:	51 04       	cpc	r5, r1
    3bb4:	09 f4       	brne	.+2      	; 0x3bb8 <f_open+0x1dc>
    3bb6:	5d c0       	rjmp	.+186    	; 0x3c72 <f_open+0x296>
    3bb8:	f5 01       	movw	r30, r10
    3bba:	86 89       	ldd	r24, Z+22	; 0x16
    3bbc:	97 89       	ldd	r25, Z+23	; 0x17
    3bbe:	a0 8d       	ldd	r26, Z+24	; 0x18
    3bc0:	b1 8d       	ldd	r27, Z+25	; 0x19
    3bc2:	28 16       	cp	r2, r24
    3bc4:	39 06       	cpc	r3, r25
    3bc6:	4a 06       	cpc	r4, r26
    3bc8:	5b 06       	cpc	r5, r27
    3bca:	08 f0       	brcs	.+2      	; 0x3bce <f_open+0x1f2>
    3bcc:	52 c0       	rjmp	.+164    	; 0x3c72 <f_open+0x296>
    3bce:	42 01       	movw	r8, r4
    3bd0:	31 01       	movw	r6, r2
    3bd2:	43 c0       	rjmp	.+134    	; 0x3c5a <f_open+0x27e>
    3bd4:	c5 01       	movw	r24, r10
    3bd6:	b4 01       	movw	r22, r8
    3bd8:	a3 01       	movw	r20, r6
    3bda:	0e 94 56 17 	call	0x2eac	; 0x2eac <get_fat>
    3bde:	6e a3       	std	Y+38, r22	; 0x26
    3be0:	7f a3       	std	Y+39, r23	; 0x27
    3be2:	88 a7       	std	Y+40, r24	; 0x28
    3be4:	99 a7       	std	Y+41, r25	; 0x29
    3be6:	61 15       	cp	r22, r1
    3be8:	71 05       	cpc	r23, r1
    3bea:	81 05       	cpc	r24, r1
    3bec:	91 05       	cpc	r25, r1
    3bee:	09 f4       	brne	.+2      	; 0x3bf2 <f_open+0x216>
    3bf0:	f5 c0       	rjmp	.+490    	; 0x3ddc <f_open+0x400>
    3bf2:	61 30       	cpi	r22, 0x01	; 1
    3bf4:	71 05       	cpc	r23, r1
    3bf6:	81 05       	cpc	r24, r1
    3bf8:	91 05       	cpc	r25, r1
    3bfa:	d9 f1       	breq	.+118    	; 0x3c72 <f_open+0x296>
    3bfc:	6f 3f       	cpi	r22, 0xFF	; 255
    3bfe:	ff ef       	ldi	r31, 0xFF	; 255
    3c00:	7f 07       	cpc	r23, r31
    3c02:	ff ef       	ldi	r31, 0xFF	; 255
    3c04:	8f 07       	cpc	r24, r31
    3c06:	ff ef       	ldi	r31, 0xFF	; 255
    3c08:	9f 07       	cpc	r25, r31
    3c0a:	a9 f1       	breq	.+106    	; 0x3c76 <f_open+0x29a>
    3c0c:	c5 01       	movw	r24, r10
    3c0e:	b4 01       	movw	r22, r8
    3c10:	a3 01       	movw	r20, r6
    3c12:	00 e0       	ldi	r16, 0x00	; 0
    3c14:	10 e0       	ldi	r17, 0x00	; 0
    3c16:	98 01       	movw	r18, r16
    3c18:	0e 94 c4 18 	call	0x3188	; 0x3188 <put_fat>
    3c1c:	18 2f       	mov	r17, r24
    3c1e:	88 23       	and	r24, r24
    3c20:	09 f0       	breq	.+2      	; 0x3c24 <f_open+0x248>
    3c22:	b3 c0       	rjmp	.+358    	; 0x3d8a <f_open+0x3ae>
    3c24:	f5 01       	movw	r30, r10
    3c26:	86 85       	ldd	r24, Z+14	; 0x0e
    3c28:	97 85       	ldd	r25, Z+15	; 0x0f
    3c2a:	a0 89       	ldd	r26, Z+16	; 0x10
    3c2c:	b1 89       	ldd	r27, Z+17	; 0x11
    3c2e:	8f 3f       	cpi	r24, 0xFF	; 255
    3c30:	ff ef       	ldi	r31, 0xFF	; 255
    3c32:	9f 07       	cpc	r25, r31
    3c34:	ff ef       	ldi	r31, 0xFF	; 255
    3c36:	af 07       	cpc	r26, r31
    3c38:	ff ef       	ldi	r31, 0xFF	; 255
    3c3a:	bf 07       	cpc	r27, r31
    3c3c:	51 f0       	breq	.+20     	; 0x3c52 <f_open+0x276>
    3c3e:	01 96       	adiw	r24, 0x01	; 1
    3c40:	a1 1d       	adc	r26, r1
    3c42:	b1 1d       	adc	r27, r1
    3c44:	f5 01       	movw	r30, r10
    3c46:	86 87       	std	Z+14, r24	; 0x0e
    3c48:	97 87       	std	Z+15, r25	; 0x0f
    3c4a:	a0 8b       	std	Z+16, r26	; 0x10
    3c4c:	b1 8b       	std	Z+17, r27	; 0x11
    3c4e:	21 e0       	ldi	r18, 0x01	; 1
    3c50:	25 83       	std	Z+5, r18	; 0x05
    3c52:	6e a0       	ldd	r6, Y+38	; 0x26
    3c54:	7f a0       	ldd	r7, Y+39	; 0x27
    3c56:	88 a4       	ldd	r8, Y+40	; 0x28
    3c58:	99 a4       	ldd	r9, Y+41	; 0x29
    3c5a:	f5 01       	movw	r30, r10
    3c5c:	86 89       	ldd	r24, Z+22	; 0x16
    3c5e:	97 89       	ldd	r25, Z+23	; 0x17
    3c60:	a0 8d       	ldd	r26, Z+24	; 0x18
    3c62:	b1 8d       	ldd	r27, Z+25	; 0x19
    3c64:	68 16       	cp	r6, r24
    3c66:	79 06       	cpc	r7, r25
    3c68:	8a 06       	cpc	r8, r26
    3c6a:	9b 06       	cpc	r9, r27
    3c6c:	08 f4       	brcc	.+2      	; 0x3c70 <f_open+0x294>
    3c6e:	b2 cf       	rjmp	.-156    	; 0x3bd4 <f_open+0x1f8>
    3c70:	b5 c0       	rjmp	.+362    	; 0x3ddc <f_open+0x400>
    3c72:	12 e0       	ldi	r17, 0x02	; 2
    3c74:	8a c0       	rjmp	.+276    	; 0x3d8a <f_open+0x3ae>
    3c76:	11 e0       	ldi	r17, 0x01	; 1
    3c78:	88 c0       	rjmp	.+272    	; 0x3d8a <f_open+0x3ae>
    3c7a:	11 23       	and	r17, r17
    3c7c:	09 f0       	breq	.+2      	; 0x3c80 <f_open+0x2a4>
    3c7e:	85 c0       	rjmp	.+266    	; 0x3d8a <f_open+0x3ae>
    3c80:	d7 01       	movw	r26, r14
    3c82:	1b 96       	adiw	r26, 0x0b	; 11
    3c84:	2c 91       	ld	r18, X
    3c86:	1b 97       	sbiw	r26, 0x0b	; 11
    3c88:	24 fd       	sbrc	r18, 4
    3c8a:	bf c0       	rjmp	.+382    	; 0x3e0a <f_open+0x42e>
    3c8c:	e1 ff       	sbrs	r30, 1
    3c8e:	02 c0       	rjmp	.+4      	; 0x3c94 <f_open+0x2b8>
    3c90:	20 fd       	sbrc	r18, 0
    3c92:	bd c0       	rjmp	.+378    	; 0x3e0e <f_open+0x432>
    3c94:	bd a1       	ldd	r27, Y+37	; 0x25
    3c96:	b3 ff       	sbrs	r27, 3
    3c98:	02 c0       	rjmp	.+4      	; 0x3c9e <f_open+0x2c2>
    3c9a:	b0 62       	ori	r27, 0x20	; 32
    3c9c:	bd a3       	std	Y+37, r27	; 0x25
    3c9e:	6d 85       	ldd	r22, Y+13	; 0x0d
    3ca0:	7e 85       	ldd	r23, Y+14	; 0x0e
    3ca2:	fb 01       	movw	r30, r22
    3ca4:	22 a5       	ldd	r18, Z+42	; 0x2a
    3ca6:	33 a5       	ldd	r19, Z+43	; 0x2b
    3ca8:	44 a5       	ldd	r20, Z+44	; 0x2c
    3caa:	55 a5       	ldd	r21, Z+45	; 0x2d
    3cac:	d6 01       	movw	r26, r12
    3cae:	5a 96       	adiw	r26, 0x1a	; 26
    3cb0:	2d 93       	st	X+, r18
    3cb2:	3d 93       	st	X+, r19
    3cb4:	4d 93       	st	X+, r20
    3cb6:	5c 93       	st	X, r21
    3cb8:	5d 97       	sbiw	r26, 0x1d	; 29
    3cba:	5f 96       	adiw	r26, 0x1f	; 31
    3cbc:	fc 92       	st	X, r15
    3cbe:	ee 92       	st	-X, r14
    3cc0:	5e 97       	sbiw	r26, 0x1e	; 30
    3cc2:	ed a1       	ldd	r30, Y+37	; 0x25
    3cc4:	14 96       	adiw	r26, 0x04	; 4
    3cc6:	ec 93       	st	X, r30
    3cc8:	d7 01       	movw	r26, r14
    3cca:	55 96       	adiw	r26, 0x15	; 21
    3ccc:	3c 91       	ld	r19, X
    3cce:	55 97       	sbiw	r26, 0x15	; 21
    3cd0:	20 e0       	ldi	r18, 0x00	; 0
    3cd2:	54 96       	adiw	r26, 0x14	; 20
    3cd4:	8c 91       	ld	r24, X
    3cd6:	90 e0       	ldi	r25, 0x00	; 0
    3cd8:	82 2b       	or	r24, r18
    3cda:	93 2b       	or	r25, r19
    3cdc:	a0 e0       	ldi	r26, 0x00	; 0
    3cde:	b0 e0       	ldi	r27, 0x00	; 0
    3ce0:	dc 01       	movw	r26, r24
    3ce2:	99 27       	eor	r25, r25
    3ce4:	88 27       	eor	r24, r24
    3ce6:	f7 01       	movw	r30, r14
    3ce8:	53 8d       	ldd	r21, Z+27	; 0x1b
    3cea:	40 e0       	ldi	r20, 0x00	; 0
    3cec:	22 8d       	ldd	r18, Z+26	; 0x1a
    3cee:	30 e0       	ldi	r19, 0x00	; 0
    3cf0:	24 2b       	or	r18, r20
    3cf2:	35 2b       	or	r19, r21
    3cf4:	40 e0       	ldi	r20, 0x00	; 0
    3cf6:	50 e0       	ldi	r21, 0x00	; 0
    3cf8:	82 2b       	or	r24, r18
    3cfa:	93 2b       	or	r25, r19
    3cfc:	a4 2b       	or	r26, r20
    3cfe:	b5 2b       	or	r27, r21
    3d00:	f6 01       	movw	r30, r12
    3d02:	86 87       	std	Z+14, r24	; 0x0e
    3d04:	97 87       	std	Z+15, r25	; 0x0f
    3d06:	a0 8b       	std	Z+16, r26	; 0x10
    3d08:	b1 8b       	std	Z+17, r27	; 0x11
    3d0a:	d7 01       	movw	r26, r14
    3d0c:	5f 96       	adiw	r26, 0x1f	; 31
    3d0e:	8c 91       	ld	r24, X
    3d10:	90 e0       	ldi	r25, 0x00	; 0
    3d12:	a0 e0       	ldi	r26, 0x00	; 0
    3d14:	b0 e0       	ldi	r27, 0x00	; 0
    3d16:	b8 2f       	mov	r27, r24
    3d18:	aa 27       	eor	r26, r26
    3d1a:	99 27       	eor	r25, r25
    3d1c:	88 27       	eor	r24, r24
    3d1e:	f7 01       	movw	r30, r14
    3d20:	26 8d       	ldd	r18, Z+30	; 0x1e
    3d22:	30 e0       	ldi	r19, 0x00	; 0
    3d24:	40 e0       	ldi	r20, 0x00	; 0
    3d26:	50 e0       	ldi	r21, 0x00	; 0
    3d28:	a9 01       	movw	r20, r18
    3d2a:	33 27       	eor	r19, r19
    3d2c:	22 27       	eor	r18, r18
    3d2e:	82 2b       	or	r24, r18
    3d30:	93 2b       	or	r25, r19
    3d32:	a4 2b       	or	r26, r20
    3d34:	b5 2b       	or	r27, r21
    3d36:	24 8d       	ldd	r18, Z+28	; 0x1c
    3d38:	30 e0       	ldi	r19, 0x00	; 0
    3d3a:	40 e0       	ldi	r20, 0x00	; 0
    3d3c:	50 e0       	ldi	r21, 0x00	; 0
    3d3e:	82 2b       	or	r24, r18
    3d40:	93 2b       	or	r25, r19
    3d42:	a4 2b       	or	r26, r20
    3d44:	b5 2b       	or	r27, r21
    3d46:	35 8d       	ldd	r19, Z+29	; 0x1d
    3d48:	20 e0       	ldi	r18, 0x00	; 0
    3d4a:	40 e0       	ldi	r20, 0x00	; 0
    3d4c:	50 e0       	ldi	r21, 0x00	; 0
    3d4e:	82 2b       	or	r24, r18
    3d50:	93 2b       	or	r25, r19
    3d52:	a4 2b       	or	r26, r20
    3d54:	b5 2b       	or	r27, r21
    3d56:	f6 01       	movw	r30, r12
    3d58:	82 87       	std	Z+10, r24	; 0x0a
    3d5a:	93 87       	std	Z+11, r25	; 0x0b
    3d5c:	a4 87       	std	Z+12, r26	; 0x0c
    3d5e:	b5 87       	std	Z+13, r27	; 0x0d
    3d60:	d6 01       	movw	r26, r12
    3d62:	16 96       	adiw	r26, 0x06	; 6
    3d64:	1d 92       	st	X+, r1
    3d66:	1d 92       	st	X+, r1
    3d68:	1d 92       	st	X+, r1
    3d6a:	1c 92       	st	X, r1
    3d6c:	19 97       	sbiw	r26, 0x09	; 9
    3d6e:	16 8a       	std	Z+22, r1	; 0x16
    3d70:	17 8a       	std	Z+23, r1	; 0x17
    3d72:	10 8e       	std	Z+24, r1	; 0x18
    3d74:	11 8e       	std	Z+25, r1	; 0x19
    3d76:	71 83       	std	Z+1, r23	; 0x01
    3d78:	60 83       	st	Z, r22
    3d7a:	db 01       	movw	r26, r22
    3d7c:	16 96       	adiw	r26, 0x06	; 6
    3d7e:	8d 91       	ld	r24, X+
    3d80:	9c 91       	ld	r25, X
    3d82:	17 97       	sbiw	r26, 0x07	; 7
    3d84:	93 83       	std	Z+3, r25	; 0x03
    3d86:	82 83       	std	Z+2, r24	; 0x02
    3d88:	10 e0       	ldi	r17, 0x00	; 0
    3d8a:	81 2f       	mov	r24, r17
    3d8c:	ad 96       	adiw	r28, 0x2d	; 45
    3d8e:	0f b6       	in	r0, 0x3f	; 63
    3d90:	f8 94       	cli
    3d92:	de bf       	out	0x3e, r29	; 62
    3d94:	0f be       	out	0x3f, r0	; 63
    3d96:	cd bf       	out	0x3d, r28	; 61
    3d98:	cf 91       	pop	r28
    3d9a:	df 91       	pop	r29
    3d9c:	1f 91       	pop	r17
    3d9e:	0f 91       	pop	r16
    3da0:	ff 90       	pop	r15
    3da2:	ef 90       	pop	r14
    3da4:	df 90       	pop	r13
    3da6:	cf 90       	pop	r12
    3da8:	bf 90       	pop	r11
    3daa:	af 90       	pop	r10
    3dac:	9f 90       	pop	r9
    3dae:	8f 90       	pop	r8
    3db0:	7f 90       	pop	r7
    3db2:	6f 90       	pop	r6
    3db4:	5f 90       	pop	r5
    3db6:	4f 90       	pop	r4
    3db8:	3f 90       	pop	r3
    3dba:	2f 90       	pop	r2
    3dbc:	08 95       	ret
    3dbe:	4b 8d       	ldd	r20, Y+27	; 0x1b
    3dc0:	5c 8d       	ldd	r21, Y+28	; 0x1c
    3dc2:	6d 8d       	ldd	r22, Y+29	; 0x1d
    3dc4:	7e 8d       	ldd	r23, Y+30	; 0x1e
    3dc6:	8d 85       	ldd	r24, Y+13	; 0x0d
    3dc8:	9e 85       	ldd	r25, Y+14	; 0x0e
    3dca:	0e 94 13 12 	call	0x2426	; 0x2426 <move_window>
    3dce:	18 2f       	mov	r17, r24
    3dd0:	88 23       	and	r24, r24
    3dd2:	09 f4       	brne	.+2      	; 0x3dd6 <f_open+0x3fa>
    3dd4:	81 ce       	rjmp	.-766    	; 0x3ad8 <f_open+0xfc>
    3dd6:	96 ce       	rjmp	.-724    	; 0x3b04 <f_open+0x128>
    3dd8:	18 e0       	ldi	r17, 0x08	; 8
    3dda:	d7 cf       	rjmp	.-82     	; 0x3d8a <f_open+0x3ae>
    3ddc:	8d 85       	ldd	r24, Y+13	; 0x0d
    3dde:	9e 85       	ldd	r25, Y+14	; 0x0e
    3de0:	08 94       	sec
    3de2:	21 08       	sbc	r2, r1
    3de4:	31 08       	sbc	r3, r1
    3de6:	41 08       	sbc	r4, r1
    3de8:	51 08       	sbc	r5, r1
    3dea:	fc 01       	movw	r30, r24
    3dec:	22 86       	std	Z+10, r2	; 0x0a
    3dee:	33 86       	std	Z+11, r3	; 0x0b
    3df0:	44 86       	std	Z+12, r4	; 0x0c
    3df2:	55 86       	std	Z+13, r5	; 0x0d
    3df4:	4a a5       	ldd	r20, Y+42	; 0x2a
    3df6:	5b a5       	ldd	r21, Y+43	; 0x2b
    3df8:	6c a5       	ldd	r22, Y+44	; 0x2c
    3dfa:	7d a5       	ldd	r23, Y+45	; 0x2d
    3dfc:	0e 94 13 12 	call	0x2426	; 0x2426 <move_window>
    3e00:	18 2f       	mov	r17, r24
    3e02:	88 23       	and	r24, r24
    3e04:	09 f4       	brne	.+2      	; 0x3e08 <f_open+0x42c>
    3e06:	46 cf       	rjmp	.-372    	; 0x3c94 <f_open+0x2b8>
    3e08:	c0 cf       	rjmp	.-128    	; 0x3d8a <f_open+0x3ae>
    3e0a:	14 e0       	ldi	r17, 0x04	; 4
    3e0c:	be cf       	rjmp	.-132    	; 0x3d8a <f_open+0x3ae>
    3e0e:	17 e0       	ldi	r17, 0x07	; 7
    3e10:	bc cf       	rjmp	.-136    	; 0x3d8a <f_open+0x3ae>

00003e12 <f_read>:
    3e12:	2f 92       	push	r2
    3e14:	3f 92       	push	r3
    3e16:	4f 92       	push	r4
    3e18:	5f 92       	push	r5
    3e1a:	6f 92       	push	r6
    3e1c:	7f 92       	push	r7
    3e1e:	8f 92       	push	r8
    3e20:	9f 92       	push	r9
    3e22:	af 92       	push	r10
    3e24:	bf 92       	push	r11
    3e26:	df 92       	push	r13
    3e28:	ef 92       	push	r14
    3e2a:	ff 92       	push	r15
    3e2c:	0f 93       	push	r16
    3e2e:	1f 93       	push	r17
    3e30:	df 93       	push	r29
    3e32:	cf 93       	push	r28
    3e34:	00 d0       	rcall	.+0      	; 0x3e36 <f_read+0x24>
    3e36:	00 d0       	rcall	.+0      	; 0x3e38 <f_read+0x26>
    3e38:	cd b7       	in	r28, 0x3d	; 61
    3e3a:	de b7       	in	r29, 0x3e	; 62
    3e3c:	9c 83       	std	Y+4, r25	; 0x04
    3e3e:	8b 83       	std	Y+3, r24	; 0x03
    3e40:	06 2f       	mov	r16, r22
    3e42:	a7 2e       	mov	r10, r23
    3e44:	7a 01       	movw	r14, r20
    3e46:	3a 83       	std	Y+2, r19	; 0x02
    3e48:	29 83       	std	Y+1, r18	; 0x01
    3e4a:	d9 01       	movw	r26, r18
    3e4c:	1d 92       	st	X+, r1
    3e4e:	1c 92       	st	X, r1
    3e50:	fc 01       	movw	r30, r24
    3e52:	62 81       	ldd	r22, Z+2	; 0x02
    3e54:	73 81       	ldd	r23, Z+3	; 0x03
    3e56:	80 81       	ld	r24, Z
    3e58:	91 81       	ldd	r25, Z+1	; 0x01
    3e5a:	0e 94 fd 11 	call	0x23fa	; 0x23fa <validate>
    3e5e:	d8 2e       	mov	r13, r24
    3e60:	88 23       	and	r24, r24
    3e62:	09 f0       	breq	.+2      	; 0x3e66 <f_read+0x54>
    3e64:	45 c1       	rjmp	.+650    	; 0x40f0 <f_read+0x2de>
    3e66:	ab 81       	ldd	r26, Y+3	; 0x03
    3e68:	bc 81       	ldd	r27, Y+4	; 0x04
    3e6a:	14 96       	adiw	r26, 0x04	; 4
    3e6c:	8c 91       	ld	r24, X
    3e6e:	14 97       	sbiw	r26, 0x04	; 4
    3e70:	87 fd       	sbrc	r24, 7
    3e72:	39 c1       	rjmp	.+626    	; 0x40e6 <f_read+0x2d4>
    3e74:	80 ff       	sbrs	r24, 0
    3e76:	3a c1       	rjmp	.+628    	; 0x40ec <f_read+0x2da>
    3e78:	1a 96       	adiw	r26, 0x0a	; 10
    3e7a:	8d 91       	ld	r24, X+
    3e7c:	9d 91       	ld	r25, X+
    3e7e:	0d 90       	ld	r0, X+
    3e80:	bc 91       	ld	r27, X
    3e82:	a0 2d       	mov	r26, r0
    3e84:	eb 81       	ldd	r30, Y+3	; 0x03
    3e86:	fc 81       	ldd	r31, Y+4	; 0x04
    3e88:	26 81       	ldd	r18, Z+6	; 0x06
    3e8a:	37 81       	ldd	r19, Z+7	; 0x07
    3e8c:	40 85       	ldd	r20, Z+8	; 0x08
    3e8e:	51 85       	ldd	r21, Z+9	; 0x09
    3e90:	82 1b       	sub	r24, r18
    3e92:	93 0b       	sbc	r25, r19
    3e94:	a4 0b       	sbc	r26, r20
    3e96:	b5 0b       	sbc	r27, r21
    3e98:	97 01       	movw	r18, r14
    3e9a:	40 e0       	ldi	r20, 0x00	; 0
    3e9c:	50 e0       	ldi	r21, 0x00	; 0
    3e9e:	82 17       	cp	r24, r18
    3ea0:	93 07       	cpc	r25, r19
    3ea2:	a4 07       	cpc	r26, r20
    3ea4:	b5 07       	cpc	r27, r21
    3ea6:	08 f4       	brcc	.+2      	; 0x3eaa <f_read+0x98>
    3ea8:	7c 01       	movw	r14, r24
    3eaa:	20 2e       	mov	r2, r16
    3eac:	3a 2c       	mov	r3, r10
    3eae:	16 c1       	rjmp	.+556    	; 0x40dc <f_read+0x2ca>
    3eb0:	ab 81       	ldd	r26, Y+3	; 0x03
    3eb2:	bc 81       	ldd	r27, Y+4	; 0x04
    3eb4:	16 96       	adiw	r26, 0x06	; 6
    3eb6:	2d 91       	ld	r18, X+
    3eb8:	3d 91       	ld	r19, X+
    3eba:	4d 91       	ld	r20, X+
    3ebc:	5c 91       	ld	r21, X
    3ebe:	19 97       	sbiw	r26, 0x09	; 9
    3ec0:	da 01       	movw	r26, r20
    3ec2:	c9 01       	movw	r24, r18
    3ec4:	91 70       	andi	r25, 0x01	; 1
    3ec6:	a0 70       	andi	r26, 0x00	; 0
    3ec8:	b0 70       	andi	r27, 0x00	; 0
    3eca:	00 97       	sbiw	r24, 0x00	; 0
    3ecc:	a1 05       	cpc	r26, r1
    3ece:	b1 05       	cpc	r27, r1
    3ed0:	09 f0       	breq	.+2      	; 0x3ed4 <f_read+0xc2>
    3ed2:	ac c0       	rjmp	.+344    	; 0x402c <f_read+0x21a>
    3ed4:	eb 81       	ldd	r30, Y+3	; 0x03
    3ed6:	fc 81       	ldd	r31, Y+4	; 0x04
    3ed8:	80 81       	ld	r24, Z
    3eda:	91 81       	ldd	r25, Z+1	; 0x01
    3edc:	49 01       	movw	r8, r18
    3ede:	5a 01       	movw	r10, r20
    3ee0:	19 e0       	ldi	r17, 0x09	; 9
    3ee2:	b6 94       	lsr	r11
    3ee4:	a7 94       	ror	r10
    3ee6:	97 94       	ror	r9
    3ee8:	87 94       	ror	r8
    3eea:	1a 95       	dec	r17
    3eec:	d1 f7       	brne	.-12     	; 0x3ee2 <f_read+0xd0>
    3eee:	dc 01       	movw	r26, r24
    3ef0:	12 96       	adiw	r26, 0x02	; 2
    3ef2:	0c 91       	ld	r16, X
    3ef4:	12 97       	sbiw	r26, 0x02	; 2
    3ef6:	01 50       	subi	r16, 0x01	; 1
    3ef8:	08 21       	and	r16, r8
    3efa:	41 f5       	brne	.+80     	; 0x3f4c <f_read+0x13a>
    3efc:	21 15       	cp	r18, r1
    3efe:	31 05       	cpc	r19, r1
    3f00:	41 05       	cpc	r20, r1
    3f02:	51 05       	cpc	r21, r1
    3f04:	29 f4       	brne	.+10     	; 0x3f10 <f_read+0xfe>
    3f06:	66 85       	ldd	r22, Z+14	; 0x0e
    3f08:	77 85       	ldd	r23, Z+15	; 0x0f
    3f0a:	80 89       	ldd	r24, Z+16	; 0x10
    3f0c:	91 89       	ldd	r25, Z+17	; 0x11
    3f0e:	08 c0       	rjmp	.+16     	; 0x3f20 <f_read+0x10e>
    3f10:	eb 81       	ldd	r30, Y+3	; 0x03
    3f12:	fc 81       	ldd	r31, Y+4	; 0x04
    3f14:	42 89       	ldd	r20, Z+18	; 0x12
    3f16:	53 89       	ldd	r21, Z+19	; 0x13
    3f18:	64 89       	ldd	r22, Z+20	; 0x14
    3f1a:	75 89       	ldd	r23, Z+21	; 0x15
    3f1c:	0e 94 56 17 	call	0x2eac	; 0x2eac <get_fat>
    3f20:	62 30       	cpi	r22, 0x02	; 2
    3f22:	71 05       	cpc	r23, r1
    3f24:	81 05       	cpc	r24, r1
    3f26:	91 05       	cpc	r25, r1
    3f28:	08 f1       	brcs	.+66     	; 0x3f6c <f_read+0x15a>
    3f2a:	6f 3f       	cpi	r22, 0xFF	; 255
    3f2c:	bf ef       	ldi	r27, 0xFF	; 255
    3f2e:	7b 07       	cpc	r23, r27
    3f30:	bf ef       	ldi	r27, 0xFF	; 255
    3f32:	8b 07       	cpc	r24, r27
    3f34:	bf ef       	ldi	r27, 0xFF	; 255
    3f36:	9b 07       	cpc	r25, r27
    3f38:	09 f4       	brne	.+2      	; 0x3f3c <f_read+0x12a>
    3f3a:	8c c0       	rjmp	.+280    	; 0x4054 <f_read+0x242>
    3f3c:	ab 81       	ldd	r26, Y+3	; 0x03
    3f3e:	bc 81       	ldd	r27, Y+4	; 0x04
    3f40:	52 96       	adiw	r26, 0x12	; 18
    3f42:	6d 93       	st	X+, r22
    3f44:	7d 93       	st	X+, r23
    3f46:	8d 93       	st	X+, r24
    3f48:	9c 93       	st	X, r25
    3f4a:	55 97       	sbiw	r26, 0x15	; 21
    3f4c:	eb 81       	ldd	r30, Y+3	; 0x03
    3f4e:	fc 81       	ldd	r31, Y+4	; 0x04
    3f50:	80 80       	ld	r8, Z
    3f52:	91 80       	ldd	r9, Z+1	; 0x01
    3f54:	42 89       	ldd	r20, Z+18	; 0x12
    3f56:	53 89       	ldd	r21, Z+19	; 0x13
    3f58:	64 89       	ldd	r22, Z+20	; 0x14
    3f5a:	75 89       	ldd	r23, Z+21	; 0x15
    3f5c:	c4 01       	movw	r24, r8
    3f5e:	0e 94 27 17 	call	0x2e4e	; 0x2e4e <clust2sect>
    3f62:	61 15       	cp	r22, r1
    3f64:	71 05       	cpc	r23, r1
    3f66:	81 05       	cpc	r24, r1
    3f68:	91 05       	cpc	r25, r1
    3f6a:	51 f4       	brne	.+20     	; 0x3f80 <f_read+0x16e>
    3f6c:	ab 81       	ldd	r26, Y+3	; 0x03
    3f6e:	bc 81       	ldd	r27, Y+4	; 0x04
    3f70:	14 96       	adiw	r26, 0x04	; 4
    3f72:	8c 91       	ld	r24, X
    3f74:	14 97       	sbiw	r26, 0x04	; 4
    3f76:	80 68       	ori	r24, 0x80	; 128
    3f78:	14 96       	adiw	r26, 0x04	; 4
    3f7a:	8c 93       	st	X, r24
    3f7c:	14 97       	sbiw	r26, 0x04	; 4
    3f7e:	b3 c0       	rjmp	.+358    	; 0x40e6 <f_read+0x2d4>
    3f80:	2b 01       	movw	r4, r22
    3f82:	3c 01       	movw	r6, r24
    3f84:	40 0e       	add	r4, r16
    3f86:	51 1c       	adc	r5, r1
    3f88:	61 1c       	adc	r6, r1
    3f8a:	71 1c       	adc	r7, r1
    3f8c:	57 01       	movw	r10, r14
    3f8e:	ab 2c       	mov	r10, r11
    3f90:	bb 24       	eor	r11, r11
    3f92:	a6 94       	lsr	r10
    3f94:	a1 14       	cp	r10, r1
    3f96:	b1 04       	cpc	r11, r1
    3f98:	09 f4       	brne	.+2      	; 0x3f9c <f_read+0x18a>
    3f9a:	42 c0       	rjmp	.+132    	; 0x4020 <f_read+0x20e>
    3f9c:	f4 01       	movw	r30, r8
    3f9e:	82 81       	ldd	r24, Z+2	; 0x02
    3fa0:	10 e0       	ldi	r17, 0x00	; 0
    3fa2:	95 01       	movw	r18, r10
    3fa4:	20 0f       	add	r18, r16
    3fa6:	31 1f       	adc	r19, r17
    3fa8:	90 e0       	ldi	r25, 0x00	; 0
    3faa:	82 17       	cp	r24, r18
    3fac:	93 07       	cpc	r25, r19
    3fae:	18 f4       	brcc	.+6      	; 0x3fb6 <f_read+0x1a4>
    3fb0:	5c 01       	movw	r10, r24
    3fb2:	a0 1a       	sub	r10, r16
    3fb4:	b1 0a       	sbc	r11, r17
    3fb6:	d4 01       	movw	r26, r8
    3fb8:	11 96       	adiw	r26, 0x01	; 1
    3fba:	8c 91       	ld	r24, X
    3fbc:	b1 01       	movw	r22, r2
    3fbe:	a3 01       	movw	r20, r6
    3fc0:	92 01       	movw	r18, r4
    3fc2:	0a 2d       	mov	r16, r10
    3fc4:	0e 94 6b 11 	call	0x22d6	; 0x22d6 <disk_read>
    3fc8:	88 23       	and	r24, r24
    3fca:	09 f0       	breq	.+2      	; 0x3fce <f_read+0x1bc>
    3fcc:	43 c0       	rjmp	.+134    	; 0x4054 <f_read+0x242>
    3fce:	ab 81       	ldd	r26, Y+3	; 0x03
    3fd0:	bc 81       	ldd	r27, Y+4	; 0x04
    3fd2:	ed 91       	ld	r30, X+
    3fd4:	fc 91       	ld	r31, X
    3fd6:	11 97       	sbiw	r26, 0x01	; 1
    3fd8:	84 81       	ldd	r24, Z+4	; 0x04
    3fda:	88 23       	and	r24, r24
    3fdc:	e1 f0       	breq	.+56     	; 0x4016 <f_read+0x204>
    3fde:	82 a5       	ldd	r24, Z+42	; 0x2a
    3fe0:	93 a5       	ldd	r25, Z+43	; 0x2b
    3fe2:	a4 a5       	ldd	r26, Z+44	; 0x2c
    3fe4:	b5 a5       	ldd	r27, Z+45	; 0x2d
    3fe6:	84 19       	sub	r24, r4
    3fe8:	95 09       	sbc	r25, r5
    3fea:	a6 09       	sbc	r26, r6
    3fec:	b7 09       	sbc	r27, r7
    3fee:	95 01       	movw	r18, r10
    3ff0:	40 e0       	ldi	r20, 0x00	; 0
    3ff2:	50 e0       	ldi	r21, 0x00	; 0
    3ff4:	82 17       	cp	r24, r18
    3ff6:	93 07       	cpc	r25, r19
    3ff8:	a4 07       	cpc	r26, r20
    3ffa:	b5 07       	cpc	r27, r21
    3ffc:	60 f4       	brcc	.+24     	; 0x4016 <f_read+0x204>
    3ffe:	98 2f       	mov	r25, r24
    4000:	88 27       	eor	r24, r24
    4002:	99 0f       	add	r25, r25
    4004:	bf 01       	movw	r22, r30
    4006:	62 5d       	subi	r22, 0xD2	; 210
    4008:	7f 4f       	sbci	r23, 0xFF	; 255
    400a:	82 0d       	add	r24, r2
    400c:	93 1d       	adc	r25, r3
    400e:	40 e0       	ldi	r20, 0x00	; 0
    4010:	52 e0       	ldi	r21, 0x02	; 2
    4012:	0e 94 ee 11 	call	0x23dc	; 0x23dc <mem_cpy>
    4016:	85 01       	movw	r16, r10
    4018:	10 2f       	mov	r17, r16
    401a:	00 27       	eor	r16, r16
    401c:	11 0f       	add	r17, r17
    401e:	3f c0       	rjmp	.+126    	; 0x409e <f_read+0x28c>
    4020:	eb 81       	ldd	r30, Y+3	; 0x03
    4022:	fc 81       	ldd	r31, Y+4	; 0x04
    4024:	46 8a       	std	Z+22, r4	; 0x16
    4026:	57 8a       	std	Z+23, r5	; 0x17
    4028:	60 8e       	std	Z+24, r6	; 0x18
    402a:	71 8e       	std	Z+25, r7	; 0x19
    402c:	ab 81       	ldd	r26, Y+3	; 0x03
    402e:	bc 81       	ldd	r27, Y+4	; 0x04
    4030:	16 96       	adiw	r26, 0x06	; 6
    4032:	8d 90       	ld	r8, X+
    4034:	9d 90       	ld	r9, X+
    4036:	ad 90       	ld	r10, X+
    4038:	bc 90       	ld	r11, X
    403a:	19 97       	sbiw	r26, 0x09	; 9
    403c:	56 96       	adiw	r26, 0x16	; 22
    403e:	4d 91       	ld	r20, X+
    4040:	5d 91       	ld	r21, X+
    4042:	6d 91       	ld	r22, X+
    4044:	7c 91       	ld	r23, X
    4046:	59 97       	sbiw	r26, 0x19	; 25
    4048:	8d 91       	ld	r24, X+
    404a:	9c 91       	ld	r25, X
    404c:	0e 94 13 12 	call	0x2426	; 0x2426 <move_window>
    4050:	88 23       	and	r24, r24
    4052:	41 f0       	breq	.+16     	; 0x4064 <f_read+0x252>
    4054:	eb 81       	ldd	r30, Y+3	; 0x03
    4056:	fc 81       	ldd	r31, Y+4	; 0x04
    4058:	84 81       	ldd	r24, Z+4	; 0x04
    405a:	80 68       	ori	r24, 0x80	; 128
    405c:	84 83       	std	Z+4, r24	; 0x04
    405e:	dd 24       	eor	r13, r13
    4060:	d3 94       	inc	r13
    4062:	46 c0       	rjmp	.+140    	; 0x40f0 <f_read+0x2de>
    4064:	c4 01       	movw	r24, r8
    4066:	91 70       	andi	r25, 0x01	; 1
    4068:	20 e0       	ldi	r18, 0x00	; 0
    406a:	32 e0       	ldi	r19, 0x02	; 2
    406c:	28 1b       	sub	r18, r24
    406e:	39 0b       	sbc	r19, r25
    4070:	87 01       	movw	r16, r14
    4072:	2e 15       	cp	r18, r14
    4074:	3f 05       	cpc	r19, r15
    4076:	08 f4       	brcc	.+2      	; 0x407a <f_read+0x268>
    4078:	89 01       	movw	r16, r18
    407a:	ab 81       	ldd	r26, Y+3	; 0x03
    407c:	bc 81       	ldd	r27, Y+4	; 0x04
    407e:	6d 91       	ld	r22, X+
    4080:	7c 91       	ld	r23, X
    4082:	11 97       	sbiw	r26, 0x01	; 1
    4084:	62 5d       	subi	r22, 0xD2	; 210
    4086:	7f 4f       	sbci	r23, 0xFF	; 255
    4088:	16 96       	adiw	r26, 0x06	; 6
    408a:	8d 91       	ld	r24, X+
    408c:	9c 91       	ld	r25, X
    408e:	17 97       	sbiw	r26, 0x07	; 7
    4090:	91 70       	andi	r25, 0x01	; 1
    4092:	68 0f       	add	r22, r24
    4094:	79 1f       	adc	r23, r25
    4096:	c1 01       	movw	r24, r2
    4098:	a8 01       	movw	r20, r16
    409a:	0e 94 ee 11 	call	0x23dc	; 0x23dc <mem_cpy>
    409e:	20 0e       	add	r2, r16
    40a0:	31 1e       	adc	r3, r17
    40a2:	98 01       	movw	r18, r16
    40a4:	40 e0       	ldi	r20, 0x00	; 0
    40a6:	50 e0       	ldi	r21, 0x00	; 0
    40a8:	eb 81       	ldd	r30, Y+3	; 0x03
    40aa:	fc 81       	ldd	r31, Y+4	; 0x04
    40ac:	86 81       	ldd	r24, Z+6	; 0x06
    40ae:	97 81       	ldd	r25, Z+7	; 0x07
    40b0:	a0 85       	ldd	r26, Z+8	; 0x08
    40b2:	b1 85       	ldd	r27, Z+9	; 0x09
    40b4:	82 0f       	add	r24, r18
    40b6:	93 1f       	adc	r25, r19
    40b8:	a4 1f       	adc	r26, r20
    40ba:	b5 1f       	adc	r27, r21
    40bc:	86 83       	std	Z+6, r24	; 0x06
    40be:	97 83       	std	Z+7, r25	; 0x07
    40c0:	a0 87       	std	Z+8, r26	; 0x08
    40c2:	b1 87       	std	Z+9, r27	; 0x09
    40c4:	a9 81       	ldd	r26, Y+1	; 0x01
    40c6:	ba 81       	ldd	r27, Y+2	; 0x02
    40c8:	8d 91       	ld	r24, X+
    40ca:	9c 91       	ld	r25, X
    40cc:	11 97       	sbiw	r26, 0x01	; 1
    40ce:	80 0f       	add	r24, r16
    40d0:	91 1f       	adc	r25, r17
    40d2:	11 96       	adiw	r26, 0x01	; 1
    40d4:	9c 93       	st	X, r25
    40d6:	8e 93       	st	-X, r24
    40d8:	e0 1a       	sub	r14, r16
    40da:	f1 0a       	sbc	r15, r17
    40dc:	e1 14       	cp	r14, r1
    40de:	f1 04       	cpc	r15, r1
    40e0:	09 f0       	breq	.+2      	; 0x40e4 <f_read+0x2d2>
    40e2:	e6 ce       	rjmp	.-564    	; 0x3eb0 <f_read+0x9e>
    40e4:	05 c0       	rjmp	.+10     	; 0x40f0 <f_read+0x2de>
    40e6:	72 e0       	ldi	r23, 0x02	; 2
    40e8:	d7 2e       	mov	r13, r23
    40ea:	02 c0       	rjmp	.+4      	; 0x40f0 <f_read+0x2de>
    40ec:	67 e0       	ldi	r22, 0x07	; 7
    40ee:	d6 2e       	mov	r13, r22
    40f0:	8d 2d       	mov	r24, r13
    40f2:	0f 90       	pop	r0
    40f4:	0f 90       	pop	r0
    40f6:	0f 90       	pop	r0
    40f8:	0f 90       	pop	r0
    40fa:	cf 91       	pop	r28
    40fc:	df 91       	pop	r29
    40fe:	1f 91       	pop	r17
    4100:	0f 91       	pop	r16
    4102:	ff 90       	pop	r15
    4104:	ef 90       	pop	r14
    4106:	df 90       	pop	r13
    4108:	bf 90       	pop	r11
    410a:	af 90       	pop	r10
    410c:	9f 90       	pop	r9
    410e:	8f 90       	pop	r8
    4110:	7f 90       	pop	r7
    4112:	6f 90       	pop	r6
    4114:	5f 90       	pop	r5
    4116:	4f 90       	pop	r4
    4118:	3f 90       	pop	r3
    411a:	2f 90       	pop	r2
    411c:	08 95       	ret

0000411e <f_write>:
    411e:	2f 92       	push	r2
    4120:	3f 92       	push	r3
    4122:	4f 92       	push	r4
    4124:	5f 92       	push	r5
    4126:	6f 92       	push	r6
    4128:	7f 92       	push	r7
    412a:	8f 92       	push	r8
    412c:	9f 92       	push	r9
    412e:	af 92       	push	r10
    4130:	bf 92       	push	r11
    4132:	cf 92       	push	r12
    4134:	df 92       	push	r13
    4136:	ef 92       	push	r14
    4138:	ff 92       	push	r15
    413a:	0f 93       	push	r16
    413c:	1f 93       	push	r17
    413e:	cf 93       	push	r28
    4140:	df 93       	push	r29
    4142:	ec 01       	movw	r28, r24
    4144:	06 2f       	mov	r16, r22
    4146:	e7 2e       	mov	r14, r23
    4148:	5a 01       	movw	r10, r20
    414a:	19 01       	movw	r2, r18
    414c:	f9 01       	movw	r30, r18
    414e:	11 82       	std	Z+1, r1	; 0x01
    4150:	10 82       	st	Z, r1
    4152:	6a 81       	ldd	r22, Y+2	; 0x02
    4154:	7b 81       	ldd	r23, Y+3	; 0x03
    4156:	88 81       	ld	r24, Y
    4158:	99 81       	ldd	r25, Y+1	; 0x01
    415a:	0e 94 fd 11 	call	0x23fa	; 0x23fa <validate>
    415e:	18 2f       	mov	r17, r24
    4160:	88 23       	and	r24, r24
    4162:	09 f0       	breq	.+2      	; 0x4166 <f_write+0x48>
    4164:	6a c1       	rjmp	.+724    	; 0x443a <f_write+0x31c>
    4166:	8c 81       	ldd	r24, Y+4	; 0x04
    4168:	87 fd       	sbrc	r24, 7
    416a:	64 c1       	rjmp	.+712    	; 0x4434 <f_write+0x316>
    416c:	81 ff       	sbrs	r24, 1
    416e:	64 c1       	rjmp	.+712    	; 0x4438 <f_write+0x31a>
    4170:	2a 85       	ldd	r18, Y+10	; 0x0a
    4172:	3b 85       	ldd	r19, Y+11	; 0x0b
    4174:	4c 85       	ldd	r20, Y+12	; 0x0c
    4176:	5d 85       	ldd	r21, Y+13	; 0x0d
    4178:	c5 01       	movw	r24, r10
    417a:	a0 e0       	ldi	r26, 0x00	; 0
    417c:	b0 e0       	ldi	r27, 0x00	; 0
    417e:	82 0f       	add	r24, r18
    4180:	93 1f       	adc	r25, r19
    4182:	a4 1f       	adc	r26, r20
    4184:	b5 1f       	adc	r27, r21
    4186:	82 17       	cp	r24, r18
    4188:	93 07       	cpc	r25, r19
    418a:	a4 07       	cpc	r26, r20
    418c:	b5 07       	cpc	r27, r21
    418e:	10 f4       	brcc	.+4      	; 0x4194 <f_write+0x76>
    4190:	aa 24       	eor	r10, r10
    4192:	bb 24       	eor	r11, r11
    4194:	40 2e       	mov	r4, r16
    4196:	5e 2c       	mov	r5, r14
    4198:	34 c1       	rjmp	.+616    	; 0x4402 <f_write+0x2e4>
    419a:	2e 81       	ldd	r18, Y+6	; 0x06
    419c:	3f 81       	ldd	r19, Y+7	; 0x07
    419e:	48 85       	ldd	r20, Y+8	; 0x08
    41a0:	59 85       	ldd	r21, Y+9	; 0x09
    41a2:	da 01       	movw	r26, r20
    41a4:	c9 01       	movw	r24, r18
    41a6:	91 70       	andi	r25, 0x01	; 1
    41a8:	a0 70       	andi	r26, 0x00	; 0
    41aa:	b0 70       	andi	r27, 0x00	; 0
    41ac:	00 97       	sbiw	r24, 0x00	; 0
    41ae:	a1 05       	cpc	r26, r1
    41b0:	b1 05       	cpc	r27, r1
    41b2:	09 f0       	breq	.+2      	; 0x41b6 <f_write+0x98>
    41b4:	dd c0       	rjmp	.+442    	; 0x4370 <f_write+0x252>
    41b6:	88 81       	ld	r24, Y
    41b8:	99 81       	ldd	r25, Y+1	; 0x01
    41ba:	69 01       	movw	r12, r18
    41bc:	7a 01       	movw	r14, r20
    41be:	69 e0       	ldi	r22, 0x09	; 9
    41c0:	f6 94       	lsr	r15
    41c2:	e7 94       	ror	r14
    41c4:	d7 94       	ror	r13
    41c6:	c7 94       	ror	r12
    41c8:	6a 95       	dec	r22
    41ca:	d1 f7       	brne	.-12     	; 0x41c0 <f_write+0xa2>
    41cc:	fc 01       	movw	r30, r24
    41ce:	02 81       	ldd	r16, Z+2	; 0x02
    41d0:	01 50       	subi	r16, 0x01	; 1
    41d2:	0c 21       	and	r16, r12
    41d4:	d1 f5       	brne	.+116    	; 0x424a <f_write+0x12c>
    41d6:	21 15       	cp	r18, r1
    41d8:	31 05       	cpc	r19, r1
    41da:	41 05       	cpc	r20, r1
    41dc:	51 05       	cpc	r21, r1
    41de:	a9 f4       	brne	.+42     	; 0x420a <f_write+0xec>
    41e0:	2e 85       	ldd	r18, Y+14	; 0x0e
    41e2:	3f 85       	ldd	r19, Y+15	; 0x0f
    41e4:	48 89       	ldd	r20, Y+16	; 0x10
    41e6:	59 89       	ldd	r21, Y+17	; 0x11
    41e8:	21 15       	cp	r18, r1
    41ea:	31 05       	cpc	r19, r1
    41ec:	41 05       	cpc	r20, r1
    41ee:	51 05       	cpc	r21, r1
    41f0:	d1 f4       	brne	.+52     	; 0x4226 <f_write+0x108>
    41f2:	40 e0       	ldi	r20, 0x00	; 0
    41f4:	50 e0       	ldi	r21, 0x00	; 0
    41f6:	ba 01       	movw	r22, r20
    41f8:	0e 94 b9 19 	call	0x3372	; 0x3372 <create_chain>
    41fc:	9b 01       	movw	r18, r22
    41fe:	ac 01       	movw	r20, r24
    4200:	6e 87       	std	Y+14, r22	; 0x0e
    4202:	7f 87       	std	Y+15, r23	; 0x0f
    4204:	88 8b       	std	Y+16, r24	; 0x10
    4206:	99 8b       	std	Y+17, r25	; 0x11
    4208:	08 c0       	rjmp	.+16     	; 0x421a <f_write+0xfc>
    420a:	4a 89       	ldd	r20, Y+18	; 0x12
    420c:	5b 89       	ldd	r21, Y+19	; 0x13
    420e:	6c 89       	ldd	r22, Y+20	; 0x14
    4210:	7d 89       	ldd	r23, Y+21	; 0x15
    4212:	0e 94 b9 19 	call	0x3372	; 0x3372 <create_chain>
    4216:	9b 01       	movw	r18, r22
    4218:	ac 01       	movw	r20, r24
    421a:	21 15       	cp	r18, r1
    421c:	31 05       	cpc	r19, r1
    421e:	41 05       	cpc	r20, r1
    4220:	51 05       	cpc	r21, r1
    4222:	09 f4       	brne	.+2      	; 0x4226 <f_write+0x108>
    4224:	f2 c0       	rjmp	.+484    	; 0x440a <f_write+0x2ec>
    4226:	21 30       	cpi	r18, 0x01	; 1
    4228:	31 05       	cpc	r19, r1
    422a:	41 05       	cpc	r20, r1
    422c:	51 05       	cpc	r21, r1
    422e:	99 f1       	breq	.+102    	; 0x4296 <f_write+0x178>
    4230:	2f 3f       	cpi	r18, 0xFF	; 255
    4232:	ff ef       	ldi	r31, 0xFF	; 255
    4234:	3f 07       	cpc	r19, r31
    4236:	ff ef       	ldi	r31, 0xFF	; 255
    4238:	4f 07       	cpc	r20, r31
    423a:	ff ef       	ldi	r31, 0xFF	; 255
    423c:	5f 07       	cpc	r21, r31
    423e:	09 f4       	brne	.+2      	; 0x4242 <f_write+0x124>
    4240:	a5 c0       	rjmp	.+330    	; 0x438c <f_write+0x26e>
    4242:	2a 8b       	std	Y+18, r18	; 0x12
    4244:	3b 8b       	std	Y+19, r19	; 0x13
    4246:	4c 8b       	std	Y+20, r20	; 0x14
    4248:	5d 8b       	std	Y+21, r21	; 0x15
    424a:	e8 81       	ld	r30, Y
    424c:	f9 81       	ldd	r31, Y+1	; 0x01
    424e:	62 a5       	ldd	r22, Z+42	; 0x2a
    4250:	73 a5       	ldd	r23, Z+43	; 0x2b
    4252:	84 a5       	ldd	r24, Z+44	; 0x2c
    4254:	95 a5       	ldd	r25, Z+45	; 0x2d
    4256:	2e 89       	ldd	r18, Y+22	; 0x16
    4258:	3f 89       	ldd	r19, Y+23	; 0x17
    425a:	48 8d       	ldd	r20, Y+24	; 0x18
    425c:	59 8d       	ldd	r21, Y+25	; 0x19
    425e:	62 17       	cp	r22, r18
    4260:	73 07       	cpc	r23, r19
    4262:	84 07       	cpc	r24, r20
    4264:	95 07       	cpc	r25, r21
    4266:	49 f4       	brne	.+18     	; 0x427a <f_write+0x15c>
    4268:	cf 01       	movw	r24, r30
    426a:	40 e0       	ldi	r20, 0x00	; 0
    426c:	50 e0       	ldi	r21, 0x00	; 0
    426e:	ba 01       	movw	r22, r20
    4270:	0e 94 13 12 	call	0x2426	; 0x2426 <move_window>
    4274:	88 23       	and	r24, r24
    4276:	09 f0       	breq	.+2      	; 0x427a <f_write+0x15c>
    4278:	89 c0       	rjmp	.+274    	; 0x438c <f_write+0x26e>
    427a:	c8 80       	ld	r12, Y
    427c:	d9 80       	ldd	r13, Y+1	; 0x01
    427e:	4a 89       	ldd	r20, Y+18	; 0x12
    4280:	5b 89       	ldd	r21, Y+19	; 0x13
    4282:	6c 89       	ldd	r22, Y+20	; 0x14
    4284:	7d 89       	ldd	r23, Y+21	; 0x15
    4286:	c6 01       	movw	r24, r12
    4288:	0e 94 27 17 	call	0x2e4e	; 0x2e4e <clust2sect>
    428c:	61 15       	cp	r22, r1
    428e:	71 05       	cpc	r23, r1
    4290:	81 05       	cpc	r24, r1
    4292:	91 05       	cpc	r25, r1
    4294:	21 f4       	brne	.+8      	; 0x429e <f_write+0x180>
    4296:	8c 81       	ldd	r24, Y+4	; 0x04
    4298:	80 68       	ori	r24, 0x80	; 128
    429a:	8c 83       	std	Y+4, r24	; 0x04
    429c:	cb c0       	rjmp	.+406    	; 0x4434 <f_write+0x316>
    429e:	3b 01       	movw	r6, r22
    42a0:	4c 01       	movw	r8, r24
    42a2:	60 0e       	add	r6, r16
    42a4:	71 1c       	adc	r7, r1
    42a6:	81 1c       	adc	r8, r1
    42a8:	91 1c       	adc	r9, r1
    42aa:	75 01       	movw	r14, r10
    42ac:	ef 2c       	mov	r14, r15
    42ae:	ff 24       	eor	r15, r15
    42b0:	e6 94       	lsr	r14
    42b2:	e1 14       	cp	r14, r1
    42b4:	f1 04       	cpc	r15, r1
    42b6:	e9 f1       	breq	.+122    	; 0x4332 <f_write+0x214>
    42b8:	f6 01       	movw	r30, r12
    42ba:	22 81       	ldd	r18, Z+2	; 0x02
    42bc:	80 2f       	mov	r24, r16
    42be:	90 e0       	ldi	r25, 0x00	; 0
    42c0:	a7 01       	movw	r20, r14
    42c2:	48 0f       	add	r20, r24
    42c4:	59 1f       	adc	r21, r25
    42c6:	30 e0       	ldi	r19, 0x00	; 0
    42c8:	24 17       	cp	r18, r20
    42ca:	35 07       	cpc	r19, r21
    42cc:	18 f4       	brcc	.+6      	; 0x42d4 <f_write+0x1b6>
    42ce:	79 01       	movw	r14, r18
    42d0:	e8 1a       	sub	r14, r24
    42d2:	f9 0a       	sbc	r15, r25
    42d4:	f6 01       	movw	r30, r12
    42d6:	81 81       	ldd	r24, Z+1	; 0x01
    42d8:	b2 01       	movw	r22, r4
    42da:	a4 01       	movw	r20, r8
    42dc:	93 01       	movw	r18, r6
    42de:	0e 2d       	mov	r16, r14
    42e0:	0e 94 9d 11 	call	0x233a	; 0x233a <disk_write>
    42e4:	88 23       	and	r24, r24
    42e6:	09 f0       	breq	.+2      	; 0x42ea <f_write+0x1cc>
    42e8:	51 c0       	rjmp	.+162    	; 0x438c <f_write+0x26e>
    42ea:	e8 81       	ld	r30, Y
    42ec:	f9 81       	ldd	r31, Y+1	; 0x01
    42ee:	62 a5       	ldd	r22, Z+42	; 0x2a
    42f0:	73 a5       	ldd	r23, Z+43	; 0x2b
    42f2:	84 a5       	ldd	r24, Z+44	; 0x2c
    42f4:	95 a5       	ldd	r25, Z+45	; 0x2d
    42f6:	66 19       	sub	r22, r6
    42f8:	77 09       	sbc	r23, r7
    42fa:	88 09       	sbc	r24, r8
    42fc:	99 09       	sbc	r25, r9
    42fe:	97 01       	movw	r18, r14
    4300:	40 e0       	ldi	r20, 0x00	; 0
    4302:	50 e0       	ldi	r21, 0x00	; 0
    4304:	62 17       	cp	r22, r18
    4306:	73 07       	cpc	r23, r19
    4308:	84 07       	cpc	r24, r20
    430a:	95 07       	cpc	r25, r21
    430c:	70 f4       	brcc	.+28     	; 0x432a <f_write+0x20c>
    430e:	76 2f       	mov	r23, r22
    4310:	66 27       	eor	r22, r22
    4312:	77 0f       	add	r23, r23
    4314:	64 0d       	add	r22, r4
    4316:	75 1d       	adc	r23, r5
    4318:	cf 01       	movw	r24, r30
    431a:	8e 96       	adiw	r24, 0x2e	; 46
    431c:	40 e0       	ldi	r20, 0x00	; 0
    431e:	52 e0       	ldi	r21, 0x02	; 2
    4320:	0e 94 ee 11 	call	0x23dc	; 0x23dc <mem_cpy>
    4324:	e8 81       	ld	r30, Y
    4326:	f9 81       	ldd	r31, Y+1	; 0x01
    4328:	14 82       	std	Z+4, r1	; 0x04
    432a:	fe 2c       	mov	r15, r14
    432c:	ee 24       	eor	r14, r14
    432e:	ff 0c       	add	r15, r15
    4330:	4e c0       	rjmp	.+156    	; 0x43ce <f_write+0x2b0>
    4332:	2e 81       	ldd	r18, Y+6	; 0x06
    4334:	3f 81       	ldd	r19, Y+7	; 0x07
    4336:	48 85       	ldd	r20, Y+8	; 0x08
    4338:	59 85       	ldd	r21, Y+9	; 0x09
    433a:	8a 85       	ldd	r24, Y+10	; 0x0a
    433c:	9b 85       	ldd	r25, Y+11	; 0x0b
    433e:	ac 85       	ldd	r26, Y+12	; 0x0c
    4340:	bd 85       	ldd	r27, Y+13	; 0x0d
    4342:	28 17       	cp	r18, r24
    4344:	39 07       	cpc	r19, r25
    4346:	4a 07       	cpc	r20, r26
    4348:	5b 07       	cpc	r21, r27
    434a:	70 f0       	brcs	.+28     	; 0x4368 <f_write+0x24a>
    434c:	c6 01       	movw	r24, r12
    434e:	40 e0       	ldi	r20, 0x00	; 0
    4350:	50 e0       	ldi	r21, 0x00	; 0
    4352:	ba 01       	movw	r22, r20
    4354:	0e 94 13 12 	call	0x2426	; 0x2426 <move_window>
    4358:	88 23       	and	r24, r24
    435a:	c1 f4       	brne	.+48     	; 0x438c <f_write+0x26e>
    435c:	e8 81       	ld	r30, Y
    435e:	f9 81       	ldd	r31, Y+1	; 0x01
    4360:	62 a6       	std	Z+42, r6	; 0x2a
    4362:	73 a6       	std	Z+43, r7	; 0x2b
    4364:	84 a6       	std	Z+44, r8	; 0x2c
    4366:	95 a6       	std	Z+45, r9	; 0x2d
    4368:	6e 8a       	std	Y+22, r6	; 0x16
    436a:	7f 8a       	std	Y+23, r7	; 0x17
    436c:	88 8e       	std	Y+24, r8	; 0x18
    436e:	99 8e       	std	Y+25, r9	; 0x19
    4370:	ce 80       	ldd	r12, Y+6	; 0x06
    4372:	df 80       	ldd	r13, Y+7	; 0x07
    4374:	e8 84       	ldd	r14, Y+8	; 0x08
    4376:	f9 84       	ldd	r15, Y+9	; 0x09
    4378:	4e 89       	ldd	r20, Y+22	; 0x16
    437a:	5f 89       	ldd	r21, Y+23	; 0x17
    437c:	68 8d       	ldd	r22, Y+24	; 0x18
    437e:	79 8d       	ldd	r23, Y+25	; 0x19
    4380:	88 81       	ld	r24, Y
    4382:	99 81       	ldd	r25, Y+1	; 0x01
    4384:	0e 94 13 12 	call	0x2426	; 0x2426 <move_window>
    4388:	88 23       	and	r24, r24
    438a:	29 f0       	breq	.+10     	; 0x4396 <f_write+0x278>
    438c:	8c 81       	ldd	r24, Y+4	; 0x04
    438e:	80 68       	ori	r24, 0x80	; 128
    4390:	8c 83       	std	Y+4, r24	; 0x04
    4392:	11 e0       	ldi	r17, 0x01	; 1
    4394:	52 c0       	rjmp	.+164    	; 0x443a <f_write+0x31c>
    4396:	c6 01       	movw	r24, r12
    4398:	91 70       	andi	r25, 0x01	; 1
    439a:	20 e0       	ldi	r18, 0x00	; 0
    439c:	32 e0       	ldi	r19, 0x02	; 2
    439e:	28 1b       	sub	r18, r24
    43a0:	39 0b       	sbc	r19, r25
    43a2:	75 01       	movw	r14, r10
    43a4:	2a 15       	cp	r18, r10
    43a6:	3b 05       	cpc	r19, r11
    43a8:	08 f4       	brcc	.+2      	; 0x43ac <f_write+0x28e>
    43aa:	79 01       	movw	r14, r18
    43ac:	28 81       	ld	r18, Y
    43ae:	39 81       	ldd	r19, Y+1	; 0x01
    43b0:	22 5d       	subi	r18, 0xD2	; 210
    43b2:	3f 4f       	sbci	r19, 0xFF	; 255
    43b4:	8e 81       	ldd	r24, Y+6	; 0x06
    43b6:	9f 81       	ldd	r25, Y+7	; 0x07
    43b8:	91 70       	andi	r25, 0x01	; 1
    43ba:	82 0f       	add	r24, r18
    43bc:	93 1f       	adc	r25, r19
    43be:	b2 01       	movw	r22, r4
    43c0:	a7 01       	movw	r20, r14
    43c2:	0e 94 ee 11 	call	0x23dc	; 0x23dc <mem_cpy>
    43c6:	e8 81       	ld	r30, Y
    43c8:	f9 81       	ldd	r31, Y+1	; 0x01
    43ca:	31 e0       	ldi	r19, 0x01	; 1
    43cc:	34 83       	std	Z+4, r19	; 0x04
    43ce:	4e 0c       	add	r4, r14
    43d0:	5f 1c       	adc	r5, r15
    43d2:	97 01       	movw	r18, r14
    43d4:	40 e0       	ldi	r20, 0x00	; 0
    43d6:	50 e0       	ldi	r21, 0x00	; 0
    43d8:	8e 81       	ldd	r24, Y+6	; 0x06
    43da:	9f 81       	ldd	r25, Y+7	; 0x07
    43dc:	a8 85       	ldd	r26, Y+8	; 0x08
    43de:	b9 85       	ldd	r27, Y+9	; 0x09
    43e0:	82 0f       	add	r24, r18
    43e2:	93 1f       	adc	r25, r19
    43e4:	a4 1f       	adc	r26, r20
    43e6:	b5 1f       	adc	r27, r21
    43e8:	8e 83       	std	Y+6, r24	; 0x06
    43ea:	9f 83       	std	Y+7, r25	; 0x07
    43ec:	a8 87       	std	Y+8, r26	; 0x08
    43ee:	b9 87       	std	Y+9, r27	; 0x09
    43f0:	f1 01       	movw	r30, r2
    43f2:	80 81       	ld	r24, Z
    43f4:	91 81       	ldd	r25, Z+1	; 0x01
    43f6:	8e 0d       	add	r24, r14
    43f8:	9f 1d       	adc	r25, r15
    43fa:	91 83       	std	Z+1, r25	; 0x01
    43fc:	80 83       	st	Z, r24
    43fe:	ae 18       	sub	r10, r14
    4400:	bf 08       	sbc	r11, r15
    4402:	a1 14       	cp	r10, r1
    4404:	b1 04       	cpc	r11, r1
    4406:	09 f0       	breq	.+2      	; 0x440a <f_write+0x2ec>
    4408:	c8 ce       	rjmp	.-624    	; 0x419a <f_write+0x7c>
    440a:	8e 81       	ldd	r24, Y+6	; 0x06
    440c:	9f 81       	ldd	r25, Y+7	; 0x07
    440e:	a8 85       	ldd	r26, Y+8	; 0x08
    4410:	b9 85       	ldd	r27, Y+9	; 0x09
    4412:	2a 85       	ldd	r18, Y+10	; 0x0a
    4414:	3b 85       	ldd	r19, Y+11	; 0x0b
    4416:	4c 85       	ldd	r20, Y+12	; 0x0c
    4418:	5d 85       	ldd	r21, Y+13	; 0x0d
    441a:	28 17       	cp	r18, r24
    441c:	39 07       	cpc	r19, r25
    441e:	4a 07       	cpc	r20, r26
    4420:	5b 07       	cpc	r21, r27
    4422:	20 f4       	brcc	.+8      	; 0x442c <f_write+0x30e>
    4424:	8a 87       	std	Y+10, r24	; 0x0a
    4426:	9b 87       	std	Y+11, r25	; 0x0b
    4428:	ac 87       	std	Y+12, r26	; 0x0c
    442a:	bd 87       	std	Y+13, r27	; 0x0d
    442c:	8c 81       	ldd	r24, Y+4	; 0x04
    442e:	80 62       	ori	r24, 0x20	; 32
    4430:	8c 83       	std	Y+4, r24	; 0x04
    4432:	03 c0       	rjmp	.+6      	; 0x443a <f_write+0x31c>
    4434:	12 e0       	ldi	r17, 0x02	; 2
    4436:	01 c0       	rjmp	.+2      	; 0x443a <f_write+0x31c>
    4438:	17 e0       	ldi	r17, 0x07	; 7
    443a:	81 2f       	mov	r24, r17
    443c:	df 91       	pop	r29
    443e:	cf 91       	pop	r28
    4440:	1f 91       	pop	r17
    4442:	0f 91       	pop	r16
    4444:	ff 90       	pop	r15
    4446:	ef 90       	pop	r14
    4448:	df 90       	pop	r13
    444a:	cf 90       	pop	r12
    444c:	bf 90       	pop	r11
    444e:	af 90       	pop	r10
    4450:	9f 90       	pop	r9
    4452:	8f 90       	pop	r8
    4454:	7f 90       	pop	r7
    4456:	6f 90       	pop	r6
    4458:	5f 90       	pop	r5
    445a:	4f 90       	pop	r4
    445c:	3f 90       	pop	r3
    445e:	2f 90       	pop	r2
    4460:	08 95       	ret

00004462 <f_sync>:
    4462:	0f 93       	push	r16
    4464:	1f 93       	push	r17
    4466:	cf 93       	push	r28
    4468:	df 93       	push	r29
    446a:	ec 01       	movw	r28, r24
    446c:	6a 81       	ldd	r22, Y+2	; 0x02
    446e:	7b 81       	ldd	r23, Y+3	; 0x03
    4470:	88 81       	ld	r24, Y
    4472:	99 81       	ldd	r25, Y+1	; 0x01
    4474:	0e 94 fd 11 	call	0x23fa	; 0x23fa <validate>
    4478:	98 2f       	mov	r25, r24
    447a:	88 23       	and	r24, r24
    447c:	09 f0       	breq	.+2      	; 0x4480 <f_sync+0x1e>
    447e:	b6 c0       	rjmp	.+364    	; 0x45ec <f_sync+0x18a>
    4480:	8c 81       	ldd	r24, Y+4	; 0x04
    4482:	85 ff       	sbrs	r24, 5
    4484:	b3 c0       	rjmp	.+358    	; 0x45ec <f_sync+0x18a>
    4486:	4a 8d       	ldd	r20, Y+26	; 0x1a
    4488:	5b 8d       	ldd	r21, Y+27	; 0x1b
    448a:	6c 8d       	ldd	r22, Y+28	; 0x1c
    448c:	7d 8d       	ldd	r23, Y+29	; 0x1d
    448e:	88 81       	ld	r24, Y
    4490:	99 81       	ldd	r25, Y+1	; 0x01
    4492:	0e 94 13 12 	call	0x2426	; 0x2426 <move_window>
    4496:	98 2f       	mov	r25, r24
    4498:	88 23       	and	r24, r24
    449a:	09 f0       	breq	.+2      	; 0x449e <f_sync+0x3c>
    449c:	a7 c0       	rjmp	.+334    	; 0x45ec <f_sync+0x18a>
    449e:	0e 8d       	ldd	r16, Y+30	; 0x1e
    44a0:	1f 8d       	ldd	r17, Y+31	; 0x1f
    44a2:	f8 01       	movw	r30, r16
    44a4:	83 85       	ldd	r24, Z+11	; 0x0b
    44a6:	80 62       	ori	r24, 0x20	; 32
    44a8:	83 87       	std	Z+11, r24	; 0x0b
    44aa:	8a 85       	ldd	r24, Y+10	; 0x0a
    44ac:	84 8f       	std	Z+28, r24	; 0x1c
    44ae:	8b 85       	ldd	r24, Y+11	; 0x0b
    44b0:	85 8f       	std	Z+29, r24	; 0x1d
    44b2:	8c 85       	ldd	r24, Y+12	; 0x0c
    44b4:	86 8f       	std	Z+30, r24	; 0x1e
    44b6:	8d 85       	ldd	r24, Y+13	; 0x0d
    44b8:	87 8f       	std	Z+31, r24	; 0x1f
    44ba:	8e 85       	ldd	r24, Y+14	; 0x0e
    44bc:	82 8f       	std	Z+26, r24	; 0x1a
    44be:	8f 85       	ldd	r24, Y+15	; 0x0f
    44c0:	83 8f       	std	Z+27, r24	; 0x1b
    44c2:	88 89       	ldd	r24, Y+16	; 0x10
    44c4:	84 8b       	std	Z+20, r24	; 0x14
    44c6:	89 89       	ldd	r24, Y+17	; 0x11
    44c8:	85 8b       	std	Z+21, r24	; 0x15
    44ca:	0e 94 ea 11 	call	0x23d4	; 0x23d4 <get_fattime>
    44ce:	f8 01       	movw	r30, r16
    44d0:	66 8b       	std	Z+22, r22	; 0x16
    44d2:	77 8b       	std	Z+23, r23	; 0x17
    44d4:	80 8f       	std	Z+24, r24	; 0x18
    44d6:	91 8f       	std	Z+25, r25	; 0x19
    44d8:	8c 81       	ldd	r24, Y+4	; 0x04
    44da:	8f 7d       	andi	r24, 0xDF	; 223
    44dc:	8c 83       	std	Y+4, r24	; 0x04
    44de:	e8 81       	ld	r30, Y
    44e0:	f9 81       	ldd	r31, Y+1	; 0x01
    44e2:	81 e0       	ldi	r24, 0x01	; 1
    44e4:	84 83       	std	Z+4, r24	; 0x04
    44e6:	09 90       	ld	r0, Y+
    44e8:	d8 81       	ld	r29, Y
    44ea:	c0 2d       	mov	r28, r0
    44ec:	ce 01       	movw	r24, r28
    44ee:	40 e0       	ldi	r20, 0x00	; 0
    44f0:	50 e0       	ldi	r21, 0x00	; 0
    44f2:	ba 01       	movw	r22, r20
    44f4:	0e 94 13 12 	call	0x2426	; 0x2426 <move_window>
    44f8:	98 2f       	mov	r25, r24
    44fa:	88 23       	and	r24, r24
    44fc:	09 f0       	breq	.+2      	; 0x4500 <f_sync+0x9e>
    44fe:	76 c0       	rjmp	.+236    	; 0x45ec <f_sync+0x18a>
    4500:	88 81       	ld	r24, Y
    4502:	83 30       	cpi	r24, 0x03	; 3
    4504:	09 f0       	breq	.+2      	; 0x4508 <f_sync+0xa6>
    4506:	68 c0       	rjmp	.+208    	; 0x45d8 <f_sync+0x176>
    4508:	8d 81       	ldd	r24, Y+5	; 0x05
    450a:	88 23       	and	r24, r24
    450c:	09 f4       	brne	.+2      	; 0x4510 <f_sync+0xae>
    450e:	64 c0       	rjmp	.+200    	; 0x45d8 <f_sync+0x176>
    4510:	1a a6       	std	Y+42, r1	; 0x2a
    4512:	1b a6       	std	Y+43, r1	; 0x2b
    4514:	1c a6       	std	Y+44, r1	; 0x2c
    4516:	1d a6       	std	Y+45, r1	; 0x2d
    4518:	fe 01       	movw	r30, r28
    451a:	be 96       	adiw	r30, 0x2e	; 46
    451c:	ce 01       	movw	r24, r28
    451e:	82 5d       	subi	r24, 0xD2	; 210
    4520:	9d 4f       	sbci	r25, 0xFD	; 253
    4522:	01 c0       	rjmp	.+2      	; 0x4526 <f_sync+0xc4>
    4524:	11 92       	st	Z+, r1
    4526:	e8 17       	cp	r30, r24
    4528:	f9 07       	cpc	r31, r25
    452a:	e1 f7       	brne	.-8      	; 0x4524 <f_sync+0xc2>
    452c:	fe 01       	movw	r30, r28
    452e:	e4 5d       	subi	r30, 0xD4	; 212
    4530:	fd 4f       	sbci	r31, 0xFD	; 253
    4532:	85 e5       	ldi	r24, 0x55	; 85
    4534:	80 83       	st	Z, r24
    4536:	fe 01       	movw	r30, r28
    4538:	e3 5d       	subi	r30, 0xD3	; 211
    453a:	fd 4f       	sbci	r31, 0xFD	; 253
    453c:	8a ea       	ldi	r24, 0xAA	; 170
    453e:	80 83       	st	Z, r24
    4540:	82 e5       	ldi	r24, 0x52	; 82
    4542:	8e a7       	std	Y+46, r24	; 0x2e
    4544:	8f a7       	std	Y+47, r24	; 0x2f
    4546:	81 e6       	ldi	r24, 0x61	; 97
    4548:	88 ab       	std	Y+48, r24	; 0x30
    454a:	91 e4       	ldi	r25, 0x41	; 65
    454c:	99 ab       	std	Y+49, r25	; 0x31
    454e:	fe 01       	movw	r30, r28
    4550:	ee 5e       	subi	r30, 0xEE	; 238
    4552:	fd 4f       	sbci	r31, 0xFD	; 253
    4554:	22 e7       	ldi	r18, 0x72	; 114
    4556:	20 83       	st	Z, r18
    4558:	fe 01       	movw	r30, r28
    455a:	ed 5e       	subi	r30, 0xED	; 237
    455c:	fd 4f       	sbci	r31, 0xFD	; 253
    455e:	20 83       	st	Z, r18
    4560:	fe 01       	movw	r30, r28
    4562:	ec 5e       	subi	r30, 0xEC	; 236
    4564:	fd 4f       	sbci	r31, 0xFD	; 253
    4566:	90 83       	st	Z, r25
    4568:	fe 01       	movw	r30, r28
    456a:	eb 5e       	subi	r30, 0xEB	; 235
    456c:	fd 4f       	sbci	r31, 0xFD	; 253
    456e:	80 83       	st	Z, r24
    4570:	3e 85       	ldd	r19, Y+14	; 0x0e
    4572:	2f 85       	ldd	r18, Y+15	; 0x0f
    4574:	98 89       	ldd	r25, Y+16	; 0x10
    4576:	89 89       	ldd	r24, Y+17	; 0x11
    4578:	fe 01       	movw	r30, r28
    457a:	ea 5e       	subi	r30, 0xEA	; 234
    457c:	fd 4f       	sbci	r31, 0xFD	; 253
    457e:	30 83       	st	Z, r19
    4580:	fe 01       	movw	r30, r28
    4582:	e9 5e       	subi	r30, 0xE9	; 233
    4584:	fd 4f       	sbci	r31, 0xFD	; 253
    4586:	20 83       	st	Z, r18
    4588:	fe 01       	movw	r30, r28
    458a:	e8 5e       	subi	r30, 0xE8	; 232
    458c:	fd 4f       	sbci	r31, 0xFD	; 253
    458e:	90 83       	st	Z, r25
    4590:	fe 01       	movw	r30, r28
    4592:	e7 5e       	subi	r30, 0xE7	; 231
    4594:	fd 4f       	sbci	r31, 0xFD	; 253
    4596:	80 83       	st	Z, r24
    4598:	3a 85       	ldd	r19, Y+10	; 0x0a
    459a:	2b 85       	ldd	r18, Y+11	; 0x0b
    459c:	9c 85       	ldd	r25, Y+12	; 0x0c
    459e:	8d 85       	ldd	r24, Y+13	; 0x0d
    45a0:	fe 01       	movw	r30, r28
    45a2:	e6 5e       	subi	r30, 0xE6	; 230
    45a4:	fd 4f       	sbci	r31, 0xFD	; 253
    45a6:	30 83       	st	Z, r19
    45a8:	fe 01       	movw	r30, r28
    45aa:	e5 5e       	subi	r30, 0xE5	; 229
    45ac:	fd 4f       	sbci	r31, 0xFD	; 253
    45ae:	20 83       	st	Z, r18
    45b0:	fe 01       	movw	r30, r28
    45b2:	e4 5e       	subi	r30, 0xE4	; 228
    45b4:	fd 4f       	sbci	r31, 0xFD	; 253
    45b6:	90 83       	st	Z, r25
    45b8:	fe 01       	movw	r30, r28
    45ba:	e3 5e       	subi	r30, 0xE3	; 227
    45bc:	fd 4f       	sbci	r31, 0xFD	; 253
    45be:	80 83       	st	Z, r24
    45c0:	be 01       	movw	r22, r28
    45c2:	62 5d       	subi	r22, 0xD2	; 210
    45c4:	7f 4f       	sbci	r23, 0xFF	; 255
    45c6:	2a 89       	ldd	r18, Y+18	; 0x12
    45c8:	3b 89       	ldd	r19, Y+19	; 0x13
    45ca:	4c 89       	ldd	r20, Y+20	; 0x14
    45cc:	5d 89       	ldd	r21, Y+21	; 0x15
    45ce:	89 81       	ldd	r24, Y+1	; 0x01
    45d0:	01 e0       	ldi	r16, 0x01	; 1
    45d2:	0e 94 9d 11 	call	0x233a	; 0x233a <disk_write>
    45d6:	1d 82       	std	Y+5, r1	; 0x05
    45d8:	89 81       	ldd	r24, Y+1	; 0x01
    45da:	60 e0       	ldi	r22, 0x00	; 0
    45dc:	40 e0       	ldi	r20, 0x00	; 0
    45de:	50 e0       	ldi	r21, 0x00	; 0
    45e0:	0e 94 cf 11 	call	0x239e	; 0x239e <disk_ioctl>
    45e4:	91 e0       	ldi	r25, 0x01	; 1
    45e6:	88 23       	and	r24, r24
    45e8:	09 f4       	brne	.+2      	; 0x45ec <f_sync+0x18a>
    45ea:	90 e0       	ldi	r25, 0x00	; 0
    45ec:	89 2f       	mov	r24, r25
    45ee:	df 91       	pop	r29
    45f0:	cf 91       	pop	r28
    45f2:	1f 91       	pop	r17
    45f4:	0f 91       	pop	r16
    45f6:	08 95       	ret

000045f8 <f_close>:
    45f8:	cf 93       	push	r28
    45fa:	df 93       	push	r29
    45fc:	ec 01       	movw	r28, r24
    45fe:	0e 94 31 22 	call	0x4462	; 0x4462 <f_sync>
    4602:	88 23       	and	r24, r24
    4604:	11 f4       	brne	.+4      	; 0x460a <f_close+0x12>
    4606:	19 82       	std	Y+1, r1	; 0x01
    4608:	18 82       	st	Y, r1
    460a:	df 91       	pop	r29
    460c:	cf 91       	pop	r28
    460e:	08 95       	ret

00004610 <SD_sendCommand>:
    4610:	ef 92       	push	r14
    4612:	ff 92       	push	r15
    4614:	0f 93       	push	r16
    4616:	1f 93       	push	r17
    4618:	df 93       	push	r29
    461a:	cf 93       	push	r28
    461c:	0f 92       	push	r0
    461e:	cd b7       	in	r28, 0x3d	; 61
    4620:	de b7       	in	r29, 0x3e	; 62
    4622:	98 2f       	mov	r25, r24
    4624:	7a 01       	movw	r14, r20
    4626:	8b 01       	movw	r16, r22
    4628:	80 91 62 04 	lds	r24, 0x0462
    462c:	88 23       	and	r24, r24
    462e:	99 f4       	brne	.+38     	; 0x4656 <SD_sendCommand+0x46>
    4630:	89 2f       	mov	r24, r25
    4632:	81 51       	subi	r24, 0x11	; 17
    4634:	82 30       	cpi	r24, 0x02	; 2
    4636:	40 f0       	brcs	.+16     	; 0x4648 <SD_sendCommand+0x38>
    4638:	98 31       	cpi	r25, 0x18	; 24
    463a:	31 f0       	breq	.+12     	; 0x4648 <SD_sendCommand+0x38>
    463c:	99 31       	cpi	r25, 0x19	; 25
    463e:	21 f0       	breq	.+8      	; 0x4648 <SD_sendCommand+0x38>
    4640:	90 32       	cpi	r25, 0x20	; 32
    4642:	11 f0       	breq	.+4      	; 0x4648 <SD_sendCommand+0x38>
    4644:	91 32       	cpi	r25, 0x21	; 33
    4646:	39 f4       	brne	.+14     	; 0x4656 <SD_sendCommand+0x46>
    4648:	89 e0       	ldi	r24, 0x09	; 9
    464a:	ee 0c       	add	r14, r14
    464c:	ff 1c       	adc	r15, r15
    464e:	00 1f       	adc	r16, r16
    4650:	11 1f       	adc	r17, r17
    4652:	8a 95       	dec	r24
    4654:	d1 f7       	brne	.-12     	; 0x464a <SD_sendCommand+0x3a>
    4656:	2c 98       	cbi	0x05, 4	; 5
    4658:	89 2f       	mov	r24, r25
    465a:	80 64       	ori	r24, 0x40	; 64
    465c:	99 83       	std	Y+1, r25	; 0x01
    465e:	0e 94 a2 24 	call	0x4944	; 0x4944 <SPI_transmit>
    4662:	81 2f       	mov	r24, r17
    4664:	0e 94 a2 24 	call	0x4944	; 0x4944 <SPI_transmit>
    4668:	80 2f       	mov	r24, r16
    466a:	0e 94 a2 24 	call	0x4944	; 0x4944 <SPI_transmit>
    466e:	8f 2d       	mov	r24, r15
    4670:	0e 94 a2 24 	call	0x4944	; 0x4944 <SPI_transmit>
    4674:	8e 2d       	mov	r24, r14
    4676:	0e 94 a2 24 	call	0x4944	; 0x4944 <SPI_transmit>
    467a:	99 81       	ldd	r25, Y+1	; 0x01
    467c:	98 30       	cpi	r25, 0x08	; 8
    467e:	11 f4       	brne	.+4      	; 0x4684 <SD_sendCommand+0x74>
    4680:	87 e8       	ldi	r24, 0x87	; 135
    4682:	02 c0       	rjmp	.+4      	; 0x4688 <SD_sendCommand+0x78>
    4684:	85 e9       	ldi	r24, 0x95	; 149
    4686:	99 83       	std	Y+1, r25	; 0x01
    4688:	0e 94 a2 24 	call	0x4944	; 0x4944 <SPI_transmit>
    468c:	99 81       	ldd	r25, Y+1	; 0x01
    468e:	00 e0       	ldi	r16, 0x00	; 0
    4690:	02 c0       	rjmp	.+4      	; 0x4696 <SD_sendCommand+0x86>
    4692:	01 50       	subi	r16, 0x01	; 1
    4694:	e1 f0       	breq	.+56     	; 0x46ce <SD_sendCommand+0xbe>
    4696:	99 83       	std	Y+1, r25	; 0x01
    4698:	0e 94 a8 24 	call	0x4950	; 0x4950 <SPI_receive>
    469c:	18 2f       	mov	r17, r24
    469e:	99 81       	ldd	r25, Y+1	; 0x01
    46a0:	8f 3f       	cpi	r24, 0xFF	; 255
    46a2:	b9 f3       	breq	.-18     	; 0x4692 <SD_sendCommand+0x82>
    46a4:	88 23       	and	r24, r24
    46a6:	99 f4       	brne	.+38     	; 0x46ce <SD_sendCommand+0xbe>
    46a8:	9a 33       	cpi	r25, 0x3A	; 58
    46aa:	89 f4       	brne	.+34     	; 0x46ce <SD_sendCommand+0xbe>
    46ac:	0e 94 a8 24 	call	0x4950	; 0x4950 <SPI_receive>
    46b0:	86 ff       	sbrs	r24, 6
    46b2:	04 c0       	rjmp	.+8      	; 0x46bc <SD_sendCommand+0xac>
    46b4:	81 e0       	ldi	r24, 0x01	; 1
    46b6:	80 93 62 04 	sts	0x0462, r24
    46ba:	02 c0       	rjmp	.+4      	; 0x46c0 <SD_sendCommand+0xb0>
    46bc:	10 92 62 04 	sts	0x0462, r1
    46c0:	0e 94 a8 24 	call	0x4950	; 0x4950 <SPI_receive>
    46c4:	0e 94 a8 24 	call	0x4950	; 0x4950 <SPI_receive>
    46c8:	0e 94 a8 24 	call	0x4950	; 0x4950 <SPI_receive>
    46cc:	10 e0       	ldi	r17, 0x00	; 0
    46ce:	0e 94 a8 24 	call	0x4950	; 0x4950 <SPI_receive>
    46d2:	2c 9a       	sbi	0x05, 4	; 5
    46d4:	81 2f       	mov	r24, r17
    46d6:	0f 90       	pop	r0
    46d8:	cf 91       	pop	r28
    46da:	df 91       	pop	r29
    46dc:	1f 91       	pop	r17
    46de:	0f 91       	pop	r16
    46e0:	ff 90       	pop	r15
    46e2:	ef 90       	pop	r14
    46e4:	08 95       	ret

000046e6 <SD_init>:
    46e6:	1f 93       	push	r17
    46e8:	cf 93       	push	r28
    46ea:	df 93       	push	r29
    46ec:	5a 9a       	sbi	0x0b, 2	; 11
    46ee:	10 e0       	ldi	r17, 0x00	; 0
    46f0:	8f ef       	ldi	r24, 0xFF	; 255
    46f2:	0e 94 a2 24 	call	0x4944	; 0x4944 <SPI_transmit>
    46f6:	1f 5f       	subi	r17, 0xFF	; 255
    46f8:	1a 30       	cpi	r17, 0x0A	; 10
    46fa:	d1 f7       	brne	.-12     	; 0x46f0 <SD_init+0xa>
    46fc:	2c 98       	cbi	0x05, 4	; 5
    46fe:	c0 e0       	ldi	r28, 0x00	; 0
    4700:	d0 e0       	ldi	r29, 0x00	; 0
    4702:	80 e0       	ldi	r24, 0x00	; 0
    4704:	40 e0       	ldi	r20, 0x00	; 0
    4706:	50 e0       	ldi	r21, 0x00	; 0
    4708:	ba 01       	movw	r22, r20
    470a:	0e 94 08 23 	call	0x4610	; 0x4610 <SD_sendCommand>
    470e:	21 96       	adiw	r28, 0x01	; 1
    4710:	c1 32       	cpi	r28, 0x21	; 33
    4712:	d1 05       	cpc	r29, r1
    4714:	09 f4       	brne	.+2      	; 0x4718 <SD_init+0x32>
    4716:	52 c0       	rjmp	.+164    	; 0x47bc <SD_init+0xd6>
    4718:	81 30       	cpi	r24, 0x01	; 1
    471a:	99 f7       	brne	.-26     	; 0x4702 <SD_init+0x1c>
    471c:	2c 9a       	sbi	0x05, 4	; 5
    471e:	8f ef       	ldi	r24, 0xFF	; 255
    4720:	0e 94 a2 24 	call	0x4944	; 0x4944 <SPI_transmit>
    4724:	8f ef       	ldi	r24, 0xFF	; 255
    4726:	0e 94 a2 24 	call	0x4944	; 0x4944 <SPI_transmit>
    472a:	c0 e0       	ldi	r28, 0x00	; 0
    472c:	d0 e0       	ldi	r29, 0x00	; 0
    472e:	88 e0       	ldi	r24, 0x08	; 8
    4730:	4a ea       	ldi	r20, 0xAA	; 170
    4732:	51 e0       	ldi	r21, 0x01	; 1
    4734:	60 e0       	ldi	r22, 0x00	; 0
    4736:	70 e0       	ldi	r23, 0x00	; 0
    4738:	0e 94 08 23 	call	0x4610	; 0x4610 <SD_sendCommand>
    473c:	21 96       	adiw	r28, 0x01	; 1
    473e:	cf 3f       	cpi	r28, 0xFF	; 255
    4740:	d1 05       	cpc	r29, r1
    4742:	29 f4       	brne	.+10     	; 0x474e <SD_init+0x68>
    4744:	81 e0       	ldi	r24, 0x01	; 1
    4746:	80 93 67 04 	sts	0x0467, r24
    474a:	11 e0       	ldi	r17, 0x01	; 1
    474c:	03 c0       	rjmp	.+6      	; 0x4754 <SD_init+0x6e>
    474e:	81 30       	cpi	r24, 0x01	; 1
    4750:	71 f7       	brne	.-36     	; 0x472e <SD_init+0x48>
    4752:	12 e0       	ldi	r17, 0x02	; 2
    4754:	c0 e0       	ldi	r28, 0x00	; 0
    4756:	d0 e0       	ldi	r29, 0x00	; 0
    4758:	87 e3       	ldi	r24, 0x37	; 55
    475a:	40 e0       	ldi	r20, 0x00	; 0
    475c:	50 e0       	ldi	r21, 0x00	; 0
    475e:	ba 01       	movw	r22, r20
    4760:	0e 94 08 23 	call	0x4610	; 0x4610 <SD_sendCommand>
    4764:	89 e2       	ldi	r24, 0x29	; 41
    4766:	40 e0       	ldi	r20, 0x00	; 0
    4768:	50 e0       	ldi	r21, 0x00	; 0
    476a:	60 e0       	ldi	r22, 0x00	; 0
    476c:	70 e4       	ldi	r23, 0x40	; 64
    476e:	0e 94 08 23 	call	0x4610	; 0x4610 <SD_sendCommand>
    4772:	21 96       	adiw	r28, 0x01	; 1
    4774:	cf 3f       	cpi	r28, 0xFF	; 255
    4776:	d1 05       	cpc	r29, r1
    4778:	19 f1       	breq	.+70     	; 0x47c0 <SD_init+0xda>
    477a:	88 23       	and	r24, r24
    477c:	69 f7       	brne	.-38     	; 0x4758 <SD_init+0x72>
    477e:	10 92 62 04 	sts	0x0462, r1
    4782:	12 30       	cpi	r17, 0x02	; 2
    4784:	f9 f4       	brne	.+62     	; 0x47c4 <SD_init+0xde>
    4786:	c0 e0       	ldi	r28, 0x00	; 0
    4788:	d0 e0       	ldi	r29, 0x00	; 0
    478a:	8a e3       	ldi	r24, 0x3A	; 58
    478c:	40 e0       	ldi	r20, 0x00	; 0
    478e:	50 e0       	ldi	r21, 0x00	; 0
    4790:	ba 01       	movw	r22, r20
    4792:	0e 94 08 23 	call	0x4610	; 0x4610 <SD_sendCommand>
    4796:	21 96       	adiw	r28, 0x01	; 1
    4798:	cf 3f       	cpi	r28, 0xFF	; 255
    479a:	d1 05       	cpc	r29, r1
    479c:	19 f4       	brne	.+6      	; 0x47a4 <SD_init+0xbe>
    479e:	10 92 67 04 	sts	0x0467, r1
    47a2:	02 c0       	rjmp	.+4      	; 0x47a8 <SD_init+0xc2>
    47a4:	88 23       	and	r24, r24
    47a6:	89 f7       	brne	.-30     	; 0x478a <SD_init+0xa4>
    47a8:	80 91 62 04 	lds	r24, 0x0462
    47ac:	81 30       	cpi	r24, 0x01	; 1
    47ae:	11 f4       	brne	.+4      	; 0x47b4 <SD_init+0xce>
    47b0:	82 e0       	ldi	r24, 0x02	; 2
    47b2:	01 c0       	rjmp	.+2      	; 0x47b6 <SD_init+0xd0>
    47b4:	83 e0       	ldi	r24, 0x03	; 3
    47b6:	80 93 67 04 	sts	0x0467, r24
    47ba:	04 c0       	rjmp	.+8      	; 0x47c4 <SD_init+0xde>
    47bc:	81 e0       	ldi	r24, 0x01	; 1
    47be:	03 c0       	rjmp	.+6      	; 0x47c6 <SD_init+0xe0>
    47c0:	82 e0       	ldi	r24, 0x02	; 2
    47c2:	01 c0       	rjmp	.+2      	; 0x47c6 <SD_init+0xe0>
    47c4:	80 e0       	ldi	r24, 0x00	; 0
    47c6:	df 91       	pop	r29
    47c8:	cf 91       	pop	r28
    47ca:	1f 91       	pop	r17
    47cc:	08 95       	ret

000047ce <SD_checkCardAvailable>:
    47ce:	1f 93       	push	r17
    47d0:	89 b1       	in	r24, 0x09	; 9
    47d2:	18 2f       	mov	r17, r24
    47d4:	14 70       	andi	r17, 0x04	; 4
    47d6:	82 ff       	sbrs	r24, 2
    47d8:	06 c0       	rjmp	.+12     	; 0x47e6 <SD_checkCardAvailable+0x18>
    47da:	80 91 32 02 	lds	r24, 0x0232
    47de:	88 23       	and	r24, r24
    47e0:	11 f4       	brne	.+4      	; 0x47e6 <SD_checkCardAvailable+0x18>
    47e2:	0e 94 84 3a 	call	0x7508	; 0x7508 <preset_init>
    47e6:	10 93 32 02 	sts	0x0232, r17
    47ea:	1f 91       	pop	r17
    47ec:	08 95       	ret

000047ee <SD_readSingleBlockCustomBuffer>:
    47ee:	df 92       	push	r13
    47f0:	ef 92       	push	r14
    47f2:	ff 92       	push	r15
    47f4:	0f 93       	push	r16
    47f6:	1f 93       	push	r17
    47f8:	cf 93       	push	r28
    47fa:	df 93       	push	r29
    47fc:	8b 01       	movw	r16, r22
    47fe:	9c 01       	movw	r18, r24
    4800:	7a 01       	movw	r14, r20
    4802:	81 e1       	ldi	r24, 0x11	; 17
    4804:	b9 01       	movw	r22, r18
    4806:	a8 01       	movw	r20, r16
    4808:	0e 94 08 23 	call	0x4610	; 0x4610 <SD_sendCommand>
    480c:	d8 2e       	mov	r13, r24
    480e:	88 23       	and	r24, r24
    4810:	41 f5       	brne	.+80     	; 0x4862 <SD_readSingleBlockCustomBuffer+0x74>
    4812:	2c 98       	cbi	0x05, 4	; 5
    4814:	0f ef       	ldi	r16, 0xFF	; 255
    4816:	1f ef       	ldi	r17, 0xFF	; 255
    4818:	09 c0       	rjmp	.+18     	; 0x482c <SD_readSingleBlockCustomBuffer+0x3e>
    481a:	01 15       	cp	r16, r1
    481c:	11 05       	cpc	r17, r1
    481e:	21 f4       	brne	.+8      	; 0x4828 <SD_readSingleBlockCustomBuffer+0x3a>
    4820:	2c 9a       	sbi	0x05, 4	; 5
    4822:	dd 24       	eor	r13, r13
    4824:	d3 94       	inc	r13
    4826:	1d c0       	rjmp	.+58     	; 0x4862 <SD_readSingleBlockCustomBuffer+0x74>
    4828:	01 50       	subi	r16, 0x01	; 1
    482a:	10 40       	sbci	r17, 0x00	; 0
    482c:	0e 94 a8 24 	call	0x4950	; 0x4950 <SPI_receive>
    4830:	8e 3f       	cpi	r24, 0xFE	; 254
    4832:	99 f7       	brne	.-26     	; 0x481a <SD_readSingleBlockCustomBuffer+0x2c>
    4834:	8f 2d       	mov	r24, r15
    4836:	e7 01       	movw	r28, r14
    4838:	7e 01       	movw	r14, r28
    483a:	f8 2e       	mov	r15, r24
    483c:	e7 01       	movw	r28, r14
    483e:	00 e0       	ldi	r16, 0x00	; 0
    4840:	10 e0       	ldi	r17, 0x00	; 0
    4842:	0e 94 a8 24 	call	0x4950	; 0x4950 <SPI_receive>
    4846:	89 93       	st	Y+, r24
    4848:	0f 5f       	subi	r16, 0xFF	; 255
    484a:	1f 4f       	sbci	r17, 0xFF	; 255
    484c:	32 e0       	ldi	r19, 0x02	; 2
    484e:	00 30       	cpi	r16, 0x00	; 0
    4850:	13 07       	cpc	r17, r19
    4852:	b9 f7       	brne	.-18     	; 0x4842 <SD_readSingleBlockCustomBuffer+0x54>
    4854:	0e 94 a8 24 	call	0x4950	; 0x4950 <SPI_receive>
    4858:	0e 94 a8 24 	call	0x4950	; 0x4950 <SPI_receive>
    485c:	0e 94 a8 24 	call	0x4950	; 0x4950 <SPI_receive>
    4860:	2c 9a       	sbi	0x05, 4	; 5
    4862:	8d 2d       	mov	r24, r13
    4864:	df 91       	pop	r29
    4866:	cf 91       	pop	r28
    4868:	1f 91       	pop	r17
    486a:	0f 91       	pop	r16
    486c:	ff 90       	pop	r15
    486e:	ef 90       	pop	r14
    4870:	df 90       	pop	r13
    4872:	08 95       	ret

00004874 <SD_writeSingleBlockCustomBuffer>:
    4874:	df 92       	push	r13
    4876:	ef 92       	push	r14
    4878:	ff 92       	push	r15
    487a:	0f 93       	push	r16
    487c:	1f 93       	push	r17
    487e:	cf 93       	push	r28
    4880:	df 93       	push	r29
    4882:	8b 01       	movw	r16, r22
    4884:	9c 01       	movw	r18, r24
    4886:	7a 01       	movw	r14, r20
    4888:	88 e1       	ldi	r24, 0x18	; 24
    488a:	b9 01       	movw	r22, r18
    488c:	a8 01       	movw	r20, r16
    488e:	0e 94 08 23 	call	0x4610	; 0x4610 <SD_sendCommand>
    4892:	d8 2e       	mov	r13, r24
    4894:	88 23       	and	r24, r24
    4896:	09 f0       	breq	.+2      	; 0x489a <SD_writeSingleBlockCustomBuffer+0x26>
    4898:	43 c0       	rjmp	.+134    	; 0x4920 <SD_writeSingleBlockCustomBuffer+0xac>
    489a:	2c 98       	cbi	0x05, 4	; 5
    489c:	8e ef       	ldi	r24, 0xFE	; 254
    489e:	0e 94 a2 24 	call	0x4944	; 0x4944 <SPI_transmit>
    48a2:	8f 2d       	mov	r24, r15
    48a4:	f8 2e       	mov	r15, r24
    48a6:	e7 01       	movw	r28, r14
    48a8:	00 e0       	ldi	r16, 0x00	; 0
    48aa:	10 e0       	ldi	r17, 0x00	; 0
    48ac:	89 91       	ld	r24, Y+
    48ae:	0e 94 a2 24 	call	0x4944	; 0x4944 <SPI_transmit>
    48b2:	0f 5f       	subi	r16, 0xFF	; 255
    48b4:	1f 4f       	sbci	r17, 0xFF	; 255
    48b6:	32 e0       	ldi	r19, 0x02	; 2
    48b8:	00 30       	cpi	r16, 0x00	; 0
    48ba:	13 07       	cpc	r17, r19
    48bc:	b9 f7       	brne	.-18     	; 0x48ac <SD_writeSingleBlockCustomBuffer+0x38>
    48be:	8f ef       	ldi	r24, 0xFF	; 255
    48c0:	0e 94 a2 24 	call	0x4944	; 0x4944 <SPI_transmit>
    48c4:	8f ef       	ldi	r24, 0xFF	; 255
    48c6:	0e 94 a2 24 	call	0x4944	; 0x4944 <SPI_transmit>
    48ca:	0e 94 a8 24 	call	0x4950	; 0x4950 <SPI_receive>
    48ce:	98 2f       	mov	r25, r24
    48d0:	9f 71       	andi	r25, 0x1F	; 31
    48d2:	95 30       	cpi	r25, 0x05	; 5
    48d4:	19 f4       	brne	.+6      	; 0x48dc <SD_writeSingleBlockCustomBuffer+0x68>
    48d6:	00 e0       	ldi	r16, 0x00	; 0
    48d8:	10 e0       	ldi	r17, 0x00	; 0
    48da:	09 c0       	rjmp	.+18     	; 0x48ee <SD_writeSingleBlockCustomBuffer+0x7a>
    48dc:	2c 9a       	sbi	0x05, 4	; 5
    48de:	d8 2e       	mov	r13, r24
    48e0:	1f c0       	rjmp	.+62     	; 0x4920 <SD_writeSingleBlockCustomBuffer+0xac>
    48e2:	8f ef       	ldi	r24, 0xFF	; 255
    48e4:	0f 3f       	cpi	r16, 0xFF	; 255
    48e6:	18 07       	cpc	r17, r24
    48e8:	81 f0       	breq	.+32     	; 0x490a <SD_writeSingleBlockCustomBuffer+0x96>
    48ea:	0f 5f       	subi	r16, 0xFF	; 255
    48ec:	1f 4f       	sbci	r17, 0xFF	; 255
    48ee:	0e 94 a8 24 	call	0x4950	; 0x4950 <SPI_receive>
    48f2:	88 23       	and	r24, r24
    48f4:	b1 f3       	breq	.-20     	; 0x48e2 <SD_writeSingleBlockCustomBuffer+0x6e>
    48f6:	2c 9a       	sbi	0x05, 4	; 5
    48f8:	8f ef       	ldi	r24, 0xFF	; 255
    48fa:	0e 94 a2 24 	call	0x4944	; 0x4944 <SPI_transmit>
    48fe:	2c 98       	cbi	0x05, 4	; 5
    4900:	0a c0       	rjmp	.+20     	; 0x4916 <SD_writeSingleBlockCustomBuffer+0xa2>
    4902:	9f ef       	ldi	r25, 0xFF	; 255
    4904:	0f 3f       	cpi	r16, 0xFF	; 255
    4906:	19 07       	cpc	r17, r25
    4908:	21 f4       	brne	.+8      	; 0x4912 <SD_writeSingleBlockCustomBuffer+0x9e>
    490a:	2c 9a       	sbi	0x05, 4	; 5
    490c:	dd 24       	eor	r13, r13
    490e:	d3 94       	inc	r13
    4910:	07 c0       	rjmp	.+14     	; 0x4920 <SD_writeSingleBlockCustomBuffer+0xac>
    4912:	0f 5f       	subi	r16, 0xFF	; 255
    4914:	1f 4f       	sbci	r17, 0xFF	; 255
    4916:	0e 94 a8 24 	call	0x4950	; 0x4950 <SPI_receive>
    491a:	88 23       	and	r24, r24
    491c:	91 f3       	breq	.-28     	; 0x4902 <SD_writeSingleBlockCustomBuffer+0x8e>
    491e:	2c 9a       	sbi	0x05, 4	; 5
    4920:	8d 2d       	mov	r24, r13
    4922:	df 91       	pop	r29
    4924:	cf 91       	pop	r28
    4926:	1f 91       	pop	r17
    4928:	0f 91       	pop	r16
    492a:	ff 90       	pop	r15
    492c:	ef 90       	pop	r14
    492e:	df 90       	pop	r13
    4930:	08 95       	ret

00004932 <spi_init>:
    4932:	84 b1       	in	r24, 0x04	; 4
    4934:	80 6b       	ori	r24, 0xB0	; 176
    4936:	84 b9       	out	0x04, r24	; 4
    4938:	85 b1       	in	r24, 0x05	; 5
    493a:	85 b9       	out	0x05, r24	; 5
    493c:	82 e5       	ldi	r24, 0x52	; 82
    493e:	8c bd       	out	0x2c, r24	; 44
    4940:	1d bc       	out	0x2d, r1	; 45
    4942:	08 95       	ret

00004944 <SPI_transmit>:
    4944:	8e bd       	out	0x2e, r24	; 46
    4946:	0d b4       	in	r0, 0x2d	; 45
    4948:	07 fe       	sbrs	r0, 7
    494a:	fd cf       	rjmp	.-6      	; 0x4946 <SPI_transmit+0x2>
    494c:	8e b5       	in	r24, 0x2e	; 46
    494e:	08 95       	ret

00004950 <SPI_receive>:
    4950:	8f ef       	ldi	r24, 0xFF	; 255
    4952:	8e bd       	out	0x2e, r24	; 46
    4954:	0d b4       	in	r0, 0x2d	; 45
    4956:	07 fe       	sbrs	r0, 7
    4958:	fd cf       	rjmp	.-6      	; 0x4954 <SPI_receive+0x4>
    495a:	8e b5       	in	r24, 0x2e	; 46
    495c:	08 95       	ret

0000495e <__vector_11>:
    495e:	1f 92       	push	r1
    4960:	0f 92       	push	r0
    4962:	0f b6       	in	r0, 0x3f	; 63
    4964:	0f 92       	push	r0
    4966:	11 24       	eor	r1, r1
    4968:	8f 93       	push	r24
    496a:	9f 93       	push	r25
    496c:	80 91 33 02 	lds	r24, 0x0233
    4970:	90 91 34 02 	lds	r25, 0x0234
    4974:	01 96       	adiw	r24, 0x01	; 1
    4976:	90 93 34 02 	sts	0x0234, r25
    497a:	80 93 33 02 	sts	0x0233, r24
    497e:	9f 91       	pop	r25
    4980:	8f 91       	pop	r24
    4982:	0f 90       	pop	r0
    4984:	0f be       	out	0x3f, r0	; 63
    4986:	0f 90       	pop	r0
    4988:	1f 90       	pop	r1
    498a:	18 95       	reti

0000498c <time_initTimer>:
    498c:	87 e0       	ldi	r24, 0x07	; 7
    498e:	80 93 b1 00 	sts	0x00B1, r24
    4992:	e0 e7       	ldi	r30, 0x70	; 112
    4994:	f0 e0       	ldi	r31, 0x00	; 0
    4996:	80 81       	ld	r24, Z
    4998:	81 60       	ori	r24, 0x01	; 1
    499a:	80 83       	st	Z, r24
    499c:	08 95       	ret

0000499e <adc_init>:
    499e:	28 e6       	ldi	r18, 0x68	; 104
    49a0:	34 e0       	ldi	r19, 0x04	; 4
    49a2:	c9 01       	movw	r24, r18
    49a4:	60 e0       	ldi	r22, 0x00	; 0
    49a6:	70 e0       	ldi	r23, 0x00	; 0
    49a8:	48 e0       	ldi	r20, 0x08	; 8
    49aa:	50 e0       	ldi	r21, 0x00	; 0
    49ac:	0e 94 68 43 	call	0x86d0	; 0x86d0 <memset>
    49b0:	80 e4       	ldi	r24, 0x40	; 64
    49b2:	80 93 7c 00 	sts	0x007C, r24
    49b6:	86 e0       	ldi	r24, 0x06	; 6
    49b8:	80 93 7a 00 	sts	0x007A, r24
    49bc:	80 91 7a 00 	lds	r24, 0x007A
    49c0:	80 68       	ori	r24, 0x80	; 128
    49c2:	80 93 7a 00 	sts	0x007A, r24
    49c6:	80 91 7a 00 	lds	r24, 0x007A
    49ca:	80 64       	ori	r24, 0x40	; 64
    49cc:	80 93 7a 00 	sts	0x007A, r24
    49d0:	80 91 7a 00 	lds	r24, 0x007A
    49d4:	86 fd       	sbrc	r24, 6
    49d6:	fc cf       	rjmp	.-8      	; 0x49d0 <adc_init+0x32>
    49d8:	80 91 78 00 	lds	r24, 0x0078
    49dc:	90 91 79 00 	lds	r25, 0x0079
    49e0:	08 95       	ret

000049e2 <adc_read>:
    49e2:	90 91 7c 00 	lds	r25, 0x007C
    49e6:	8f 71       	andi	r24, 0x1F	; 31
    49e8:	90 7e       	andi	r25, 0xE0	; 224
    49ea:	89 2b       	or	r24, r25
    49ec:	80 93 7c 00 	sts	0x007C, r24
    49f0:	80 91 7a 00 	lds	r24, 0x007A
    49f4:	80 64       	ori	r24, 0x40	; 64
    49f6:	80 93 7a 00 	sts	0x007A, r24
    49fa:	80 91 7a 00 	lds	r24, 0x007A
    49fe:	86 fd       	sbrc	r24, 6
    4a00:	fc cf       	rjmp	.-8      	; 0x49fa <adc_read+0x18>
    4a02:	20 91 78 00 	lds	r18, 0x0078
    4a06:	30 91 79 00 	lds	r19, 0x0079
    4a0a:	c9 01       	movw	r24, r18
    4a0c:	08 95       	ret

00004a0e <adc_readAvg>:
    4a0e:	bf 92       	push	r11
    4a10:	cf 92       	push	r12
    4a12:	df 92       	push	r13
    4a14:	ef 92       	push	r14
    4a16:	ff 92       	push	r15
    4a18:	0f 93       	push	r16
    4a1a:	1f 93       	push	r17
    4a1c:	d8 2e       	mov	r13, r24
    4a1e:	b6 2e       	mov	r11, r22
    4a20:	cc 24       	eor	r12, r12
    4a22:	ee 24       	eor	r14, r14
    4a24:	ff 24       	eor	r15, r15
    4a26:	87 01       	movw	r16, r14
    4a28:	0b c0       	rjmp	.+22     	; 0x4a40 <adc_readAvg+0x32>
    4a2a:	8d 2d       	mov	r24, r13
    4a2c:	0e 94 f1 24 	call	0x49e2	; 0x49e2 <adc_read>
    4a30:	ac 01       	movw	r20, r24
    4a32:	60 e0       	ldi	r22, 0x00	; 0
    4a34:	70 e0       	ldi	r23, 0x00	; 0
    4a36:	e4 0e       	add	r14, r20
    4a38:	f5 1e       	adc	r15, r21
    4a3a:	06 1f       	adc	r16, r22
    4a3c:	17 1f       	adc	r17, r23
    4a3e:	c3 94       	inc	r12
    4a40:	cb 14       	cp	r12, r11
    4a42:	98 f3       	brcs	.-26     	; 0x4a2a <adc_readAvg+0x1c>
    4a44:	2b 2d       	mov	r18, r11
    4a46:	30 e0       	ldi	r19, 0x00	; 0
    4a48:	40 e0       	ldi	r20, 0x00	; 0
    4a4a:	50 e0       	ldi	r21, 0x00	; 0
    4a4c:	c8 01       	movw	r24, r16
    4a4e:	b7 01       	movw	r22, r14
    4a50:	0e 94 f7 42 	call	0x85ee	; 0x85ee <__udivmodsi4>
    4a54:	c9 01       	movw	r24, r18
    4a56:	1f 91       	pop	r17
    4a58:	0f 91       	pop	r16
    4a5a:	ff 90       	pop	r15
    4a5c:	ef 90       	pop	r14
    4a5e:	df 90       	pop	r13
    4a60:	cf 90       	pop	r12
    4a62:	bf 90       	pop	r11
    4a64:	08 95       	ret

00004a66 <adc_checkPots>:
    4a66:	1f 93       	push	r17
    4a68:	cf 93       	push	r28
    4a6a:	df 93       	push	r29
    4a6c:	c0 e0       	ldi	r28, 0x00	; 0
    4a6e:	d0 e0       	ldi	r29, 0x00	; 0
    4a70:	1c 2f       	mov	r17, r28
    4a72:	8c 2f       	mov	r24, r28
    4a74:	64 e0       	ldi	r22, 0x04	; 4
    4a76:	0e 94 07 25 	call	0x4a0e	; 0x4a0e <adc_readAvg>
    4a7a:	bc 01       	movw	r22, r24
    4a7c:	fe 01       	movw	r30, r28
    4a7e:	ee 0f       	add	r30, r30
    4a80:	ff 1f       	adc	r31, r31
    4a82:	e8 59       	subi	r30, 0x98	; 152
    4a84:	fb 4f       	sbci	r31, 0xFB	; 251
    4a86:	20 81       	ld	r18, Z
    4a88:	31 81       	ldd	r19, Z+1	; 0x01
    4a8a:	2d 5f       	subi	r18, 0xFD	; 253
    4a8c:	3f 4f       	sbci	r19, 0xFF	; 255
    4a8e:	28 17       	cp	r18, r24
    4a90:	39 07       	cpc	r19, r25
    4a92:	30 f0       	brcs	.+12     	; 0x4aa0 <adc_checkPots+0x3a>
    4a94:	20 81       	ld	r18, Z
    4a96:	31 81       	ldd	r19, Z+1	; 0x01
    4a98:	03 96       	adiw	r24, 0x03	; 3
    4a9a:	82 17       	cp	r24, r18
    4a9c:	93 07       	cpc	r25, r19
    4a9e:	70 f4       	brcc	.+28     	; 0x4abc <adc_checkPots+0x56>
    4aa0:	fe 01       	movw	r30, r28
    4aa2:	ee 0f       	add	r30, r30
    4aa4:	ff 1f       	adc	r31, r31
    4aa6:	e8 59       	subi	r30, 0x98	; 152
    4aa8:	fb 4f       	sbci	r31, 0xFB	; 251
    4aaa:	71 83       	std	Z+1, r23	; 0x01
    4aac:	60 83       	st	Z, r22
    4aae:	76 95       	lsr	r23
    4ab0:	67 95       	ror	r22
    4ab2:	76 95       	lsr	r23
    4ab4:	67 95       	ror	r22
    4ab6:	81 2f       	mov	r24, r17
    4ab8:	0e 94 f1 38 	call	0x71e2	; 0x71e2 <menu_parseKnobValue>
    4abc:	21 96       	adiw	r28, 0x01	; 1
    4abe:	c4 30       	cpi	r28, 0x04	; 4
    4ac0:	d1 05       	cpc	r29, r1
    4ac2:	b1 f6       	brne	.-84     	; 0x4a70 <adc_checkPots+0xa>
    4ac4:	df 91       	pop	r29
    4ac6:	cf 91       	pop	r28
    4ac8:	1f 91       	pop	r17
    4aca:	08 95       	ret

00004acc <din_shift>:
    4acc:	46 98       	cbi	0x08, 6	; 8
    4ace:	46 9a       	sbi	0x08, 6	; 8
    4ad0:	08 95       	ret

00004ad2 <din_load>:
    4ad2:	45 98       	cbi	0x08, 5	; 8
    4ad4:	45 9a       	sbi	0x08, 5	; 8
    4ad6:	08 95       	ret

00004ad8 <din_init>:
    4ad8:	3f 98       	cbi	0x07, 7	; 7
    4ada:	87 b1       	in	r24, 0x07	; 7
    4adc:	80 66       	ori	r24, 0x60	; 96
    4ade:	87 b9       	out	0x07, r24	; 7
    4ae0:	47 98       	cbi	0x08, 7	; 8
    4ae2:	88 b1       	in	r24, 0x08	; 8
    4ae4:	80 66       	ori	r24, 0x60	; 96
    4ae6:	88 b9       	out	0x08, r24	; 8
    4ae8:	85 e0       	ldi	r24, 0x05	; 5
    4aea:	e0 e7       	ldi	r30, 0x70	; 112
    4aec:	f4 e0       	ldi	r31, 0x04	; 4
    4aee:	df 01       	movw	r26, r30
    4af0:	1d 92       	st	X+, r1
    4af2:	8a 95       	dec	r24
    4af4:	e9 f7       	brne	.-6      	; 0x4af0 <din_init+0x18>
    4af6:	0e 94 69 25 	call	0x4ad2	; 0x4ad2 <din_load>
    4afa:	08 95       	ret

00004afc <din_readNextInput>:
    4afc:	0f 93       	push	r16
    4afe:	1f 93       	push	r17
    4b00:	80 91 93 01 	lds	r24, 0x0193
    4b04:	87 32       	cpi	r24, 0x27	; 39
    4b06:	28 f0       	brcs	.+10     	; 0x4b12 <din_readNextInput+0x16>
    4b08:	10 92 93 01 	sts	0x0193, r1
    4b0c:	0e 94 69 25 	call	0x4ad2	; 0x4ad2 <din_load>
    4b10:	05 c0       	rjmp	.+10     	; 0x4b1c <din_readNextInput+0x20>
    4b12:	8f 5f       	subi	r24, 0xFF	; 255
    4b14:	80 93 93 01 	sts	0x0193, r24
    4b18:	0e 94 66 25 	call	0x4acc	; 0x4acc <din_shift>
    4b1c:	80 91 93 01 	lds	r24, 0x0193
    4b20:	08 2f       	mov	r16, r24
    4b22:	06 95       	lsr	r16
    4b24:	06 95       	lsr	r16
    4b26:	06 95       	lsr	r16
    4b28:	18 2f       	mov	r17, r24
    4b2a:	17 70       	andi	r17, 0x07	; 7
    4b2c:	40 2f       	mov	r20, r16
    4b2e:	50 e0       	ldi	r21, 0x00	; 0
    4b30:	37 9b       	sbis	0x06, 7	; 6
    4b32:	31 c0       	rjmp	.+98     	; 0x4b96 <din_readNextInput+0x9a>
    4b34:	40 59       	subi	r20, 0x90	; 144
    4b36:	5b 4f       	sbci	r21, 0xFB	; 251
    4b38:	fa 01       	movw	r30, r20
    4b3a:	20 81       	ld	r18, Z
    4b3c:	30 e0       	ldi	r19, 0x00	; 0
    4b3e:	41 e0       	ldi	r20, 0x01	; 1
    4b40:	50 e0       	ldi	r21, 0x00	; 0
    4b42:	01 2e       	mov	r0, r17
    4b44:	02 c0       	rjmp	.+4      	; 0x4b4a <din_readNextInput+0x4e>
    4b46:	44 0f       	add	r20, r20
    4b48:	55 1f       	adc	r21, r21
    4b4a:	0a 94       	dec	r0
    4b4c:	e2 f7       	brpl	.-8      	; 0x4b46 <din_readNextInput+0x4a>
    4b4e:	24 23       	and	r18, r20
    4b50:	35 23       	and	r19, r21
    4b52:	21 15       	cp	r18, r1
    4b54:	31 05       	cpc	r19, r1
    4b56:	91 f1       	breq	.+100    	; 0x4bbc <din_readNextInput+0xc0>
    4b58:	0e 94 2f 0b 	call	0x165e	; 0x165e <buttonHandler_buttonPressed>
    4b5c:	2f c0       	rjmp	.+94     	; 0x4bbc <din_readNextInput+0xc0>
    4b5e:	0e 94 7c 0a 	call	0x14f8	; 0x14f8 <buttonHandler_buttonReleased>
    4b62:	81 e0       	ldi	r24, 0x01	; 1
    4b64:	e0 2f       	mov	r30, r16
    4b66:	f0 e0       	ldi	r31, 0x00	; 0
    4b68:	e0 59       	subi	r30, 0x90	; 144
    4b6a:	fb 4f       	sbci	r31, 0xFB	; 251
    4b6c:	28 2f       	mov	r18, r24
    4b6e:	01 2e       	mov	r0, r17
    4b70:	01 c0       	rjmp	.+2      	; 0x4b74 <din_readNextInput+0x78>
    4b72:	22 0f       	add	r18, r18
    4b74:	0a 94       	dec	r0
    4b76:	ea f7       	brpl	.-6      	; 0x4b72 <din_readNextInput+0x76>
    4b78:	81 e0       	ldi	r24, 0x01	; 1
    4b7a:	90 e0       	ldi	r25, 0x00	; 0
    4b7c:	02 c0       	rjmp	.+4      	; 0x4b82 <din_readNextInput+0x86>
    4b7e:	88 0f       	add	r24, r24
    4b80:	99 1f       	adc	r25, r25
    4b82:	1a 95       	dec	r17
    4b84:	e2 f7       	brpl	.-8      	; 0x4b7e <din_readNextInput+0x82>
    4b86:	80 95       	com	r24
    4b88:	90 81       	ld	r25, Z
    4b8a:	89 23       	and	r24, r25
    4b8c:	28 2b       	or	r18, r24
    4b8e:	20 83       	st	Z, r18
    4b90:	1f 91       	pop	r17
    4b92:	0f 91       	pop	r16
    4b94:	08 95       	ret
    4b96:	21 e0       	ldi	r18, 0x01	; 1
    4b98:	30 e0       	ldi	r19, 0x00	; 0
    4b9a:	01 2e       	mov	r0, r17
    4b9c:	02 c0       	rjmp	.+4      	; 0x4ba2 <din_readNextInput+0xa6>
    4b9e:	22 0f       	add	r18, r18
    4ba0:	33 1f       	adc	r19, r19
    4ba2:	0a 94       	dec	r0
    4ba4:	e2 f7       	brpl	.-8      	; 0x4b9e <din_readNextInput+0xa2>
    4ba6:	40 59       	subi	r20, 0x90	; 144
    4ba8:	5b 4f       	sbci	r21, 0xFB	; 251
    4baa:	fa 01       	movw	r30, r20
    4bac:	40 81       	ld	r20, Z
    4bae:	50 e0       	ldi	r21, 0x00	; 0
    4bb0:	42 23       	and	r20, r18
    4bb2:	53 23       	and	r21, r19
    4bb4:	42 17       	cp	r20, r18
    4bb6:	53 07       	cpc	r21, r19
    4bb8:	91 f6       	brne	.-92     	; 0x4b5e <din_readNextInput+0x62>
    4bba:	d3 cf       	rjmp	.-90     	; 0x4b62 <din_readNextInput+0x66>
    4bbc:	80 e0       	ldi	r24, 0x00	; 0
    4bbe:	d2 cf       	rjmp	.-92     	; 0x4b64 <din_readNextInput+0x68>

00004bc0 <dout_init>:
    4bc0:	8a b1       	in	r24, 0x0a	; 10
    4bc2:	80 67       	ori	r24, 0x70	; 112
    4bc4:	8a b9       	out	0x0a, r24	; 10
    4bc6:	8b b1       	in	r24, 0x0b	; 11
    4bc8:	8f 78       	andi	r24, 0x8F	; 143
    4bca:	8b b9       	out	0x0b, r24	; 11
    4bcc:	85 e0       	ldi	r24, 0x05	; 5
    4bce:	e5 e7       	ldi	r30, 0x75	; 117
    4bd0:	f4 e0       	ldi	r31, 0x04	; 4
    4bd2:	df 01       	movw	r26, r30
    4bd4:	1d 92       	st	X+, r1
    4bd6:	8a 95       	dec	r24
    4bd8:	e9 f7       	brne	.-6      	; 0x4bd4 <dout_init+0x14>
    4bda:	08 95       	ret

00004bdc <dout_shift>:
    4bdc:	5d 9a       	sbi	0x0b, 5	; 11
    4bde:	5d 98       	cbi	0x0b, 5	; 11
    4be0:	08 95       	ret

00004be2 <dout_load>:
    4be2:	5c 9a       	sbi	0x0b, 4	; 11
    4be4:	5c 98       	cbi	0x0b, 4	; 11
    4be6:	08 95       	ret

00004be8 <dout_updateOutputs>:
    4be8:	cf 93       	push	r28
    4bea:	df 93       	push	r29
    4bec:	c0 e0       	ldi	r28, 0x00	; 0
    4bee:	d0 e0       	ldi	r29, 0x00	; 0
    4bf0:	5e 98       	cbi	0x0b, 6	; 11
    4bf2:	fe 01       	movw	r30, r28
    4bf4:	83 e0       	ldi	r24, 0x03	; 3
    4bf6:	f5 95       	asr	r31
    4bf8:	e7 95       	ror	r30
    4bfa:	8a 95       	dec	r24
    4bfc:	e1 f7       	brne	.-8      	; 0x4bf6 <dout_updateOutputs+0xe>
    4bfe:	eb 58       	subi	r30, 0x8B	; 139
    4c00:	fb 4f       	sbci	r31, 0xFB	; 251
    4c02:	80 81       	ld	r24, Z
    4c04:	90 e0       	ldi	r25, 0x00	; 0
    4c06:	9e 01       	movw	r18, r28
    4c08:	27 70       	andi	r18, 0x07	; 7
    4c0a:	30 70       	andi	r19, 0x00	; 0
    4c0c:	02 c0       	rjmp	.+4      	; 0x4c12 <dout_updateOutputs+0x2a>
    4c0e:	95 95       	asr	r25
    4c10:	87 95       	ror	r24
    4c12:	2a 95       	dec	r18
    4c14:	e2 f7       	brpl	.-8      	; 0x4c0e <dout_updateOutputs+0x26>
    4c16:	80 fd       	sbrc	r24, 0
    4c18:	5e 9a       	sbi	0x0b, 6	; 11
    4c1a:	0e 94 ee 25 	call	0x4bdc	; 0x4bdc <dout_shift>
    4c1e:	21 96       	adiw	r28, 0x01	; 1
    4c20:	c8 32       	cpi	r28, 0x28	; 40
    4c22:	d1 05       	cpc	r29, r1
    4c24:	29 f7       	brne	.-54     	; 0x4bf0 <dout_updateOutputs+0x8>
    4c26:	0e 94 f1 25 	call	0x4be2	; 0x4be2 <dout_load>
    4c2a:	df 91       	pop	r29
    4c2c:	cf 91       	pop	r28
    4c2e:	08 95       	ret

00004c30 <__vector_20>:
    4c30:	1f 92       	push	r1
    4c32:	0f 92       	push	r0
    4c34:	0f b6       	in	r0, 0x3f	; 63
    4c36:	0f 92       	push	r0
    4c38:	11 24       	eor	r1, r1
    4c3a:	2f 93       	push	r18
    4c3c:	3f 93       	push	r19
    4c3e:	4f 93       	push	r20
    4c40:	5f 93       	push	r21
    4c42:	6f 93       	push	r22
    4c44:	7f 93       	push	r23
    4c46:	8f 93       	push	r24
    4c48:	9f 93       	push	r25
    4c4a:	af 93       	push	r26
    4c4c:	bf 93       	push	r27
    4c4e:	ef 93       	push	r30
    4c50:	ff 93       	push	r31
    4c52:	60 91 c6 00 	lds	r22, 0x00C6
    4c56:	8c ef       	ldi	r24, 0xFC	; 252
    4c58:	94 e0       	ldi	r25, 0x04	; 4
    4c5a:	0e 94 61 0d 	call	0x1ac2	; 0x1ac2 <fifo_bufferIn>
    4c5e:	ff 91       	pop	r31
    4c60:	ef 91       	pop	r30
    4c62:	bf 91       	pop	r27
    4c64:	af 91       	pop	r26
    4c66:	9f 91       	pop	r25
    4c68:	8f 91       	pop	r24
    4c6a:	7f 91       	pop	r23
    4c6c:	6f 91       	pop	r22
    4c6e:	5f 91       	pop	r21
    4c70:	4f 91       	pop	r20
    4c72:	3f 91       	pop	r19
    4c74:	2f 91       	pop	r18
    4c76:	0f 90       	pop	r0
    4c78:	0f be       	out	0x3f, r0	; 63
    4c7a:	0f 90       	pop	r0
    4c7c:	1f 90       	pop	r1
    4c7e:	18 95       	reti

00004c80 <__vector_21>:
    4c80:	1f 92       	push	r1
    4c82:	0f 92       	push	r0
    4c84:	0f b6       	in	r0, 0x3f	; 63
    4c86:	0f 92       	push	r0
    4c88:	11 24       	eor	r1, r1
    4c8a:	2f 93       	push	r18
    4c8c:	3f 93       	push	r19
    4c8e:	4f 93       	push	r20
    4c90:	5f 93       	push	r21
    4c92:	6f 93       	push	r22
    4c94:	7f 93       	push	r23
    4c96:	8f 93       	push	r24
    4c98:	9f 93       	push	r25
    4c9a:	af 93       	push	r26
    4c9c:	bf 93       	push	r27
    4c9e:	ef 93       	push	r30
    4ca0:	ff 93       	push	r31
    4ca2:	df 93       	push	r29
    4ca4:	cf 93       	push	r28
    4ca6:	0f 92       	push	r0
    4ca8:	cd b7       	in	r28, 0x3d	; 61
    4caa:	de b7       	in	r29, 0x3e	; 62
    4cac:	8a e7       	ldi	r24, 0x7A	; 122
    4cae:	94 e0       	ldi	r25, 0x04	; 4
    4cb0:	be 01       	movw	r22, r28
    4cb2:	6f 5f       	subi	r22, 0xFF	; 255
    4cb4:	7f 4f       	sbci	r23, 0xFF	; 255
    4cb6:	0e 94 77 0d 	call	0x1aee	; 0x1aee <fifo_BufferOut>
    4cba:	88 23       	and	r24, r24
    4cbc:	21 f0       	breq	.+8      	; 0x4cc6 <__vector_21+0x46>
    4cbe:	89 81       	ldd	r24, Y+1	; 0x01
    4cc0:	80 93 c6 00 	sts	0x00C6, r24
    4cc4:	05 c0       	rjmp	.+10     	; 0x4cd0 <__vector_21+0x50>
    4cc6:	80 91 c1 00 	lds	r24, 0x00C1
    4cca:	8f 7d       	andi	r24, 0xDF	; 223
    4ccc:	80 93 c1 00 	sts	0x00C1, r24
    4cd0:	0f 90       	pop	r0
    4cd2:	cf 91       	pop	r28
    4cd4:	df 91       	pop	r29
    4cd6:	ff 91       	pop	r31
    4cd8:	ef 91       	pop	r30
    4cda:	bf 91       	pop	r27
    4cdc:	af 91       	pop	r26
    4cde:	9f 91       	pop	r25
    4ce0:	8f 91       	pop	r24
    4ce2:	7f 91       	pop	r23
    4ce4:	6f 91       	pop	r22
    4ce6:	5f 91       	pop	r21
    4ce8:	4f 91       	pop	r20
    4cea:	3f 91       	pop	r19
    4cec:	2f 91       	pop	r18
    4cee:	0f 90       	pop	r0
    4cf0:	0f be       	out	0x3f, r0	; 63
    4cf2:	0f 90       	pop	r0
    4cf4:	1f 90       	pop	r1
    4cf6:	18 95       	reti

00004cf8 <uart_init>:
    4cf8:	8a e7       	ldi	r24, 0x7A	; 122
    4cfa:	94 e0       	ldi	r25, 0x04	; 4
    4cfc:	0e 94 53 0d 	call	0x1aa6	; 0x1aa6 <fifo_init>
    4d00:	8c ef       	ldi	r24, 0xFC	; 252
    4d02:	94 e0       	ldi	r25, 0x04	; 4
    4d04:	0e 94 53 0d 	call	0x1aa6	; 0x1aa6 <fifo_init>
    4d08:	10 92 c5 00 	sts	0x00C5, r1
    4d0c:	84 e0       	ldi	r24, 0x04	; 4
    4d0e:	80 93 c4 00 	sts	0x00C4, r24
    4d12:	e0 ec       	ldi	r30, 0xC0	; 192
    4d14:	f0 e0       	ldi	r31, 0x00	; 0
    4d16:	80 81       	ld	r24, Z
    4d18:	82 60       	ori	r24, 0x02	; 2
    4d1a:	80 83       	st	Z, r24
    4d1c:	e1 ec       	ldi	r30, 0xC1	; 193
    4d1e:	f0 e0       	ldi	r31, 0x00	; 0
    4d20:	80 81       	ld	r24, Z
    4d22:	88 69       	ori	r24, 0x98	; 152
    4d24:	80 83       	st	Z, r24
    4d26:	86 e0       	ldi	r24, 0x06	; 6
    4d28:	80 93 c2 00 	sts	0x00C2, r24
    4d2c:	08 95       	ret

00004d2e <uart_putc>:
    4d2e:	68 2f       	mov	r22, r24
    4d30:	8a e7       	ldi	r24, 0x7A	; 122
    4d32:	94 e0       	ldi	r25, 0x04	; 4
    4d34:	0e 94 61 0d 	call	0x1ac2	; 0x1ac2 <fifo_bufferIn>
    4d38:	e1 ec       	ldi	r30, 0xC1	; 193
    4d3a:	f0 e0       	ldi	r31, 0x00	; 0
    4d3c:	90 81       	ld	r25, Z
    4d3e:	90 62       	ori	r25, 0x20	; 32
    4d40:	90 83       	st	Z, r25
    4d42:	08 95       	ret

00004d44 <uart_getc>:
    4d44:	bc 01       	movw	r22, r24
    4d46:	8c ef       	ldi	r24, 0xFC	; 252
    4d48:	94 e0       	ldi	r25, 0x04	; 4
    4d4a:	0e 94 77 0d 	call	0x1aee	; 0x1aee <fifo_BufferOut>
    4d4e:	91 e0       	ldi	r25, 0x01	; 1
    4d50:	88 23       	and	r24, r24
    4d52:	09 f4       	brne	.+2      	; 0x4d56 <uart_getc+0x12>
    4d54:	90 e0       	ldi	r25, 0x00	; 0
    4d56:	89 2f       	mov	r24, r25
    4d58:	08 95       	ret

00004d5a <uart_checkAndParse>:
    4d5a:	df 93       	push	r29
    4d5c:	cf 93       	push	r28
    4d5e:	0f 92       	push	r0
    4d60:	cd b7       	in	r28, 0x3d	; 61
    4d62:	de b7       	in	r29, 0x3e	; 62
    4d64:	ce 01       	movw	r24, r28
    4d66:	01 96       	adiw	r24, 0x01	; 1
    4d68:	0e 94 a2 26 	call	0x4d44	; 0x4d44 <uart_getc>
    4d6c:	88 23       	and	r24, r24
    4d6e:	19 f0       	breq	.+6      	; 0x4d76 <uart_checkAndParse+0x1c>
    4d70:	89 81       	ldd	r24, Y+1	; 0x01
    4d72:	0e 94 38 0e 	call	0x1c70	; 0x1c70 <frontPanel_parseData>
    4d76:	0f 90       	pop	r0
    4d78:	cf 91       	pop	r28
    4d7a:	df 91       	pop	r29
    4d7c:	08 95       	ret

00004d7e <led_init>:
    4d7e:	10 92 7e 05 	sts	0x057E, r1
    4d82:	29 e9       	ldi	r18, 0x99	; 153
    4d84:	35 e0       	ldi	r19, 0x05	; 5
    4d86:	c9 01       	movw	r24, r18
    4d88:	60 e0       	ldi	r22, 0x00	; 0
    4d8a:	70 e0       	ldi	r23, 0x00	; 0
    4d8c:	45 e0       	ldi	r20, 0x05	; 5
    4d8e:	50 e0       	ldi	r21, 0x00	; 0
    4d90:	0e 94 68 43 	call	0x86d0	; 0x86d0 <memset>
    4d94:	08 95       	ret

00004d96 <led_clearSelectLeds>:
    4d96:	10 92 77 04 	sts	0x0477, r1
    4d9a:	10 92 9b 05 	sts	0x059B, r1
    4d9e:	08 95       	ret

00004da0 <led_clearVoiceLeds>:
    4da0:	80 91 76 04 	lds	r24, 0x0476
    4da4:	80 78       	andi	r24, 0x80	; 128
    4da6:	80 93 76 04 	sts	0x0476, r24
    4daa:	80 91 9a 05 	lds	r24, 0x059A
    4dae:	80 78       	andi	r24, 0x80	; 128
    4db0:	80 93 9a 05 	sts	0x059A, r24
    4db4:	08 95       	ret

00004db6 <led_setActivePage>:
    4db6:	80 5f       	subi	r24, 0xF0	; 240
    4db8:	48 2f       	mov	r20, r24
    4dba:	46 95       	lsr	r20
    4dbc:	46 95       	lsr	r20
    4dbe:	46 95       	lsr	r20
    4dc0:	50 e0       	ldi	r21, 0x00	; 0
    4dc2:	87 70       	andi	r24, 0x07	; 7
    4dc4:	21 e0       	ldi	r18, 0x01	; 1
    4dc6:	30 e0       	ldi	r19, 0x00	; 0
    4dc8:	02 c0       	rjmp	.+4      	; 0x4dce <led_setActivePage+0x18>
    4dca:	22 0f       	add	r18, r18
    4dcc:	33 1f       	adc	r19, r19
    4dce:	8a 95       	dec	r24
    4dd0:	e2 f7       	brpl	.-8      	; 0x4dca <led_setActivePage+0x14>
    4dd2:	fa 01       	movw	r30, r20
    4dd4:	eb 58       	subi	r30, 0x8B	; 139
    4dd6:	fb 4f       	sbci	r31, 0xFB	; 251
    4dd8:	20 83       	st	Z, r18
    4dda:	47 56       	subi	r20, 0x67	; 103
    4ddc:	5a 4f       	sbci	r21, 0xFA	; 250
    4dde:	fa 01       	movw	r30, r20
    4de0:	20 83       	st	Z, r18
    4de2:	08 95       	ret

00004de4 <led_setActiveSelectButton>:
    4de4:	80 5f       	subi	r24, 0xF0	; 240
    4de6:	48 2f       	mov	r20, r24
    4de8:	46 95       	lsr	r20
    4dea:	46 95       	lsr	r20
    4dec:	46 95       	lsr	r20
    4dee:	50 e0       	ldi	r21, 0x00	; 0
    4df0:	87 70       	andi	r24, 0x07	; 7
    4df2:	21 e0       	ldi	r18, 0x01	; 1
    4df4:	30 e0       	ldi	r19, 0x00	; 0
    4df6:	02 c0       	rjmp	.+4      	; 0x4dfc <led_setActiveSelectButton+0x18>
    4df8:	22 0f       	add	r18, r18
    4dfa:	33 1f       	adc	r19, r19
    4dfc:	8a 95       	dec	r24
    4dfe:	e2 f7       	brpl	.-8      	; 0x4df8 <led_setActiveSelectButton+0x14>
    4e00:	fa 01       	movw	r30, r20
    4e02:	eb 58       	subi	r30, 0x8B	; 139
    4e04:	fb 4f       	sbci	r31, 0xFB	; 251
    4e06:	20 83       	st	Z, r18
    4e08:	47 56       	subi	r20, 0x67	; 103
    4e0a:	5a 4f       	sbci	r21, 0xFA	; 250
    4e0c:	fa 01       	movw	r30, r20
    4e0e:	20 83       	st	Z, r18
    4e10:	08 95       	ret

00004e12 <led_setActiveVoiceLeds>:
    4e12:	90 91 76 04 	lds	r25, 0x0476
    4e16:	90 78       	andi	r25, 0x80	; 128
    4e18:	20 91 9a 05 	lds	r18, 0x059A
    4e1c:	20 78       	andi	r18, 0x80	; 128
    4e1e:	20 93 9a 05 	sts	0x059A, r18
    4e22:	8f 77       	andi	r24, 0x7F	; 127
    4e24:	98 2b       	or	r25, r24
    4e26:	90 93 76 04 	sts	0x0476, r25
    4e2a:	90 91 9a 05 	lds	r25, 0x059A
    4e2e:	98 2b       	or	r25, r24
    4e30:	90 93 9a 05 	sts	0x059A, r25
    4e34:	08 95       	ret

00004e36 <led_setActiveVoice>:
    4e36:	88 5f       	subi	r24, 0xF8	; 248
    4e38:	e8 2f       	mov	r30, r24
    4e3a:	e6 95       	lsr	r30
    4e3c:	e6 95       	lsr	r30
    4e3e:	e6 95       	lsr	r30
    4e40:	f0 e0       	ldi	r31, 0x00	; 0
    4e42:	df 01       	movw	r26, r30
    4e44:	ab 58       	subi	r26, 0x8B	; 139
    4e46:	bb 4f       	sbci	r27, 0xFB	; 251
    4e48:	9c 91       	ld	r25, X
    4e4a:	90 78       	andi	r25, 0x80	; 128
    4e4c:	e7 56       	subi	r30, 0x67	; 103
    4e4e:	fa 4f       	sbci	r31, 0xFA	; 250
    4e50:	20 81       	ld	r18, Z
    4e52:	20 78       	andi	r18, 0x80	; 128
    4e54:	20 83       	st	Z, r18
    4e56:	87 70       	andi	r24, 0x07	; 7
    4e58:	21 e0       	ldi	r18, 0x01	; 1
    4e5a:	30 e0       	ldi	r19, 0x00	; 0
    4e5c:	01 c0       	rjmp	.+2      	; 0x4e60 <led_setActiveVoice+0x2a>
    4e5e:	22 0f       	add	r18, r18
    4e60:	8a 95       	dec	r24
    4e62:	ea f7       	brpl	.-6      	; 0x4e5e <led_setActiveVoice+0x28>
    4e64:	92 2b       	or	r25, r18
    4e66:	9c 93       	st	X, r25
    4e68:	80 81       	ld	r24, Z
    4e6a:	82 2b       	or	r24, r18
    4e6c:	80 83       	st	Z, r24
    4e6e:	08 95       	ret

00004e70 <led_setValue>:
    4e70:	e6 2f       	mov	r30, r22
    4e72:	e6 95       	lsr	r30
    4e74:	e6 95       	lsr	r30
    4e76:	e6 95       	lsr	r30
    4e78:	f0 e0       	ldi	r31, 0x00	; 0
    4e7a:	67 70       	andi	r22, 0x07	; 7
    4e7c:	21 e0       	ldi	r18, 0x01	; 1
    4e7e:	30 e0       	ldi	r19, 0x00	; 0
    4e80:	01 c0       	rjmp	.+2      	; 0x4e84 <led_setValue+0x14>
    4e82:	22 0f       	add	r18, r18
    4e84:	6a 95       	dec	r22
    4e86:	ea f7       	brpl	.-6      	; 0x4e82 <led_setValue+0x12>
    4e88:	42 2f       	mov	r20, r18
    4e8a:	40 95       	com	r20
    4e8c:	df 01       	movw	r26, r30
    4e8e:	ab 58       	subi	r26, 0x8B	; 139
    4e90:	bb 4f       	sbci	r27, 0xFB	; 251
    4e92:	9c 91       	ld	r25, X
    4e94:	94 23       	and	r25, r20
    4e96:	9c 93       	st	X, r25
    4e98:	e7 56       	subi	r30, 0x67	; 103
    4e9a:	fa 4f       	sbci	r31, 0xFA	; 250
    4e9c:	30 81       	ld	r19, Z
    4e9e:	34 23       	and	r19, r20
    4ea0:	30 83       	st	Z, r19
    4ea2:	88 23       	and	r24, r24
    4ea4:	29 f0       	breq	.+10     	; 0x4eb0 <led_setValue+0x40>
    4ea6:	92 2b       	or	r25, r18
    4ea8:	9c 93       	st	X, r25
    4eaa:	80 81       	ld	r24, Z
    4eac:	82 2b       	or	r24, r18
    4eae:	80 83       	st	Z, r24
    4eb0:	08 95       	ret

00004eb2 <led_toggle>:
    4eb2:	e8 2f       	mov	r30, r24
    4eb4:	e6 95       	lsr	r30
    4eb6:	e6 95       	lsr	r30
    4eb8:	e6 95       	lsr	r30
    4eba:	f0 e0       	ldi	r31, 0x00	; 0
    4ebc:	df 01       	movw	r26, r30
    4ebe:	ab 58       	subi	r26, 0x8B	; 139
    4ec0:	bb 4f       	sbci	r27, 0xFB	; 251
    4ec2:	4c 91       	ld	r20, X
    4ec4:	87 70       	andi	r24, 0x07	; 7
    4ec6:	21 e0       	ldi	r18, 0x01	; 1
    4ec8:	30 e0       	ldi	r19, 0x00	; 0
    4eca:	01 c0       	rjmp	.+2      	; 0x4ece <led_toggle+0x1c>
    4ecc:	22 0f       	add	r18, r18
    4ece:	8a 95       	dec	r24
    4ed0:	ea f7       	brpl	.-6      	; 0x4ecc <led_toggle+0x1a>
    4ed2:	32 2f       	mov	r19, r18
    4ed4:	30 95       	com	r19
    4ed6:	93 2f       	mov	r25, r19
    4ed8:	94 23       	and	r25, r20
    4eda:	9c 93       	st	X, r25
    4edc:	e7 56       	subi	r30, 0x67	; 103
    4ede:	fa 4f       	sbci	r31, 0xFA	; 250
    4ee0:	80 81       	ld	r24, Z
    4ee2:	83 23       	and	r24, r19
    4ee4:	80 83       	st	Z, r24
    4ee6:	42 23       	and	r20, r18
    4ee8:	29 f4       	brne	.+10     	; 0x4ef4 <led_toggle+0x42>
    4eea:	92 2b       	or	r25, r18
    4eec:	9c 93       	st	X, r25
    4eee:	80 81       	ld	r24, Z
    4ef0:	82 2b       	or	r24, r18
    4ef2:	80 83       	st	Z, r24
    4ef4:	08 95       	ret

00004ef6 <led_toggleTemp>:
    4ef6:	e8 2f       	mov	r30, r24
    4ef8:	e6 95       	lsr	r30
    4efa:	e6 95       	lsr	r30
    4efc:	e6 95       	lsr	r30
    4efe:	f0 e0       	ldi	r31, 0x00	; 0
    4f00:	eb 58       	subi	r30, 0x8B	; 139
    4f02:	fb 4f       	sbci	r31, 0xFB	; 251
    4f04:	90 81       	ld	r25, Z
    4f06:	87 70       	andi	r24, 0x07	; 7
    4f08:	21 e0       	ldi	r18, 0x01	; 1
    4f0a:	30 e0       	ldi	r19, 0x00	; 0
    4f0c:	01 c0       	rjmp	.+2      	; 0x4f10 <led_toggleTemp+0x1a>
    4f0e:	22 0f       	add	r18, r18
    4f10:	8a 95       	dec	r24
    4f12:	ea f7       	brpl	.-6      	; 0x4f0e <led_toggleTemp+0x18>
    4f14:	82 2f       	mov	r24, r18
    4f16:	80 95       	com	r24
    4f18:	89 23       	and	r24, r25
    4f1a:	80 83       	st	Z, r24
    4f1c:	92 23       	and	r25, r18
    4f1e:	11 f4       	brne	.+4      	; 0x4f24 <led_toggleTemp+0x2e>
    4f20:	28 2b       	or	r18, r24
    4f22:	20 83       	st	Z, r18
    4f24:	08 95       	ret

00004f26 <led_clearSequencerLeds>:
    4f26:	1f 93       	push	r17
    4f28:	18 e1       	ldi	r17, 0x18	; 24
    4f2a:	80 e0       	ldi	r24, 0x00	; 0
    4f2c:	61 2f       	mov	r22, r17
    4f2e:	0e 94 38 27 	call	0x4e70	; 0x4e70 <led_setValue>
    4f32:	1f 5f       	subi	r17, 0xFF	; 255
    4f34:	18 32       	cpi	r17, 0x28	; 40
    4f36:	c9 f7       	brne	.-14     	; 0x4f2a <led_clearSequencerLeds+0x4>
    4f38:	1f 91       	pop	r17
    4f3a:	08 95       	ret

00004f3c <led_pulseLed>:
    4f3c:	1f 93       	push	r17
    4f3e:	cf 93       	push	r28
    4f40:	df 93       	push	r29
    4f42:	18 2f       	mov	r17, r24
    4f44:	c0 e0       	ldi	r28, 0x00	; 0
    4f46:	d0 e0       	ldi	r29, 0x00	; 0
    4f48:	80 91 7e 05 	lds	r24, 0x057E
    4f4c:	90 e0       	ldi	r25, 0x00	; 0
    4f4e:	0c 2e       	mov	r0, r28
    4f50:	02 c0       	rjmp	.+4      	; 0x4f56 <led_pulseLed+0x1a>
    4f52:	95 95       	asr	r25
    4f54:	87 95       	ror	r24
    4f56:	0a 94       	dec	r0
    4f58:	e2 f7       	brpl	.-8      	; 0x4f52 <led_pulseLed+0x16>
    4f5a:	80 fd       	sbrc	r24, 0
    4f5c:	2b c0       	rjmp	.+86     	; 0x4fb4 <led_pulseLed+0x78>
    4f5e:	fe 01       	movw	r30, r28
    4f60:	e1 58       	subi	r30, 0x81	; 129
    4f62:	fa 4f       	sbci	r31, 0xFA	; 250
    4f64:	10 83       	st	Z, r17
    4f66:	20 91 7e 05 	lds	r18, 0x057E
    4f6a:	81 e0       	ldi	r24, 0x01	; 1
    4f6c:	90 e0       	ldi	r25, 0x00	; 0
    4f6e:	0c 2e       	mov	r0, r28
    4f70:	02 c0       	rjmp	.+4      	; 0x4f76 <led_pulseLed+0x3a>
    4f72:	88 0f       	add	r24, r24
    4f74:	99 1f       	adc	r25, r25
    4f76:	0a 94       	dec	r0
    4f78:	e2 f7       	brpl	.-8      	; 0x4f72 <led_pulseLed+0x36>
    4f7a:	28 2b       	or	r18, r24
    4f7c:	20 93 7e 05 	sts	0x057E, r18
    4f80:	60 91 33 02 	lds	r22, 0x0233
    4f84:	70 91 34 02 	lds	r23, 0x0234
    4f88:	80 e0       	ldi	r24, 0x00	; 0
    4f8a:	90 e0       	ldi	r25, 0x00	; 0
    4f8c:	0e 94 9f 41 	call	0x833e	; 0x833e <__floatunsisf>
    4f90:	2f ef       	ldi	r18, 0xFF	; 255
    4f92:	3f e4       	ldi	r19, 0x4F	; 79
    4f94:	43 e4       	ldi	r20, 0x43	; 67
    4f96:	50 e4       	ldi	r21, 0x40	; 64
    4f98:	0e 94 0f 41 	call	0x821e	; 0x821e <__addsf3>
    4f9c:	0e 94 73 41 	call	0x82e6	; 0x82e6 <__fixunssfsi>
    4fa0:	cc 0f       	add	r28, r28
    4fa2:	dd 1f       	adc	r29, r29
    4fa4:	c7 57       	subi	r28, 0x77	; 119
    4fa6:	da 4f       	sbci	r29, 0xFA	; 250
    4fa8:	79 83       	std	Y+1, r23	; 0x01
    4faa:	68 83       	st	Y, r22
    4fac:	81 2f       	mov	r24, r17
    4fae:	0e 94 7b 27 	call	0x4ef6	; 0x4ef6 <led_toggleTemp>
    4fb2:	04 c0       	rjmp	.+8      	; 0x4fbc <led_pulseLed+0x80>
    4fb4:	21 96       	adiw	r28, 0x01	; 1
    4fb6:	c8 30       	cpi	r28, 0x08	; 8
    4fb8:	d1 05       	cpc	r29, r1
    4fba:	31 f6       	brne	.-116    	; 0x4f48 <led_pulseLed+0xc>
    4fbc:	df 91       	pop	r29
    4fbe:	cf 91       	pop	r28
    4fc0:	1f 91       	pop	r17
    4fc2:	08 95       	ret

00004fc4 <led_reset>:
    4fc4:	e8 2f       	mov	r30, r24
    4fc6:	e6 95       	lsr	r30
    4fc8:	e6 95       	lsr	r30
    4fca:	e6 95       	lsr	r30
    4fcc:	f0 e0       	ldi	r31, 0x00	; 0
    4fce:	df 01       	movw	r26, r30
    4fd0:	a7 56       	subi	r26, 0x67	; 103
    4fd2:	ba 4f       	sbci	r27, 0xFA	; 250
    4fd4:	9c 91       	ld	r25, X
    4fd6:	87 70       	andi	r24, 0x07	; 7
    4fd8:	21 e0       	ldi	r18, 0x01	; 1
    4fda:	30 e0       	ldi	r19, 0x00	; 0
    4fdc:	01 c0       	rjmp	.+2      	; 0x4fe0 <led_reset+0x1c>
    4fde:	22 0f       	add	r18, r18
    4fe0:	8a 95       	dec	r24
    4fe2:	ea f7       	brpl	.-6      	; 0x4fde <led_reset+0x1a>
    4fe4:	92 23       	and	r25, r18
    4fe6:	eb 58       	subi	r30, 0x8B	; 139
    4fe8:	fb 4f       	sbci	r31, 0xFB	; 251
    4fea:	99 23       	and	r25, r25
    4fec:	21 f0       	breq	.+8      	; 0x4ff6 <led_reset+0x32>
    4fee:	80 81       	ld	r24, Z
    4ff0:	82 2b       	or	r24, r18
    4ff2:	80 83       	st	Z, r24
    4ff4:	08 95       	ret
    4ff6:	20 95       	com	r18
    4ff8:	80 81       	ld	r24, Z
    4ffa:	28 23       	and	r18, r24
    4ffc:	20 83       	st	Z, r18
    4ffe:	08 95       	ret

00005000 <led_tickHandler>:
    5000:	0f 93       	push	r16
    5002:	1f 93       	push	r17
    5004:	cf 93       	push	r28
    5006:	df 93       	push	r29
    5008:	c0 e0       	ldi	r28, 0x00	; 0
    500a:	d0 e0       	ldi	r29, 0x00	; 0
    500c:	01 e0       	ldi	r16, 0x01	; 1
    500e:	10 e0       	ldi	r17, 0x00	; 0
    5010:	80 91 7e 05 	lds	r24, 0x057E
    5014:	90 e0       	ldi	r25, 0x00	; 0
    5016:	0c 2e       	mov	r0, r28
    5018:	02 c0       	rjmp	.+4      	; 0x501e <led_tickHandler+0x1e>
    501a:	95 95       	asr	r25
    501c:	87 95       	ror	r24
    501e:	0a 94       	dec	r0
    5020:	e2 f7       	brpl	.-8      	; 0x501a <led_tickHandler+0x1a>
    5022:	80 ff       	sbrs	r24, 0
    5024:	21 c0       	rjmp	.+66     	; 0x5068 <led_tickHandler+0x68>
    5026:	20 91 33 02 	lds	r18, 0x0233
    502a:	30 91 34 02 	lds	r19, 0x0234
    502e:	fe 01       	movw	r30, r28
    5030:	ee 0f       	add	r30, r30
    5032:	ff 1f       	adc	r31, r31
    5034:	e7 57       	subi	r30, 0x77	; 119
    5036:	fa 4f       	sbci	r31, 0xFA	; 250
    5038:	80 81       	ld	r24, Z
    503a:	91 81       	ldd	r25, Z+1	; 0x01
    503c:	82 17       	cp	r24, r18
    503e:	93 07       	cpc	r25, r19
    5040:	98 f4       	brcc	.+38     	; 0x5068 <led_tickHandler+0x68>
    5042:	20 91 7e 05 	lds	r18, 0x057E
    5046:	c8 01       	movw	r24, r16
    5048:	0c 2e       	mov	r0, r28
    504a:	02 c0       	rjmp	.+4      	; 0x5050 <led_tickHandler+0x50>
    504c:	88 0f       	add	r24, r24
    504e:	99 1f       	adc	r25, r25
    5050:	0a 94       	dec	r0
    5052:	e2 f7       	brpl	.-8      	; 0x504c <led_tickHandler+0x4c>
    5054:	80 95       	com	r24
    5056:	82 23       	and	r24, r18
    5058:	80 93 7e 05 	sts	0x057E, r24
    505c:	fe 01       	movw	r30, r28
    505e:	e1 58       	subi	r30, 0x81	; 129
    5060:	fa 4f       	sbci	r31, 0xFA	; 250
    5062:	80 81       	ld	r24, Z
    5064:	0e 94 e2 27 	call	0x4fc4	; 0x4fc4 <led_reset>
    5068:	21 96       	adiw	r28, 0x01	; 1
    506a:	c8 30       	cpi	r28, 0x08	; 8
    506c:	d1 05       	cpc	r29, r1
    506e:	81 f6       	brne	.-96     	; 0x5010 <led_tickHandler+0x10>
    5070:	20 91 33 02 	lds	r18, 0x0233
    5074:	30 91 34 02 	lds	r19, 0x0234
    5078:	80 91 36 02 	lds	r24, 0x0236
    507c:	90 91 37 02 	lds	r25, 0x0237
    5080:	82 17       	cp	r24, r18
    5082:	93 07       	cpc	r25, r19
    5084:	28 f5       	brcc	.+74     	; 0x50d0 <led_tickHandler+0xd0>
    5086:	60 91 33 02 	lds	r22, 0x0233
    508a:	70 91 34 02 	lds	r23, 0x0234
    508e:	80 e0       	ldi	r24, 0x00	; 0
    5090:	90 e0       	ldi	r25, 0x00	; 0
    5092:	0e 94 9f 41 	call	0x833e	; 0x833e <__floatunsisf>
    5096:	2f ef       	ldi	r18, 0xFF	; 255
    5098:	33 e2       	ldi	r19, 0x23	; 35
    509a:	44 ef       	ldi	r20, 0xF4	; 244
    509c:	50 e4       	ldi	r21, 0x40	; 64
    509e:	0e 94 0f 41 	call	0x821e	; 0x821e <__addsf3>
    50a2:	0e 94 73 41 	call	0x82e6	; 0x82e6 <__fixunssfsi>
    50a6:	70 93 37 02 	sts	0x0237, r23
    50aa:	60 93 36 02 	sts	0x0236, r22
    50ae:	80 91 9e 05 	lds	r24, 0x059E
    50b2:	80 ff       	sbrs	r24, 0
    50b4:	04 c0       	rjmp	.+8      	; 0x50be <led_tickHandler+0xbe>
    50b6:	80 91 87 05 	lds	r24, 0x0587
    50ba:	0e 94 7b 27 	call	0x4ef6	; 0x4ef6 <led_toggleTemp>
    50be:	80 91 9e 05 	lds	r24, 0x059E
    50c2:	86 95       	lsr	r24
    50c4:	80 ff       	sbrs	r24, 0
    50c6:	04 c0       	rjmp	.+8      	; 0x50d0 <led_tickHandler+0xd0>
    50c8:	80 91 88 05 	lds	r24, 0x0588
    50cc:	0e 94 7b 27 	call	0x4ef6	; 0x4ef6 <led_toggleTemp>
    50d0:	df 91       	pop	r29
    50d2:	cf 91       	pop	r28
    50d4:	1f 91       	pop	r17
    50d6:	0f 91       	pop	r16
    50d8:	08 95       	ret

000050da <led_setBlinkLed>:
    50da:	1f 93       	push	r17
    50dc:	18 2f       	mov	r17, r24
    50de:	66 23       	and	r22, r22
    50e0:	c9 f4       	brne	.+50     	; 0x5114 <led_setBlinkLed+0x3a>
    50e2:	80 91 87 05 	lds	r24, 0x0587
    50e6:	81 17       	cp	r24, r17
    50e8:	41 f4       	brne	.+16     	; 0x50fa <led_setBlinkLed+0x20>
    50ea:	80 91 9e 05 	lds	r24, 0x059E
    50ee:	8e 7f       	andi	r24, 0xFE	; 254
    50f0:	80 93 9e 05 	sts	0x059E, r24
    50f4:	81 2f       	mov	r24, r17
    50f6:	0e 94 e2 27 	call	0x4fc4	; 0x4fc4 <led_reset>
    50fa:	80 91 88 05 	lds	r24, 0x0588
    50fe:	81 17       	cp	r24, r17
    5100:	51 f5       	brne	.+84     	; 0x5156 <led_setBlinkLed+0x7c>
    5102:	80 91 9e 05 	lds	r24, 0x059E
    5106:	8d 7f       	andi	r24, 0xFD	; 253
    5108:	80 93 9e 05 	sts	0x059E, r24
    510c:	81 2f       	mov	r24, r17
    510e:	0e 94 e2 27 	call	0x4fc4	; 0x4fc4 <led_reset>
    5112:	21 c0       	rjmp	.+66     	; 0x5156 <led_setBlinkLed+0x7c>
    5114:	80 91 9e 05 	lds	r24, 0x059E
    5118:	80 ff       	sbrs	r24, 0
    511a:	08 c0       	rjmp	.+16     	; 0x512c <led_setBlinkLed+0x52>
    511c:	80 91 9e 05 	lds	r24, 0x059E
    5120:	86 95       	lsr	r24
    5122:	80 fd       	sbrc	r24, 0
    5124:	18 c0       	rjmp	.+48     	; 0x5156 <led_setBlinkLed+0x7c>
    5126:	41 e0       	ldi	r20, 0x01	; 1
    5128:	50 e0       	ldi	r21, 0x00	; 0
    512a:	02 c0       	rjmp	.+4      	; 0x5130 <led_setBlinkLed+0x56>
    512c:	40 e0       	ldi	r20, 0x00	; 0
    512e:	50 e0       	ldi	r21, 0x00	; 0
    5130:	fa 01       	movw	r30, r20
    5132:	e9 57       	subi	r30, 0x79	; 121
    5134:	fa 4f       	sbci	r31, 0xFA	; 250
    5136:	10 83       	st	Z, r17
    5138:	80 91 9e 05 	lds	r24, 0x059E
    513c:	21 e0       	ldi	r18, 0x01	; 1
    513e:	30 e0       	ldi	r19, 0x00	; 0
    5140:	02 c0       	rjmp	.+4      	; 0x5146 <led_setBlinkLed+0x6c>
    5142:	22 0f       	add	r18, r18
    5144:	33 1f       	adc	r19, r19
    5146:	4a 95       	dec	r20
    5148:	e2 f7       	brpl	.-8      	; 0x5142 <led_setBlinkLed+0x68>
    514a:	82 2b       	or	r24, r18
    514c:	80 93 9e 05 	sts	0x059E, r24
    5150:	81 2f       	mov	r24, r17
    5152:	0e 94 7b 27 	call	0x4ef6	; 0x4ef6 <led_toggleTemp>
    5156:	1f 91       	pop	r17
    5158:	08 95       	ret

0000515a <led_setMode2>:
    515a:	1f 93       	push	r17
    515c:	18 2f       	mov	r17, r24
    515e:	80 e0       	ldi	r24, 0x00	; 0
    5160:	60 e0       	ldi	r22, 0x00	; 0
    5162:	0e 94 38 27 	call	0x4e70	; 0x4e70 <led_setValue>
    5166:	80 e0       	ldi	r24, 0x00	; 0
    5168:	61 e0       	ldi	r22, 0x01	; 1
    516a:	0e 94 38 27 	call	0x4e70	; 0x4e70 <led_setValue>
    516e:	80 e0       	ldi	r24, 0x00	; 0
    5170:	62 e0       	ldi	r22, 0x02	; 2
    5172:	0e 94 38 27 	call	0x4e70	; 0x4e70 <led_setValue>
    5176:	80 e0       	ldi	r24, 0x00	; 0
    5178:	63 e0       	ldi	r22, 0x03	; 3
    517a:	0e 94 38 27 	call	0x4e70	; 0x4e70 <led_setValue>
    517e:	80 e0       	ldi	r24, 0x00	; 0
    5180:	60 e0       	ldi	r22, 0x00	; 0
    5182:	0e 94 6d 28 	call	0x50da	; 0x50da <led_setBlinkLed>
    5186:	81 e0       	ldi	r24, 0x01	; 1
    5188:	60 e0       	ldi	r22, 0x00	; 0
    518a:	0e 94 6d 28 	call	0x50da	; 0x50da <led_setBlinkLed>
    518e:	82 e0       	ldi	r24, 0x02	; 2
    5190:	60 e0       	ldi	r22, 0x00	; 0
    5192:	0e 94 6d 28 	call	0x50da	; 0x50da <led_setBlinkLed>
    5196:	83 e0       	ldi	r24, 0x03	; 3
    5198:	60 e0       	ldi	r22, 0x00	; 0
    519a:	0e 94 6d 28 	call	0x50da	; 0x50da <led_setBlinkLed>
    519e:	13 30       	cpi	r17, 0x03	; 3
    51a0:	b9 f0       	breq	.+46     	; 0x51d0 <led_setMode2+0x76>
    51a2:	14 30       	cpi	r17, 0x04	; 4
    51a4:	28 f4       	brcc	.+10     	; 0x51b0 <led_setMode2+0x56>
    51a6:	11 30       	cpi	r17, 0x01	; 1
    51a8:	69 f0       	breq	.+26     	; 0x51c4 <led_setMode2+0x6a>
    51aa:	12 30       	cpi	r17, 0x02	; 2
    51ac:	70 f4       	brcc	.+28     	; 0x51ca <led_setMode2+0x70>
    51ae:	07 c0       	rjmp	.+14     	; 0x51be <led_setMode2+0x64>
    51b0:	15 30       	cpi	r17, 0x05	; 5
    51b2:	99 f0       	breq	.+38     	; 0x51da <led_setMode2+0x80>
    51b4:	15 30       	cpi	r17, 0x05	; 5
    51b6:	60 f0       	brcs	.+24     	; 0x51d0 <led_setMode2+0x76>
    51b8:	17 30       	cpi	r17, 0x07	; 7
    51ba:	a9 f4       	brne	.+42     	; 0x51e6 <led_setMode2+0x8c>
    51bc:	10 c0       	rjmp	.+32     	; 0x51de <led_setMode2+0x84>
    51be:	81 e0       	ldi	r24, 0x01	; 1
    51c0:	60 e0       	ldi	r22, 0x00	; 0
    51c2:	08 c0       	rjmp	.+16     	; 0x51d4 <led_setMode2+0x7a>
    51c4:	81 e0       	ldi	r24, 0x01	; 1
    51c6:	61 e0       	ldi	r22, 0x01	; 1
    51c8:	05 c0       	rjmp	.+10     	; 0x51d4 <led_setMode2+0x7a>
    51ca:	81 e0       	ldi	r24, 0x01	; 1
    51cc:	62 e0       	ldi	r22, 0x02	; 2
    51ce:	02 c0       	rjmp	.+4      	; 0x51d4 <led_setMode2+0x7a>
    51d0:	81 e0       	ldi	r24, 0x01	; 1
    51d2:	63 e0       	ldi	r22, 0x03	; 3
    51d4:	0e 94 38 27 	call	0x4e70	; 0x4e70 <led_setValue>
    51d8:	06 c0       	rjmp	.+12     	; 0x51e6 <led_setMode2+0x8c>
    51da:	81 e0       	ldi	r24, 0x01	; 1
    51dc:	01 c0       	rjmp	.+2      	; 0x51e0 <led_setMode2+0x86>
    51de:	83 e0       	ldi	r24, 0x03	; 3
    51e0:	61 e0       	ldi	r22, 0x01	; 1
    51e2:	0e 94 6d 28 	call	0x50da	; 0x50da <led_setBlinkLed>
    51e6:	1f 91       	pop	r17
    51e8:	08 95       	ret

000051ea <led_clearAllBlinkLeds>:
    51ea:	80 91 87 05 	lds	r24, 0x0587
    51ee:	0e 94 e2 27 	call	0x4fc4	; 0x4fc4 <led_reset>
    51f2:	80 91 9e 05 	lds	r24, 0x059E
    51f6:	8e 7f       	andi	r24, 0xFE	; 254
    51f8:	80 93 9e 05 	sts	0x059E, r24
    51fc:	80 91 88 05 	lds	r24, 0x0588
    5200:	0e 94 e2 27 	call	0x4fc4	; 0x4fc4 <led_reset>
    5204:	80 91 9e 05 	lds	r24, 0x059E
    5208:	8d 7f       	andi	r24, 0xFD	; 253
    520a:	80 93 9e 05 	sts	0x059E, r24
    520e:	08 95       	ret

00005210 <led_clearActive_step>:
    5210:	80 91 35 02 	lds	r24, 0x0235
    5214:	0e 94 e2 27 	call	0x4fc4	; 0x4fc4 <led_reset>
    5218:	08 95       	ret

0000521a <led_setActive_step>:
    521a:	1f 93       	push	r17
    521c:	18 2f       	mov	r17, r24
    521e:	16 95       	lsr	r17
    5220:	16 95       	lsr	r17
    5222:	16 95       	lsr	r17
    5224:	18 5e       	subi	r17, 0xE8	; 232
    5226:	80 91 35 02 	lds	r24, 0x0235
    522a:	81 17       	cp	r24, r17
    522c:	49 f0       	breq	.+18     	; 0x5240 <led_setActive_step+0x26>
    522e:	80 91 35 02 	lds	r24, 0x0235
    5232:	0e 94 e2 27 	call	0x4fc4	; 0x4fc4 <led_reset>
    5236:	10 93 35 02 	sts	0x0235, r17
    523a:	81 2f       	mov	r24, r17
    523c:	0e 94 7b 27 	call	0x4ef6	; 0x4ef6 <led_toggleTemp>
    5240:	1f 91       	pop	r17
    5242:	08 95       	ret

00005244 <main>:
    5244:	1f 93       	push	r17
    5246:	52 9a       	sbi	0x0a, 2	; 10
    5248:	5a 98       	cbi	0x0b, 2	; 11
    524a:	14 b8       	out	0x04, r1	; 4
    524c:	20 98       	cbi	0x04, 0	; 4
    524e:	28 98       	cbi	0x05, 0	; 5
    5250:	0e 94 8e 10 	call	0x211c	; 0x211c <lcd_init>
    5254:	0e 94 7c 26 	call	0x4cf8	; 0x4cf8 <uart_init>
    5258:	8e ed       	ldi	r24, 0xDE	; 222
    525a:	90 e0       	ldi	r25, 0x00	; 0
    525c:	0e 94 05 11 	call	0x220a	; 0x220a <lcd_string_F>
    5260:	84 e9       	ldi	r24, 0x94	; 148
    5262:	91 e0       	ldi	r25, 0x01	; 1
    5264:	0e 94 f1 10 	call	0x21e2	; 0x21e2 <lcd_string>
    5268:	80 e0       	ldi	r24, 0x00	; 0
    526a:	62 e0       	ldi	r22, 0x02	; 2
    526c:	0e 94 db 10 	call	0x21b6	; 0x21b6 <lcd_setcursor>
    5270:	8e ec       	ldi	r24, 0xCE	; 206
    5272:	90 e0       	ldi	r25, 0x00	; 0
    5274:	0e 94 05 11 	call	0x220a	; 0x220a <lcd_string_F>
    5278:	0e 94 cf 24 	call	0x499e	; 0x499e <adc_init>
    527c:	0e 94 e0 0c 	call	0x19c0	; 0x19c0 <encode_init>
    5280:	0e 94 6c 25 	call	0x4ad8	; 0x4ad8 <din_init>
    5284:	0e 94 e0 25 	call	0x4bc0	; 0x4bc0 <dout_init>
    5288:	0e 94 bf 26 	call	0x4d7e	; 0x4d7e <led_init>
    528c:	0e 94 c6 24 	call	0x498c	; 0x498c <time_initTimer>
    5290:	80 e0       	ldi	r24, 0x00	; 0
    5292:	0e 94 59 27 	call	0x4eb2	; 0x4eb2 <led_toggle>
    5296:	8f ef       	ldi	r24, 0xFF	; 255
    5298:	91 e1       	ldi	r25, 0x11	; 17
    529a:	aa e7       	ldi	r26, 0x7A	; 122
    529c:	81 50       	subi	r24, 0x01	; 1
    529e:	90 40       	sbci	r25, 0x00	; 0
    52a0:	a0 40       	sbci	r26, 0x00	; 0
    52a2:	e1 f7       	brne	.-8      	; 0x529c <main+0x58>
    52a4:	00 c0       	rjmp	.+0      	; 0x52a6 <main+0x62>
    52a6:	00 00       	nop
    52a8:	0e 94 84 10 	call	0x2108	; 0x2108 <lcd_clear>
    52ac:	0e 94 95 34 	call	0x692a	; 0x692a <menu_init>
    52b0:	78 94       	sei
    52b2:	0e 94 84 3a 	call	0x7508	; 0x7508 <preset_init>
    52b6:	80 e0       	ldi	r24, 0x00	; 0
    52b8:	60 e0       	ldi	r22, 0x00	; 0
    52ba:	0e 94 3e 40 	call	0x807c	; 0x807c <preset_loadDrumset>
    52be:	0e 94 26 3b 	call	0x764c	; 0x764c <preset_loadGlobals>
    52c2:	0e 94 7e 25 	call	0x4afc	; 0x4afc <din_readNextInput>
    52c6:	0e 94 f4 25 	call	0x4be8	; 0x4be8 <dout_updateOutputs>
    52ca:	0e 94 ad 26 	call	0x4d5a	; 0x4d5a <uart_checkAndParse>
    52ce:	0e 94 42 0d 	call	0x1a84	; 0x1a84 <encode_read4>
    52d2:	18 2f       	mov	r17, r24
    52d4:	0e 94 4d 0d 	call	0x1a9a	; 0x1a9a <encode_readButton>
    52d8:	68 2f       	mov	r22, r24
    52da:	81 2f       	mov	r24, r17
    52dc:	0e 94 a3 36 	call	0x6d46	; 0x6d46 <menu_parseEncoder>
    52e0:	0e 94 ad 26 	call	0x4d5a	; 0x4d5a <uart_checkAndParse>
    52e4:	0e 94 ad 26 	call	0x4d5a	; 0x4d5a <uart_checkAndParse>
    52e8:	0e 94 ad 26 	call	0x4d5a	; 0x4d5a <uart_checkAndParse>
    52ec:	0e 94 ad 26 	call	0x4d5a	; 0x4d5a <uart_checkAndParse>
    52f0:	0e 94 33 25 	call	0x4a66	; 0x4a66 <adc_checkPots>
    52f4:	0e 94 00 28 	call	0x5000	; 0x5000 <led_tickHandler>
    52f8:	0e 94 6e 3a 	call	0x74dc	; 0x74dc <screensaver_check>
    52fc:	0e 94 9b 08 	call	0x1136	; 0x1136 <buttonHandler_tick>
    5300:	0e 94 e7 23 	call	0x47ce	; 0x47ce <SD_checkCardAvailable>
    5304:	de cf       	rjmp	.-68     	; 0x52c2 <main+0x7e>

00005306 <cc2Name_init>:
    5306:	0f 93       	push	r16
    5308:	1f 93       	push	r17
    530a:	cf 93       	push	r28
    530c:	df 93       	push	r29
    530e:	80 e0       	ldi	r24, 0x00	; 0
    5310:	90 e0       	ldi	r25, 0x00	; 0
    5312:	36 c0       	rjmp	.+108    	; 0x5380 <cc2Name_init+0x7a>
    5314:	fe 01       	movw	r30, r28
    5316:	e2 0f       	add	r30, r18
    5318:	f3 1f       	adc	r31, r19
    531a:	a4 91       	lpm	r26, Z+
    531c:	ea 2f       	mov	r30, r26
    531e:	e1 50       	subi	r30, 0x01	; 1
    5320:	ec 3d       	cpi	r30, 0xDC	; 220
    5322:	80 f4       	brcc	.+32     	; 0x5344 <cc2Name_init+0x3e>
    5324:	af 37       	cpi	r26, 0x7F	; 127
    5326:	08 f4       	brcc	.+2      	; 0x532a <cc2Name_init+0x24>
    5328:	af 5f       	subi	r26, 0xFF	; 255
    532a:	b0 e0       	ldi	r27, 0x00	; 0
    532c:	fb 01       	movw	r30, r22
    532e:	e2 0f       	add	r30, r18
    5330:	f3 1f       	adc	r31, r19
    5332:	e4 91       	lpm	r30, Z+
    5334:	aa 0f       	add	r26, r26
    5336:	bb 1f       	adc	r27, r27
    5338:	a1 56       	subi	r26, 0x61	; 97
    533a:	ba 4f       	sbci	r27, 0xFA	; 250
    533c:	11 96       	adiw	r26, 0x01	; 1
    533e:	ec 93       	st	X, r30
    5340:	11 97       	sbiw	r26, 0x01	; 1
    5342:	8c 93       	st	X, r24
    5344:	2f 5f       	subi	r18, 0xFF	; 255
    5346:	3f 4f       	sbci	r19, 0xFF	; 255
    5348:	28 30       	cpi	r18, 0x08	; 8
    534a:	31 05       	cpc	r19, r1
    534c:	19 f7       	brne	.-58     	; 0x5314 <cc2Name_init+0xe>
    534e:	4f 5f       	subi	r20, 0xFF	; 255
    5350:	5f 4f       	sbci	r21, 0xFF	; 255
    5352:	48 30       	cpi	r20, 0x08	; 8
    5354:	51 05       	cpc	r21, r1
    5356:	81 f0       	breq	.+32     	; 0x5378 <cc2Name_init+0x72>
    5358:	20 e0       	ldi	r18, 0x00	; 0
    535a:	30 e0       	ldi	r19, 0x00	; 0
    535c:	ba 01       	movw	r22, r20
    535e:	60 0f       	add	r22, r16
    5360:	71 1f       	adc	r23, r17
    5362:	e4 e0       	ldi	r30, 0x04	; 4
    5364:	66 0f       	add	r22, r22
    5366:	77 1f       	adc	r23, r23
    5368:	ea 95       	dec	r30
    536a:	e1 f7       	brne	.-8      	; 0x5364 <cc2Name_init+0x5e>
    536c:	eb 01       	movw	r28, r22
    536e:	c0 51       	subi	r28, 0x10	; 16
    5370:	df 4f       	sbci	r29, 0xFF	; 255
    5372:	68 51       	subi	r22, 0x18	; 24
    5374:	7f 4f       	sbci	r23, 0xFF	; 255
    5376:	ce cf       	rjmp	.-100    	; 0x5314 <cc2Name_init+0xe>
    5378:	01 96       	adiw	r24, 0x01	; 1
    537a:	86 30       	cpi	r24, 0x06	; 6
    537c:	91 05       	cpc	r25, r1
    537e:	49 f0       	breq	.+18     	; 0x5392 <cc2Name_init+0x8c>
    5380:	40 e0       	ldi	r20, 0x00	; 0
    5382:	50 e0       	ldi	r21, 0x00	; 0
    5384:	8c 01       	movw	r16, r24
    5386:	23 e0       	ldi	r18, 0x03	; 3
    5388:	00 0f       	add	r16, r16
    538a:	11 1f       	adc	r17, r17
    538c:	2a 95       	dec	r18
    538e:	e1 f7       	brne	.-8      	; 0x5388 <cc2Name_init+0x82>
    5390:	e3 cf       	rjmp	.-58     	; 0x5358 <cc2Name_init+0x52>
    5392:	df 91       	pop	r29
    5394:	cf 91       	pop	r28
    5396:	1f 91       	pop	r17
    5398:	0f 91       	pop	r16
    539a:	08 95       	ret

0000539c <copyClear_clearTrackAutom>:
    539c:	1f 93       	push	r17
    539e:	18 2f       	mov	r17, r24
    53a0:	0e 94 ae 39 	call	0x735c	; 0x735c <menu_getActiveVoice>
    53a4:	48 2f       	mov	r20, r24
    53a6:	42 95       	swap	r20
    53a8:	40 7f       	andi	r20, 0xF0	; 240
    53aa:	1f 70       	andi	r17, 0x0F	; 15
    53ac:	41 2b       	or	r20, r17
    53ae:	82 eb       	ldi	r24, 0xB2	; 178
    53b0:	68 e2       	ldi	r22, 0x28	; 40
    53b2:	0e 94 90 0d 	call	0x1b20	; 0x1b20 <frontPanel_sendData>
    53b6:	1f 91       	pop	r17
    53b8:	08 95       	ret

000053ba <copyClear_clearCurrentPattern>:
    53ba:	df 93       	push	r29
    53bc:	cf 93       	push	r28
    53be:	0f 92       	push	r0
    53c0:	cd b7       	in	r28, 0x3d	; 61
    53c2:	de b7       	in	r29, 0x3e	; 62
    53c4:	0e 94 bf 2a 	call	0x557e	; 0x557e <menu_getShownPattern>
    53c8:	89 83       	std	Y+1, r24	; 0x01
    53ca:	0e 94 93 27 	call	0x4f26	; 0x4f26 <led_clearSequencerLeds>
    53ce:	82 eb       	ldi	r24, 0xB2	; 178
    53d0:	67 e2       	ldi	r22, 0x27	; 39
    53d2:	49 81       	ldd	r20, Y+1	; 0x01
    53d4:	0e 94 90 0d 	call	0x1b20	; 0x1b20 <frontPanel_sendData>
    53d8:	0f 90       	pop	r0
    53da:	cf 91       	pop	r28
    53dc:	df 91       	pop	r29
    53de:	08 95       	ret

000053e0 <copyClear_setSrc>:
    53e0:	80 93 c1 01 	sts	0x01C1, r24
    53e4:	60 93 38 02 	sts	0x0238, r22
    53e8:	08 95       	ret

000053ea <copyClear_setDst>:
    53ea:	80 93 c2 01 	sts	0x01C2, r24
    53ee:	60 93 38 02 	sts	0x0238, r22
    53f2:	08 95       	ret

000053f4 <copyClear_srcSet>:
    53f4:	81 e0       	ldi	r24, 0x01	; 1
    53f6:	90 91 c1 01 	lds	r25, 0x01C1
    53fa:	9f 3f       	cpi	r25, 0xFF	; 255
    53fc:	09 f4       	brne	.+2      	; 0x5400 <copyClear_srcSet+0xc>
    53fe:	80 e0       	ldi	r24, 0x00	; 0
    5400:	08 95       	ret

00005402 <copyClear_clearCurrentTrack>:
    5402:	df 93       	push	r29
    5404:	cf 93       	push	r28
    5406:	0f 92       	push	r0
    5408:	cd b7       	in	r28, 0x3d	; 61
    540a:	de b7       	in	r29, 0x3e	; 62
    540c:	0e 94 ae 39 	call	0x735c	; 0x735c <menu_getActiveVoice>
    5410:	89 83       	std	Y+1, r24	; 0x01
    5412:	0e 94 93 27 	call	0x4f26	; 0x4f26 <led_clearSequencerLeds>
    5416:	82 eb       	ldi	r24, 0xB2	; 178
    5418:	6f e1       	ldi	r22, 0x1F	; 31
    541a:	49 81       	ldd	r20, Y+1	; 0x01
    541c:	0e 94 90 0d 	call	0x1b20	; 0x1b20 <frontPanel_sendData>
    5420:	0f 90       	pop	r0
    5422:	cf 91       	pop	r28
    5424:	df 91       	pop	r29
    5426:	08 95       	ret

00005428 <copyClear_copyTrack>:
    5428:	df 93       	push	r29
    542a:	cf 93       	push	r28
    542c:	0f 92       	push	r0
    542e:	cd b7       	in	r28, 0x3d	; 61
    5430:	de b7       	in	r29, 0x3e	; 62
    5432:	80 91 38 02 	lds	r24, 0x0238
    5436:	83 30       	cpi	r24, 0x03	; 3
    5438:	a9 f4       	brne	.+42     	; 0x5464 <copyClear_copyTrack+0x3c>
    543a:	40 91 c1 01 	lds	r20, 0x01C1
    543e:	42 95       	swap	r20
    5440:	40 7f       	andi	r20, 0xF0	; 240
    5442:	80 91 c2 01 	lds	r24, 0x01C2
    5446:	8f 70       	andi	r24, 0x0F	; 15
    5448:	48 2b       	or	r20, r24
    544a:	49 83       	std	Y+1, r20	; 0x01
    544c:	0e 94 93 27 	call	0x4f26	; 0x4f26 <led_clearSequencerLeds>
    5450:	82 eb       	ldi	r24, 0xB2	; 178
    5452:	60 e2       	ldi	r22, 0x20	; 32
    5454:	49 81       	ldd	r20, Y+1	; 0x01
    5456:	0e 94 90 0d 	call	0x1b20	; 0x1b20 <frontPanel_sendData>
    545a:	8f ef       	ldi	r24, 0xFF	; 255
    545c:	80 93 c2 01 	sts	0x01C2, r24
    5460:	80 93 c1 01 	sts	0x01C1, r24
    5464:	0f 90       	pop	r0
    5466:	cf 91       	pop	r28
    5468:	df 91       	pop	r29
    546a:	08 95       	ret

0000546c <copyClear_copyPattern>:
    546c:	df 93       	push	r29
    546e:	cf 93       	push	r28
    5470:	0f 92       	push	r0
    5472:	cd b7       	in	r28, 0x3d	; 61
    5474:	de b7       	in	r29, 0x3e	; 62
    5476:	80 91 38 02 	lds	r24, 0x0238
    547a:	82 30       	cpi	r24, 0x02	; 2
    547c:	a9 f4       	brne	.+42     	; 0x54a8 <copyClear_copyPattern+0x3c>
    547e:	40 91 c1 01 	lds	r20, 0x01C1
    5482:	42 95       	swap	r20
    5484:	40 7f       	andi	r20, 0xF0	; 240
    5486:	80 91 c2 01 	lds	r24, 0x01C2
    548a:	8f 70       	andi	r24, 0x0F	; 15
    548c:	48 2b       	or	r20, r24
    548e:	49 83       	std	Y+1, r20	; 0x01
    5490:	0e 94 93 27 	call	0x4f26	; 0x4f26 <led_clearSequencerLeds>
    5494:	82 eb       	ldi	r24, 0xB2	; 178
    5496:	61 e2       	ldi	r22, 0x21	; 33
    5498:	49 81       	ldd	r20, Y+1	; 0x01
    549a:	0e 94 90 0d 	call	0x1b20	; 0x1b20 <frontPanel_sendData>
    549e:	8f ef       	ldi	r24, 0xFF	; 255
    54a0:	80 93 c2 01 	sts	0x01C2, r24
    54a4:	80 93 c1 01 	sts	0x01C1, r24
    54a8:	0f 90       	pop	r0
    54aa:	cf 91       	pop	r28
    54ac:	df 91       	pop	r29
    54ae:	08 95       	ret

000054b0 <copyClear_isClearModeActive>:
    54b0:	81 e0       	ldi	r24, 0x01	; 1
    54b2:	90 91 38 02 	lds	r25, 0x0238
    54b6:	91 30       	cpi	r25, 0x01	; 1
    54b8:	09 f0       	breq	.+2      	; 0x54bc <copyClear_isClearModeActive+0xc>
    54ba:	80 e0       	ldi	r24, 0x00	; 0
    54bc:	08 95       	ret

000054be <copyClear_getClearTarget>:
    54be:	80 91 39 02 	lds	r24, 0x0239
    54c2:	08 95       	ret

000054c4 <copyClear_armClearMenu>:
    54c4:	88 23       	and	r24, r24
    54c6:	51 f1       	breq	.+84     	; 0x551c <copyClear_armClearMenu+0x58>
    54c8:	0e 94 84 10 	call	0x2108	; 0x2108 <lcd_clear>
    54cc:	80 e0       	ldi	r24, 0x00	; 0
    54ce:	61 e0       	ldi	r22, 0x01	; 1
    54d0:	0e 94 db 10 	call	0x21b6	; 0x21b6 <lcd_setcursor>
    54d4:	88 e9       	ldi	r24, 0x98	; 152
    54d6:	91 e0       	ldi	r25, 0x01	; 1
    54d8:	0e 94 f1 10 	call	0x21e2	; 0x21e2 <lcd_string>
    54dc:	80 91 39 02 	lds	r24, 0x0239
    54e0:	82 30       	cpi	r24, 0x02	; 2
    54e2:	51 f0       	breq	.+20     	; 0x54f8 <copyClear_armClearMenu+0x34>
    54e4:	83 30       	cpi	r24, 0x03	; 3
    54e6:	59 f0       	breq	.+22     	; 0x54fe <copyClear_armClearMenu+0x3a>
    54e8:	81 30       	cpi	r24, 0x01	; 1
    54ea:	19 f0       	breq	.+6      	; 0x54f2 <copyClear_armClearMenu+0x2e>
    54ec:	80 ea       	ldi	r24, 0xA0	; 160
    54ee:	91 e0       	ldi	r25, 0x01	; 1
    54f0:	08 c0       	rjmp	.+16     	; 0x5502 <copyClear_armClearMenu+0x3e>
    54f2:	86 ea       	ldi	r24, 0xA6	; 166
    54f4:	91 e0       	ldi	r25, 0x01	; 1
    54f6:	05 c0       	rjmp	.+10     	; 0x5502 <copyClear_armClearMenu+0x3e>
    54f8:	8e ea       	ldi	r24, 0xAE	; 174
    54fa:	91 e0       	ldi	r25, 0x01	; 1
    54fc:	02 c0       	rjmp	.+4      	; 0x5502 <copyClear_armClearMenu+0x3e>
    54fe:	86 eb       	ldi	r24, 0xB6	; 182
    5500:	91 e0       	ldi	r25, 0x01	; 1
    5502:	0e 94 f1 10 	call	0x21e2	; 0x21e2 <lcd_string>
    5506:	8e eb       	ldi	r24, 0xBE	; 190
    5508:	91 e0       	ldi	r25, 0x01	; 1
    550a:	0e 94 f1 10 	call	0x21e2	; 0x21e2 <lcd_string>
    550e:	0e 94 f5 28 	call	0x51ea	; 0x51ea <led_clearAllBlinkLeds>
    5512:	81 e0       	ldi	r24, 0x01	; 1
    5514:	6f e0       	ldi	r22, 0x0F	; 15
    5516:	0e 94 38 27 	call	0x4e70	; 0x4e70 <led_setValue>
    551a:	08 95       	ret
    551c:	80 e0       	ldi	r24, 0x00	; 0
    551e:	6f e0       	ldi	r22, 0x0F	; 15
    5520:	0e 94 38 27 	call	0x4e70	; 0x4e70 <led_setValue>
    5524:	0e 94 99 32 	call	0x6532	; 0x6532 <menu_repaintAll>
    5528:	08 95       	ret

0000552a <copyClear_setClearTarget>:
    552a:	80 93 39 02 	sts	0x0239, r24
    552e:	80 91 38 02 	lds	r24, 0x0238
    5532:	81 30       	cpi	r24, 0x01	; 1
    5534:	11 f4       	brne	.+4      	; 0x553a <copyClear_setClearTarget+0x10>
    5536:	0e 94 62 2a 	call	0x54c4	; 0x54c4 <copyClear_armClearMenu>
    553a:	08 95       	ret

0000553c <copyClear_executeClear>:
    553c:	80 91 39 02 	lds	r24, 0x0239
    5540:	82 30       	cpi	r24, 0x02	; 2
    5542:	51 f0       	breq	.+20     	; 0x5558 <copyClear_executeClear+0x1c>
    5544:	83 30       	cpi	r24, 0x03	; 3
    5546:	51 f0       	breq	.+20     	; 0x555c <copyClear_executeClear+0x20>
    5548:	81 30       	cpi	r24, 0x01	; 1
    554a:	19 f0       	breq	.+6      	; 0x5552 <copyClear_executeClear+0x16>
    554c:	0e 94 01 2a 	call	0x5402	; 0x5402 <copyClear_clearCurrentTrack>
    5550:	08 c0       	rjmp	.+16     	; 0x5562 <copyClear_executeClear+0x26>
    5552:	0e 94 dd 29 	call	0x53ba	; 0x53ba <copyClear_clearCurrentPattern>
    5556:	05 c0       	rjmp	.+10     	; 0x5562 <copyClear_executeClear+0x26>
    5558:	80 e0       	ldi	r24, 0x00	; 0
    555a:	01 c0       	rjmp	.+2      	; 0x555e <copyClear_executeClear+0x22>
    555c:	81 e0       	ldi	r24, 0x01	; 1
    555e:	0e 94 ce 29 	call	0x539c	; 0x539c <copyClear_clearTrackAutom>
    5562:	80 e0       	ldi	r24, 0x00	; 0
    5564:	0e 94 62 2a 	call	0x54c4	; 0x54c4 <copyClear_armClearMenu>
    5568:	10 92 38 02 	sts	0x0238, r1
    556c:	08 95       	ret

0000556e <menu_setShownPattern>:
    556e:	48 2f       	mov	r20, r24
    5570:	80 93 3a 02 	sts	0x023A, r24
    5574:	82 eb       	ldi	r24, 0xB2	; 178
    5576:	6a e1       	ldi	r22, 0x1A	; 26
    5578:	0e 94 90 0d 	call	0x1b20	; 0x1b20 <frontPanel_sendData>
    557c:	08 95       	ret

0000557e <menu_getShownPattern>:
    557e:	80 91 3a 02 	lds	r24, 0x023A
    5582:	08 95       	ret

00005584 <lockPotentiometerFetch>:
    5584:	80 91 ef 01 	lds	r24, 0x01EF
    5588:	84 ff       	sbrs	r24, 4
    558a:	03 c0       	rjmp	.+6      	; 0x5592 <lockPotentiometerFetch+0xe>
    558c:	8f 60       	ori	r24, 0x0F	; 15
    558e:	80 93 ef 01 	sts	0x01EF, r24
    5592:	08 95       	ret

00005594 <getModTargetValue>:
    5594:	28 2f       	mov	r18, r24
    5596:	26 95       	lsr	r18
    5598:	26 95       	lsr	r18
    559a:	26 95       	lsr	r18
    559c:	30 e0       	ldi	r19, 0x00	; 0
    559e:	66 30       	cpi	r22, 0x06	; 6
    55a0:	08 f0       	brcs	.+2      	; 0x55a4 <getModTargetValue+0x10>
    55a2:	65 e0       	ldi	r22, 0x05	; 5
    55a4:	e6 2f       	mov	r30, r22
    55a6:	f0 e0       	ldi	r31, 0x00	; 0
    55a8:	43 e0       	ldi	r20, 0x03	; 3
    55aa:	ee 0f       	add	r30, r30
    55ac:	ff 1f       	adc	r31, r31
    55ae:	4a 95       	dec	r20
    55b0:	e1 f7       	brne	.-8      	; 0x55aa <getModTargetValue+0x16>
    55b2:	e2 0f       	add	r30, r18
    55b4:	f3 1f       	adc	r31, r19
    55b6:	94 e0       	ldi	r25, 0x04	; 4
    55b8:	ee 0f       	add	r30, r30
    55ba:	ff 1f       	adc	r31, r31
    55bc:	9a 95       	dec	r25
    55be:	e1 f7       	brne	.-8      	; 0x55b8 <getModTargetValue+0x24>
    55c0:	e0 51       	subi	r30, 0x10	; 16
    55c2:	ff 4f       	sbci	r31, 0xFF	; 255
    55c4:	87 70       	andi	r24, 0x07	; 7
    55c6:	e8 0f       	add	r30, r24
    55c8:	f1 1d       	adc	r31, r1
    55ca:	84 91       	lpm	r24, Z+
    55cc:	08 95       	ret

000055ce <sendDisplayBuffer>:
    55ce:	af 92       	push	r10
    55d0:	bf 92       	push	r11
    55d2:	cf 92       	push	r12
    55d4:	df 92       	push	r13
    55d6:	ef 92       	push	r14
    55d8:	ff 92       	push	r15
    55da:	0f 93       	push	r16
    55dc:	1f 93       	push	r17
    55de:	cf 93       	push	r28
    55e0:	df 93       	push	r29
    55e2:	00 e0       	ldi	r16, 0x00	; 0
    55e4:	10 e0       	ldi	r17, 0x00	; 0
    55e6:	70 e2       	ldi	r23, 0x20	; 32
    55e8:	b7 2e       	mov	r11, r23
    55ea:	22 c0       	rjmp	.+68     	; 0x5630 <sendDisplayBuffer+0x62>
    55ec:	88 81       	ld	r24, Y
    55ee:	f7 01       	movw	r30, r14
    55f0:	90 81       	ld	r25, Z
    55f2:	98 17       	cp	r25, r24
    55f4:	69 f0       	breq	.+26     	; 0x5610 <sendDisplayBuffer+0x42>
    55f6:	88 23       	and	r24, r24
    55f8:	09 f4       	brne	.+2      	; 0x55fc <sendDisplayBuffer+0x2e>
    55fa:	b8 82       	st	Y, r11
    55fc:	8c 2d       	mov	r24, r12
    55fe:	6a 2d       	mov	r22, r10
    5600:	0e 94 db 10 	call	0x21b6	; 0x21b6 <lcd_setcursor>
    5604:	88 81       	ld	r24, Y
    5606:	0e 94 60 10 	call	0x20c0	; 0x20c0 <lcd_data>
    560a:	88 81       	ld	r24, Y
    560c:	f7 01       	movw	r30, r14
    560e:	80 83       	st	Z, r24
    5610:	08 94       	sec
    5612:	c1 1c       	adc	r12, r1
    5614:	d1 1c       	adc	r13, r1
    5616:	08 94       	sec
    5618:	e1 1c       	adc	r14, r1
    561a:	f1 1c       	adc	r15, r1
    561c:	21 96       	adiw	r28, 0x01	; 1
    561e:	f0 e1       	ldi	r31, 0x10	; 16
    5620:	cf 16       	cp	r12, r31
    5622:	d1 04       	cpc	r13, r1
    5624:	19 f7       	brne	.-58     	; 0x55ec <sendDisplayBuffer+0x1e>
    5626:	0f 5f       	subi	r16, 0xFF	; 255
    5628:	1f 4f       	sbci	r17, 0xFF	; 255
    562a:	02 30       	cpi	r16, 0x02	; 2
    562c:	11 05       	cpc	r17, r1
    562e:	a9 f0       	breq	.+42     	; 0x565a <sendDisplayBuffer+0x8c>
    5630:	e8 01       	movw	r28, r16
    5632:	64 e0       	ldi	r22, 0x04	; 4
    5634:	cc 0f       	add	r28, r28
    5636:	dd 1f       	adc	r29, r29
    5638:	6a 95       	dec	r22
    563a:	e1 f7       	brne	.-8      	; 0x5634 <sendDisplayBuffer+0x66>
    563c:	59 e5       	ldi	r21, 0x59	; 89
    563e:	e5 2e       	mov	r14, r21
    5640:	57 e0       	ldi	r21, 0x07	; 7
    5642:	f5 2e       	mov	r15, r21
    5644:	ec 0e       	add	r14, r28
    5646:	fd 1e       	adc	r15, r29
    5648:	c0 0f       	add	r28, r16
    564a:	d1 1f       	adc	r29, r17
    564c:	c7 58       	subi	r28, 0x87	; 135
    564e:	d8 4f       	sbci	r29, 0xF8	; 248
    5650:	cc 24       	eor	r12, r12
    5652:	dd 24       	eor	r13, r13
    5654:	a0 2e       	mov	r10, r16
    5656:	a3 94       	inc	r10
    5658:	c9 cf       	rjmp	.-110    	; 0x55ec <sendDisplayBuffer+0x1e>
    565a:	df 91       	pop	r29
    565c:	cf 91       	pop	r28
    565e:	1f 91       	pop	r17
    5660:	0f 91       	pop	r16
    5662:	ff 90       	pop	r15
    5664:	ef 90       	pop	r14
    5666:	df 90       	pop	r13
    5668:	cf 90       	pop	r12
    566a:	bf 90       	pop	r11
    566c:	af 90       	pop	r10
    566e:	08 95       	ret

00005670 <menu_repaintLoadSavePage>:
    5670:	0f 93       	push	r16
    5672:	1f 93       	push	r17
    5674:	df 93       	push	r29
    5676:	cf 93       	push	r28
    5678:	00 d0       	rcall	.+0      	; 0x567a <menu_repaintLoadSavePage+0xa>
    567a:	00 d0       	rcall	.+0      	; 0x567c <menu_repaintLoadSavePage+0xc>
    567c:	cd b7       	in	r28, 0x3d	; 61
    567e:	de b7       	in	r29, 0x3e	; 62
    5680:	80 91 3b 02 	lds	r24, 0x023B
    5684:	89 30       	cpi	r24, 0x09	; 9
    5686:	09 f0       	breq	.+2      	; 0x568a <menu_repaintLoadSavePage+0x1a>
    5688:	fc c0       	rjmp	.+504    	; 0x5882 <menu_repaintLoadSavePage+0x212>
    568a:	89 e7       	ldi	r24, 0x79	; 121
    568c:	97 e0       	ldi	r25, 0x07	; 7
    568e:	69 e1       	ldi	r22, 0x19	; 25
    5690:	70 e1       	ldi	r23, 0x10	; 16
    5692:	0e 94 4d 43 	call	0x869a	; 0x869a <strcpy_P>
    5696:	80 91 41 02 	lds	r24, 0x0241
    569a:	87 70       	andi	r24, 0x07	; 7
    569c:	90 e0       	ldi	r25, 0x00	; 0
    569e:	81 30       	cpi	r24, 0x01	; 1
    56a0:	91 05       	cpc	r25, r1
    56a2:	21 f1       	breq	.+72     	; 0x56ec <menu_repaintLoadSavePage+0x7c>
    56a4:	82 30       	cpi	r24, 0x02	; 2
    56a6:	91 05       	cpc	r25, r1
    56a8:	1c f4       	brge	.+6      	; 0x56b0 <menu_repaintLoadSavePage+0x40>
    56aa:	00 97       	sbiw	r24, 0x00	; 0
    56ac:	49 f0       	breq	.+18     	; 0x56c0 <menu_repaintLoadSavePage+0x50>
    56ae:	50 c0       	rjmp	.+160    	; 0x5750 <menu_repaintLoadSavePage+0xe0>
    56b0:	82 30       	cpi	r24, 0x02	; 2
    56b2:	91 05       	cpc	r25, r1
    56b4:	81 f1       	breq	.+96     	; 0x5716 <menu_repaintLoadSavePage+0xa6>
    56b6:	83 30       	cpi	r24, 0x03	; 3
    56b8:	91 05       	cpc	r25, r1
    56ba:	09 f0       	breq	.+2      	; 0x56be <menu_repaintLoadSavePage+0x4e>
    56bc:	49 c0       	rjmp	.+146    	; 0x5750 <menu_repaintLoadSavePage+0xe0>
    56be:	30 c0       	rjmp	.+96     	; 0x5720 <menu_repaintLoadSavePage+0xb0>
    56c0:	8f e7       	ldi	r24, 0x7F	; 127
    56c2:	97 e0       	ldi	r25, 0x07	; 7
    56c4:	60 e1       	ldi	r22, 0x10	; 16
    56c6:	70 e1       	ldi	r23, 0x10	; 16
    56c8:	0e 94 4d 43 	call	0x869a	; 0x869a <strcpy_P>
    56cc:	80 91 41 02 	lds	r24, 0x0241
    56d0:	88 77       	andi	r24, 0x78	; 120
    56d2:	09 f0       	breq	.+2      	; 0x56d6 <menu_repaintLoadSavePage+0x66>
    56d4:	3d c0       	rjmp	.+122    	; 0x5750 <menu_repaintLoadSavePage+0xe0>
    56d6:	80 91 3f 02 	lds	r24, 0x023F
    56da:	88 23       	and	r24, r24
    56dc:	b1 f1       	breq	.+108    	; 0x574a <menu_repaintLoadSavePage+0xda>
    56de:	8b e5       	ldi	r24, 0x5B	; 91
    56e0:	80 93 7e 07 	sts	0x077E, r24
    56e4:	8d e5       	ldi	r24, 0x5D	; 93
    56e6:	80 93 84 07 	sts	0x0784, r24
    56ea:	32 c0       	rjmp	.+100    	; 0x5750 <menu_repaintLoadSavePage+0xe0>
    56ec:	8f e7       	ldi	r24, 0x7F	; 127
    56ee:	97 e0       	ldi	r25, 0x07	; 7
    56f0:	67 e0       	ldi	r22, 0x07	; 7
    56f2:	70 e1       	ldi	r23, 0x10	; 16
    56f4:	0e 94 4d 43 	call	0x869a	; 0x869a <strcpy_P>
    56f8:	80 91 41 02 	lds	r24, 0x0241
    56fc:	88 77       	andi	r24, 0x78	; 120
    56fe:	41 f5       	brne	.+80     	; 0x5750 <menu_repaintLoadSavePage+0xe0>
    5700:	80 91 3f 02 	lds	r24, 0x023F
    5704:	88 23       	and	r24, r24
    5706:	09 f1       	breq	.+66     	; 0x574a <menu_repaintLoadSavePage+0xda>
    5708:	8b e5       	ldi	r24, 0x5B	; 91
    570a:	80 93 7e 07 	sts	0x077E, r24
    570e:	8d e5       	ldi	r24, 0x5D	; 93
    5710:	80 93 86 07 	sts	0x0786, r24
    5714:	1d c0       	rjmp	.+58     	; 0x5750 <menu_repaintLoadSavePage+0xe0>
    5716:	8f e7       	ldi	r24, 0x7F	; 127
    5718:	97 e0       	ldi	r25, 0x07	; 7
    571a:	6e ef       	ldi	r22, 0xFE	; 254
    571c:	7f e0       	ldi	r23, 0x0F	; 15
    571e:	04 c0       	rjmp	.+8      	; 0x5728 <menu_repaintLoadSavePage+0xb8>
    5720:	8f e7       	ldi	r24, 0x7F	; 127
    5722:	97 e0       	ldi	r25, 0x07	; 7
    5724:	65 ef       	ldi	r22, 0xF5	; 245
    5726:	7f e0       	ldi	r23, 0x0F	; 15
    5728:	0e 94 4d 43 	call	0x869a	; 0x869a <strcpy_P>
    572c:	80 91 41 02 	lds	r24, 0x0241
    5730:	88 77       	andi	r24, 0x78	; 120
    5732:	71 f4       	brne	.+28     	; 0x5750 <menu_repaintLoadSavePage+0xe0>
    5734:	80 91 3f 02 	lds	r24, 0x023F
    5738:	88 23       	and	r24, r24
    573a:	39 f0       	breq	.+14     	; 0x574a <menu_repaintLoadSavePage+0xda>
    573c:	8b e5       	ldi	r24, 0x5B	; 91
    573e:	80 93 7e 07 	sts	0x077E, r24
    5742:	8d e5       	ldi	r24, 0x5D	; 93
    5744:	80 93 87 07 	sts	0x0787, r24
    5748:	03 c0       	rjmp	.+6      	; 0x5750 <menu_repaintLoadSavePage+0xe0>
    574a:	8e e3       	ldi	r24, 0x3E	; 62
    574c:	80 93 7e 07 	sts	0x077E, r24
    5750:	80 91 41 02 	lds	r24, 0x0241
    5754:	87 70       	andi	r24, 0x07	; 7
    5756:	83 30       	cpi	r24, 0x03	; 3
    5758:	09 f4       	brne	.+2      	; 0x575c <menu_repaintLoadSavePage+0xec>
    575a:	8e c0       	rjmp	.+284    	; 0x5878 <menu_repaintLoadSavePage+0x208>
    575c:	19 82       	std	Y+1, r1	; 0x01
    575e:	1a 82       	std	Y+2, r1	; 0x02
    5760:	1b 82       	std	Y+3, r1	; 0x03
    5762:	1c 82       	std	Y+4, r1	; 0x04
    5764:	20 91 40 02 	lds	r18, 0x0240
    5768:	00 d0       	rcall	.+0      	; 0x576a <menu_repaintLoadSavePage+0xfa>
    576a:	00 d0       	rcall	.+0      	; 0x576c <menu_repaintLoadSavePage+0xfc>
    576c:	00 d0       	rcall	.+0      	; 0x576e <menu_repaintLoadSavePage+0xfe>
    576e:	ed b7       	in	r30, 0x3d	; 61
    5770:	fe b7       	in	r31, 0x3e	; 62
    5772:	31 96       	adiw	r30, 0x01	; 1
    5774:	8e 01       	movw	r16, r28
    5776:	0f 5f       	subi	r16, 0xFF	; 255
    5778:	1f 4f       	sbci	r17, 0xFF	; 255
    577a:	ad b7       	in	r26, 0x3d	; 61
    577c:	be b7       	in	r27, 0x3e	; 62
    577e:	12 96       	adiw	r26, 0x02	; 2
    5780:	1c 93       	st	X, r17
    5782:	0e 93       	st	-X, r16
    5784:	11 97       	sbiw	r26, 0x01	; 1
    5786:	83 ec       	ldi	r24, 0xC3	; 195
    5788:	91 e0       	ldi	r25, 0x01	; 1
    578a:	93 83       	std	Z+3, r25	; 0x03
    578c:	82 83       	std	Z+2, r24	; 0x02
    578e:	24 83       	std	Z+4, r18	; 0x04
    5790:	15 82       	std	Z+5, r1	; 0x05
    5792:	0e 94 ab 43 	call	0x8756	; 0x8756 <sprintf>
    5796:	ab e8       	ldi	r26, 0x8B	; 139
    5798:	b7 e0       	ldi	r27, 0x07	; 7
    579a:	f8 01       	movw	r30, r16
    579c:	83 e0       	ldi	r24, 0x03	; 3
    579e:	01 90       	ld	r0, Z+
    57a0:	0d 92       	st	X+, r0
    57a2:	81 50       	subi	r24, 0x01	; 1
    57a4:	e1 f7       	brne	.-8      	; 0x579e <menu_repaintLoadSavePage+0x12e>
    57a6:	80 91 41 02 	lds	r24, 0x0241
    57aa:	88 77       	andi	r24, 0x78	; 120
    57ac:	2d b7       	in	r18, 0x3d	; 61
    57ae:	3e b7       	in	r19, 0x3e	; 62
    57b0:	2a 5f       	subi	r18, 0xFA	; 250
    57b2:	3f 4f       	sbci	r19, 0xFF	; 255
    57b4:	0f b6       	in	r0, 0x3f	; 63
    57b6:	f8 94       	cli
    57b8:	3e bf       	out	0x3e, r19	; 62
    57ba:	0f be       	out	0x3f, r0	; 63
    57bc:	2d bf       	out	0x3d, r18	; 61
    57be:	88 30       	cpi	r24, 0x08	; 8
    57c0:	71 f4       	brne	.+28     	; 0x57de <menu_repaintLoadSavePage+0x16e>
    57c2:	80 91 3f 02 	lds	r24, 0x023F
    57c6:	88 23       	and	r24, r24
    57c8:	39 f0       	breq	.+14     	; 0x57d8 <menu_repaintLoadSavePage+0x168>
    57ca:	8b e5       	ldi	r24, 0x5B	; 91
    57cc:	80 93 8a 07 	sts	0x078A, r24
    57d0:	8d e5       	ldi	r24, 0x5D	; 93
    57d2:	80 93 8e 07 	sts	0x078E, r24
    57d6:	03 c0       	rjmp	.+6      	; 0x57de <menu_repaintLoadSavePage+0x16e>
    57d8:	8e e3       	ldi	r24, 0x3E	; 62
    57da:	80 93 8a 07 	sts	0x078A, r24
    57de:	80 91 41 02 	lds	r24, 0x0241
    57e2:	86 95       	lsr	r24
    57e4:	86 95       	lsr	r24
    57e6:	86 95       	lsr	r24
    57e8:	8f 70       	andi	r24, 0x0F	; 15
    57ea:	90 e0       	ldi	r25, 0x00	; 0
    57ec:	82 30       	cpi	r24, 0x02	; 2
    57ee:	91 05       	cpc	r25, r1
    57f0:	d4 f1       	brlt	.+116    	; 0x5866 <menu_repaintLoadSavePage+0x1f6>
    57f2:	80 91 41 02 	lds	r24, 0x0241
    57f6:	86 95       	lsr	r24
    57f8:	86 95       	lsr	r24
    57fa:	86 95       	lsr	r24
    57fc:	8f 70       	andi	r24, 0x0F	; 15
    57fe:	90 e0       	ldi	r25, 0x00	; 0
    5800:	8a 30       	cpi	r24, 0x0A	; 10
    5802:	91 05       	cpc	r25, r1
    5804:	84 f5       	brge	.+96     	; 0x5866 <menu_repaintLoadSavePage+0x1f6>
    5806:	af e8       	ldi	r26, 0x8F	; 143
    5808:	b7 e0       	ldi	r27, 0x07	; 7
    580a:	e3 e9       	ldi	r30, 0x93	; 147
    580c:	fd e0       	ldi	r31, 0x0D	; 13
    580e:	88 e0       	ldi	r24, 0x08	; 8
    5810:	01 90       	ld	r0, Z+
    5812:	0d 92       	st	X+, r0
    5814:	81 50       	subi	r24, 0x01	; 1
    5816:	e1 f7       	brne	.-8      	; 0x5810 <menu_repaintLoadSavePage+0x1a0>
    5818:	80 91 3f 02 	lds	r24, 0x023F
    581c:	88 23       	and	r24, r24
    581e:	b9 f0       	breq	.+46     	; 0x584e <menu_repaintLoadSavePage+0x1de>
    5820:	e0 91 41 02 	lds	r30, 0x0241
    5824:	e6 95       	lsr	r30
    5826:	e6 95       	lsr	r30
    5828:	e6 95       	lsr	r30
    582a:	ef 70       	andi	r30, 0x0F	; 15
    582c:	f0 e0       	ldi	r31, 0x00	; 0
    582e:	e7 58       	subi	r30, 0x87	; 135
    5830:	f8 4f       	sbci	r31, 0xF8	; 248
    5832:	8b e5       	ldi	r24, 0x5B	; 91
    5834:	83 8b       	std	Z+19, r24	; 0x13
    5836:	e0 91 41 02 	lds	r30, 0x0241
    583a:	e6 95       	lsr	r30
    583c:	e6 95       	lsr	r30
    583e:	e6 95       	lsr	r30
    5840:	ef 70       	andi	r30, 0x0F	; 15
    5842:	f0 e0       	ldi	r31, 0x00	; 0
    5844:	e7 58       	subi	r30, 0x87	; 135
    5846:	f8 4f       	sbci	r31, 0xF8	; 248
    5848:	8d e5       	ldi	r24, 0x5D	; 93
    584a:	85 8b       	std	Z+21, r24	; 0x15
    584c:	15 c0       	rjmp	.+42     	; 0x5878 <menu_repaintLoadSavePage+0x208>
    584e:	e0 91 41 02 	lds	r30, 0x0241
    5852:	e6 95       	lsr	r30
    5854:	e6 95       	lsr	r30
    5856:	e6 95       	lsr	r30
    5858:	ef 70       	andi	r30, 0x0F	; 15
    585a:	f0 e0       	ldi	r31, 0x00	; 0
    585c:	e7 58       	subi	r30, 0x87	; 135
    585e:	f8 4f       	sbci	r31, 0xF8	; 248
    5860:	8e e3       	ldi	r24, 0x3E	; 62
    5862:	83 8b       	std	Z+19, r24	; 0x13
    5864:	09 c0       	rjmp	.+18     	; 0x5878 <menu_repaintLoadSavePage+0x208>
    5866:	af e8       	ldi	r26, 0x8F	; 143
    5868:	b7 e0       	ldi	r27, 0x07	; 7
    586a:	e3 e9       	ldi	r30, 0x93	; 147
    586c:	fd e0       	ldi	r31, 0x0D	; 13
    586e:	88 e0       	ldi	r24, 0x08	; 8
    5870:	01 90       	ld	r0, Z+
    5872:	0d 92       	st	X+, r0
    5874:	81 50       	subi	r24, 0x01	; 1
    5876:	e1 f7       	brne	.-8      	; 0x5870 <menu_repaintLoadSavePage+0x200>
    5878:	88 e9       	ldi	r24, 0x98	; 152
    587a:	97 e0       	ldi	r25, 0x07	; 7
    587c:	62 ef       	ldi	r22, 0xF2	; 242
    587e:	7f e0       	ldi	r23, 0x0F	; 15
    5880:	c1 c0       	rjmp	.+386    	; 0x5a04 <menu_repaintLoadSavePage+0x394>
    5882:	89 e7       	ldi	r24, 0x79	; 121
    5884:	97 e0       	ldi	r25, 0x07	; 7
    5886:	6d ee       	ldi	r22, 0xED	; 237
    5888:	7f e0       	ldi	r23, 0x0F	; 15
    588a:	0e 94 4d 43 	call	0x869a	; 0x869a <strcpy_P>
    588e:	80 91 41 02 	lds	r24, 0x0241
    5892:	87 70       	andi	r24, 0x07	; 7
    5894:	90 e0       	ldi	r25, 0x00	; 0
    5896:	81 30       	cpi	r24, 0x01	; 1
    5898:	91 05       	cpc	r25, r1
    589a:	71 f0       	breq	.+28     	; 0x58b8 <menu_repaintLoadSavePage+0x248>
    589c:	82 30       	cpi	r24, 0x02	; 2
    589e:	91 05       	cpc	r25, r1
    58a0:	1c f4       	brge	.+6      	; 0x58a8 <menu_repaintLoadSavePage+0x238>
    58a2:	00 97       	sbiw	r24, 0x00	; 0
    58a4:	f9 f0       	breq	.+62     	; 0x58e4 <menu_repaintLoadSavePage+0x274>
    58a6:	50 c0       	rjmp	.+160    	; 0x5948 <menu_repaintLoadSavePage+0x2d8>
    58a8:	82 30       	cpi	r24, 0x02	; 2
    58aa:	91 05       	cpc	r25, r1
    58ac:	81 f1       	breq	.+96     	; 0x590e <menu_repaintLoadSavePage+0x29e>
    58ae:	83 30       	cpi	r24, 0x03	; 3
    58b0:	91 05       	cpc	r25, r1
    58b2:	09 f0       	breq	.+2      	; 0x58b6 <menu_repaintLoadSavePage+0x246>
    58b4:	49 c0       	rjmp	.+146    	; 0x5948 <menu_repaintLoadSavePage+0x2d8>
    58b6:	30 c0       	rjmp	.+96     	; 0x5918 <menu_repaintLoadSavePage+0x2a8>
    58b8:	8f e7       	ldi	r24, 0x7F	; 127
    58ba:	97 e0       	ldi	r25, 0x07	; 7
    58bc:	65 ee       	ldi	r22, 0xE5	; 229
    58be:	7f e0       	ldi	r23, 0x0F	; 15
    58c0:	0e 94 4d 43 	call	0x869a	; 0x869a <strcpy_P>
    58c4:	80 91 41 02 	lds	r24, 0x0241
    58c8:	88 77       	andi	r24, 0x78	; 120
    58ca:	09 f0       	breq	.+2      	; 0x58ce <menu_repaintLoadSavePage+0x25e>
    58cc:	3d c0       	rjmp	.+122    	; 0x5948 <menu_repaintLoadSavePage+0x2d8>
    58ce:	80 91 3f 02 	lds	r24, 0x023F
    58d2:	88 23       	and	r24, r24
    58d4:	b1 f1       	breq	.+108    	; 0x5942 <menu_repaintLoadSavePage+0x2d2>
    58d6:	8b e5       	ldi	r24, 0x5B	; 91
    58d8:	80 93 7e 07 	sts	0x077E, r24
    58dc:	8d e5       	ldi	r24, 0x5D	; 93
    58de:	80 93 86 07 	sts	0x0786, r24
    58e2:	32 c0       	rjmp	.+100    	; 0x5948 <menu_repaintLoadSavePage+0x2d8>
    58e4:	8f e7       	ldi	r24, 0x7F	; 127
    58e6:	97 e0       	ldi	r25, 0x07	; 7
    58e8:	6d ed       	ldi	r22, 0xDD	; 221
    58ea:	7f e0       	ldi	r23, 0x0F	; 15
    58ec:	0e 94 4d 43 	call	0x869a	; 0x869a <strcpy_P>
    58f0:	80 91 41 02 	lds	r24, 0x0241
    58f4:	88 77       	andi	r24, 0x78	; 120
    58f6:	41 f5       	brne	.+80     	; 0x5948 <menu_repaintLoadSavePage+0x2d8>
    58f8:	80 91 3f 02 	lds	r24, 0x023F
    58fc:	88 23       	and	r24, r24
    58fe:	09 f1       	breq	.+66     	; 0x5942 <menu_repaintLoadSavePage+0x2d2>
    5900:	8b e5       	ldi	r24, 0x5B	; 91
    5902:	80 93 7e 07 	sts	0x077E, r24
    5906:	8d e5       	ldi	r24, 0x5D	; 93
    5908:	80 93 84 07 	sts	0x0784, r24
    590c:	1d c0       	rjmp	.+58     	; 0x5948 <menu_repaintLoadSavePage+0x2d8>
    590e:	8f e7       	ldi	r24, 0x7F	; 127
    5910:	97 e0       	ldi	r25, 0x07	; 7
    5912:	64 ed       	ldi	r22, 0xD4	; 212
    5914:	7f e0       	ldi	r23, 0x0F	; 15
    5916:	04 c0       	rjmp	.+8      	; 0x5920 <menu_repaintLoadSavePage+0x2b0>
    5918:	8f e7       	ldi	r24, 0x7F	; 127
    591a:	97 e0       	ldi	r25, 0x07	; 7
    591c:	6b ec       	ldi	r22, 0xCB	; 203
    591e:	7f e0       	ldi	r23, 0x0F	; 15
    5920:	0e 94 4d 43 	call	0x869a	; 0x869a <strcpy_P>
    5924:	80 91 41 02 	lds	r24, 0x0241
    5928:	88 77       	andi	r24, 0x78	; 120
    592a:	71 f4       	brne	.+28     	; 0x5948 <menu_repaintLoadSavePage+0x2d8>
    592c:	80 91 3f 02 	lds	r24, 0x023F
    5930:	88 23       	and	r24, r24
    5932:	39 f0       	breq	.+14     	; 0x5942 <menu_repaintLoadSavePage+0x2d2>
    5934:	8b e5       	ldi	r24, 0x5B	; 91
    5936:	80 93 7e 07 	sts	0x077E, r24
    593a:	8d e5       	ldi	r24, 0x5D	; 93
    593c:	80 93 87 07 	sts	0x0787, r24
    5940:	03 c0       	rjmp	.+6      	; 0x5948 <menu_repaintLoadSavePage+0x2d8>
    5942:	8e e3       	ldi	r24, 0x3E	; 62
    5944:	80 93 7e 07 	sts	0x077E, r24
    5948:	80 91 41 02 	lds	r24, 0x0241
    594c:	87 70       	andi	r24, 0x07	; 7
    594e:	83 30       	cpi	r24, 0x03	; 3
    5950:	09 f4       	brne	.+2      	; 0x5954 <menu_repaintLoadSavePage+0x2e4>
    5952:	4a c0       	rjmp	.+148    	; 0x59e8 <menu_repaintLoadSavePage+0x378>
    5954:	19 82       	std	Y+1, r1	; 0x01
    5956:	1a 82       	std	Y+2, r1	; 0x02
    5958:	1b 82       	std	Y+3, r1	; 0x03
    595a:	1c 82       	std	Y+4, r1	; 0x04
    595c:	20 91 40 02 	lds	r18, 0x0240
    5960:	00 d0       	rcall	.+0      	; 0x5962 <menu_repaintLoadSavePage+0x2f2>
    5962:	00 d0       	rcall	.+0      	; 0x5964 <menu_repaintLoadSavePage+0x2f4>
    5964:	00 d0       	rcall	.+0      	; 0x5966 <menu_repaintLoadSavePage+0x2f6>
    5966:	ed b7       	in	r30, 0x3d	; 61
    5968:	fe b7       	in	r31, 0x3e	; 62
    596a:	31 96       	adiw	r30, 0x01	; 1
    596c:	8e 01       	movw	r16, r28
    596e:	0f 5f       	subi	r16, 0xFF	; 255
    5970:	1f 4f       	sbci	r17, 0xFF	; 255
    5972:	ad b7       	in	r26, 0x3d	; 61
    5974:	be b7       	in	r27, 0x3e	; 62
    5976:	12 96       	adiw	r26, 0x02	; 2
    5978:	1c 93       	st	X, r17
    597a:	0e 93       	st	-X, r16
    597c:	11 97       	sbiw	r26, 0x01	; 1
    597e:	83 ec       	ldi	r24, 0xC3	; 195
    5980:	91 e0       	ldi	r25, 0x01	; 1
    5982:	93 83       	std	Z+3, r25	; 0x03
    5984:	82 83       	std	Z+2, r24	; 0x02
    5986:	24 83       	std	Z+4, r18	; 0x04
    5988:	15 82       	std	Z+5, r1	; 0x05
    598a:	0e 94 ab 43 	call	0x8756	; 0x8756 <sprintf>
    598e:	ab e8       	ldi	r26, 0x8B	; 139
    5990:	b7 e0       	ldi	r27, 0x07	; 7
    5992:	f8 01       	movw	r30, r16
    5994:	83 e0       	ldi	r24, 0x03	; 3
    5996:	01 90       	ld	r0, Z+
    5998:	0d 92       	st	X+, r0
    599a:	81 50       	subi	r24, 0x01	; 1
    599c:	e1 f7       	brne	.-8      	; 0x5996 <menu_repaintLoadSavePage+0x326>
    599e:	80 91 41 02 	lds	r24, 0x0241
    59a2:	88 77       	andi	r24, 0x78	; 120
    59a4:	2d b7       	in	r18, 0x3d	; 61
    59a6:	3e b7       	in	r19, 0x3e	; 62
    59a8:	2a 5f       	subi	r18, 0xFA	; 250
    59aa:	3f 4f       	sbci	r19, 0xFF	; 255
    59ac:	0f b6       	in	r0, 0x3f	; 63
    59ae:	f8 94       	cli
    59b0:	3e bf       	out	0x3e, r19	; 62
    59b2:	0f be       	out	0x3f, r0	; 63
    59b4:	2d bf       	out	0x3d, r18	; 61
    59b6:	88 30       	cpi	r24, 0x08	; 8
    59b8:	71 f4       	brne	.+28     	; 0x59d6 <menu_repaintLoadSavePage+0x366>
    59ba:	80 91 3f 02 	lds	r24, 0x023F
    59be:	88 23       	and	r24, r24
    59c0:	39 f0       	breq	.+14     	; 0x59d0 <menu_repaintLoadSavePage+0x360>
    59c2:	8b e5       	ldi	r24, 0x5B	; 91
    59c4:	80 93 8a 07 	sts	0x078A, r24
    59c8:	8d e5       	ldi	r24, 0x5D	; 93
    59ca:	80 93 8e 07 	sts	0x078E, r24
    59ce:	03 c0       	rjmp	.+6      	; 0x59d6 <menu_repaintLoadSavePage+0x366>
    59d0:	8e e3       	ldi	r24, 0x3E	; 62
    59d2:	80 93 8a 07 	sts	0x078A, r24
    59d6:	af e8       	ldi	r26, 0x8F	; 143
    59d8:	b7 e0       	ldi	r27, 0x07	; 7
    59da:	e3 e9       	ldi	r30, 0x93	; 147
    59dc:	fd e0       	ldi	r31, 0x0D	; 13
    59de:	88 e0       	ldi	r24, 0x08	; 8
    59e0:	01 90       	ld	r0, Z+
    59e2:	0d 92       	st	X+, r0
    59e4:	81 50       	subi	r24, 0x01	; 1
    59e6:	e1 f7       	brne	.-8      	; 0x59e0 <menu_repaintLoadSavePage+0x370>
    59e8:	80 91 41 02 	lds	r24, 0x0241
    59ec:	87 70       	andi	r24, 0x07	; 7
    59ee:	81 30       	cpi	r24, 0x01	; 1
    59f0:	29 f0       	breq	.+10     	; 0x59fc <menu_repaintLoadSavePage+0x38c>
    59f2:	80 91 41 02 	lds	r24, 0x0241
    59f6:	87 70       	andi	r24, 0x07	; 7
    59f8:	83 30       	cpi	r24, 0x03	; 3
    59fa:	e9 f4       	brne	.+58     	; 0x5a36 <menu_repaintLoadSavePage+0x3c6>
    59fc:	88 e9       	ldi	r24, 0x98	; 152
    59fe:	97 e0       	ldi	r25, 0x07	; 7
    5a00:	68 ec       	ldi	r22, 0xC8	; 200
    5a02:	7f e0       	ldi	r23, 0x0F	; 15
    5a04:	42 e0       	ldi	r20, 0x02	; 2
    5a06:	50 e0       	ldi	r21, 0x00	; 0
    5a08:	0e 94 39 43 	call	0x8672	; 0x8672 <memcpy_P>
    5a0c:	80 91 41 02 	lds	r24, 0x0241
    5a10:	88 77       	andi	r24, 0x78	; 120
    5a12:	80 35       	cpi	r24, 0x50	; 80
    5a14:	61 f0       	breq	.+24     	; 0x5a2e <menu_repaintLoadSavePage+0x3be>
    5a16:	80 91 41 02 	lds	r24, 0x0241
    5a1a:	87 70       	andi	r24, 0x07	; 7
    5a1c:	83 30       	cpi	r24, 0x03	; 3
    5a1e:	79 f4       	brne	.+30     	; 0x5a3e <menu_repaintLoadSavePage+0x3ce>
    5a20:	80 91 41 02 	lds	r24, 0x0241
    5a24:	86 95       	lsr	r24
    5a26:	86 95       	lsr	r24
    5a28:	86 95       	lsr	r24
    5a2a:	8f 70       	andi	r24, 0x0F	; 15
    5a2c:	41 f0       	breq	.+16     	; 0x5a3e <menu_repaintLoadSavePage+0x3ce>
    5a2e:	8e e3       	ldi	r24, 0x3E	; 62
    5a30:	80 93 97 07 	sts	0x0797, r24
    5a34:	04 c0       	rjmp	.+8      	; 0x5a3e <menu_repaintLoadSavePage+0x3ce>
    5a36:	10 92 98 07 	sts	0x0798, r1
    5a3a:	10 92 99 07 	sts	0x0799, r1
    5a3e:	0f 90       	pop	r0
    5a40:	0f 90       	pop	r0
    5a42:	0f 90       	pop	r0
    5a44:	0f 90       	pop	r0
    5a46:	cf 91       	pop	r28
    5a48:	df 91       	pop	r29
    5a4a:	1f 91       	pop	r17
    5a4c:	0f 91       	pop	r16
    5a4e:	08 95       	ret

00005a50 <menu_repaint>:
    5a50:	8f 92       	push	r8
    5a52:	9f 92       	push	r9
    5a54:	af 92       	push	r10
    5a56:	bf 92       	push	r11
    5a58:	cf 92       	push	r12
    5a5a:	df 92       	push	r13
    5a5c:	ef 92       	push	r14
    5a5e:	ff 92       	push	r15
    5a60:	0f 93       	push	r16
    5a62:	1f 93       	push	r17
    5a64:	df 93       	push	r29
    5a66:	cf 93       	push	r28
    5a68:	cd b7       	in	r28, 0x3d	; 61
    5a6a:	de b7       	in	r29, 0x3e	; 62
    5a6c:	61 97       	sbiw	r28, 0x11	; 17
    5a6e:	0f b6       	in	r0, 0x3f	; 63
    5a70:	f8 94       	cli
    5a72:	de bf       	out	0x3e, r29	; 62
    5a74:	0f be       	out	0x3f, r0	; 63
    5a76:	cd bf       	out	0x3d, r28	; 61
    5a78:	80 91 3b 02 	lds	r24, 0x023B
    5a7c:	98 2f       	mov	r25, r24
    5a7e:	98 50       	subi	r25, 0x08	; 8
    5a80:	92 30       	cpi	r25, 0x02	; 2
    5a82:	18 f4       	brcc	.+6      	; 0x5a8a <menu_repaint+0x3a>
    5a84:	0e 94 38 2b 	call	0x5670	; 0x5670 <menu_repaintLoadSavePage>
    5a88:	3f c5       	rjmp	.+2686   	; 0x6508 <menu_repaint+0xab8>
    5a8a:	00 91 3e 02 	lds	r16, 0x023E
    5a8e:	07 70       	andi	r16, 0x07	; 7
    5a90:	c0 90 3e 02 	lds	r12, 0x023E
    5a94:	c6 94       	lsr	r12
    5a96:	c6 94       	lsr	r12
    5a98:	c6 94       	lsr	r12
    5a9a:	90 91 3f 02 	lds	r25, 0x023F
    5a9e:	99 23       	and	r25, r25
    5aa0:	09 f4       	brne	.+2      	; 0x5aa4 <menu_repaint+0x54>
    5aa2:	a8 c2       	rjmp	.+1360   	; 0x5ff4 <menu_repaint+0x5a4>
    5aa4:	90 e0       	ldi	r25, 0x00	; 0
    5aa6:	10 e0       	ldi	r17, 0x00	; 0
    5aa8:	53 e0       	ldi	r21, 0x03	; 3
    5aaa:	88 0f       	add	r24, r24
    5aac:	99 1f       	adc	r25, r25
    5aae:	5a 95       	dec	r21
    5ab0:	e1 f7       	brne	.-8      	; 0x5aaa <menu_repaint+0x5a>
    5ab2:	8c 0d       	add	r24, r12
    5ab4:	91 1d       	adc	r25, r1
    5ab6:	44 e0       	ldi	r20, 0x04	; 4
    5ab8:	88 0f       	add	r24, r24
    5aba:	99 1f       	adc	r25, r25
    5abc:	4a 95       	dec	r20
    5abe:	e1 f7       	brne	.-8      	; 0x5ab8 <menu_repaint+0x68>
    5ac0:	fc 01       	movw	r30, r24
    5ac2:	e8 51       	subi	r30, 0x18	; 24
    5ac4:	ff 4f       	sbci	r31, 0xFF	; 255
    5ac6:	e0 0f       	add	r30, r16
    5ac8:	f1 1f       	adc	r31, r17
    5aca:	24 91       	lpm	r18, Z+
    5acc:	80 51       	subi	r24, 0x10	; 16
    5ace:	9f 4f       	sbci	r25, 0xFF	; 255
    5ad0:	80 0f       	add	r24, r16
    5ad2:	91 1f       	adc	r25, r17
    5ad4:	fc 01       	movw	r30, r24
    5ad6:	c4 90       	lpm	r12, Z+
    5ad8:	0c 2d       	mov	r16, r12
    5ada:	10 e0       	ldi	r17, 0x00	; 0
    5adc:	d8 01       	movw	r26, r16
    5ade:	aa 0f       	add	r26, r26
    5ae0:	bb 1f       	adc	r27, r27
    5ae2:	a5 56       	subi	r26, 0x65	; 101
    5ae4:	b8 4f       	sbci	r27, 0xF8	; 248
    5ae6:	11 96       	adiw	r26, 0x01	; 1
    5ae8:	8c 91       	ld	r24, X
    5aea:	11 97       	sbiw	r26, 0x01	; 1
    5aec:	8b 30       	cpi	r24, 0x0B	; 11
    5aee:	09 f0       	breq	.+2      	; 0x5af2 <menu_repaint+0xa2>
    5af0:	96 c0       	rjmp	.+300    	; 0x5c1e <menu_repaint+0x1ce>
    5af2:	8c 91       	ld	r24, X
    5af4:	8d 3d       	cpi	r24, 0xDD	; 221
    5af6:	10 f0       	brcs	.+4      	; 0x5afc <menu_repaint+0xac>
    5af8:	8c ed       	ldi	r24, 0xDC	; 220
    5afa:	8c 93       	st	X, r24
    5afc:	29 e7       	ldi	r18, 0x79	; 121
    5afe:	a2 2e       	mov	r10, r18
    5b00:	27 e0       	ldi	r18, 0x07	; 7
    5b02:	b2 2e       	mov	r11, r18
    5b04:	8d b7       	in	r24, 0x3d	; 61
    5b06:	9e b7       	in	r25, 0x3e	; 62
    5b08:	08 97       	sbiw	r24, 0x08	; 8
    5b0a:	0f b6       	in	r0, 0x3f	; 63
    5b0c:	f8 94       	cli
    5b0e:	9e bf       	out	0x3e, r25	; 62
    5b10:	0f be       	out	0x3f, r0	; 63
    5b12:	8d bf       	out	0x3d, r24	; 61
    5b14:	ad b7       	in	r26, 0x3d	; 61
    5b16:	be b7       	in	r27, 0x3e	; 62
    5b18:	11 96       	adiw	r26, 0x01	; 1
    5b1a:	ed b7       	in	r30, 0x3d	; 61
    5b1c:	fe b7       	in	r31, 0x3e	; 62
    5b1e:	b2 82       	std	Z+2, r11	; 0x02
    5b20:	a1 82       	std	Z+1, r10	; 0x01
    5b22:	87 ec       	ldi	r24, 0xC7	; 199
    5b24:	91 e0       	ldi	r25, 0x01	; 1
    5b26:	13 96       	adiw	r26, 0x03	; 3
    5b28:	9c 93       	st	X, r25
    5b2a:	8e 93       	st	-X, r24
    5b2c:	12 97       	sbiw	r26, 0x02	; 2
    5b2e:	c8 01       	movw	r24, r16
    5b30:	86 5e       	subi	r24, 0xE6	; 230
    5b32:	90 40       	sbci	r25, 0x00	; 0
    5b34:	15 96       	adiw	r26, 0x05	; 5
    5b36:	9c 93       	st	X, r25
    5b38:	8e 93       	st	-X, r24
    5b3a:	14 97       	sbiw	r26, 0x04	; 4
    5b3c:	78 01       	movw	r14, r16
    5b3e:	ee 0c       	add	r14, r14
    5b40:	ff 1c       	adc	r15, r15
    5b42:	8b e9       	ldi	r24, 0x9B	; 155
    5b44:	97 e0       	ldi	r25, 0x07	; 7
    5b46:	e8 0e       	add	r14, r24
    5b48:	f9 1e       	adc	r15, r25
    5b4a:	f7 01       	movw	r30, r14
    5b4c:	80 81       	ld	r24, Z
    5b4e:	e8 2f       	mov	r30, r24
    5b50:	f0 e0       	ldi	r31, 0x00	; 0
    5b52:	ee 0f       	add	r30, r30
    5b54:	ff 1f       	adc	r31, r31
    5b56:	e1 56       	subi	r30, 0x61	; 97
    5b58:	fa 4f       	sbci	r31, 0xFA	; 250
    5b5a:	80 81       	ld	r24, Z
    5b5c:	90 e0       	ldi	r25, 0x00	; 0
    5b5e:	01 96       	adiw	r24, 0x01	; 1
    5b60:	17 96       	adiw	r26, 0x07	; 7
    5b62:	9c 93       	st	X, r25
    5b64:	8e 93       	st	-X, r24
    5b66:	16 97       	sbiw	r26, 0x06	; 6
    5b68:	0e 94 ab 43 	call	0x8756	; 0x8756 <sprintf>
    5b6c:	8d b7       	in	r24, 0x3d	; 61
    5b6e:	9e b7       	in	r25, 0x3e	; 62
    5b70:	08 96       	adiw	r24, 0x08	; 8
    5b72:	0f b6       	in	r0, 0x3f	; 63
    5b74:	f8 94       	cli
    5b76:	9e bf       	out	0x3e, r25	; 62
    5b78:	0f be       	out	0x3f, r0	; 63
    5b7a:	8d bf       	out	0x3d, r24	; 61
    5b7c:	c5 01       	movw	r24, r10
    5b7e:	41 96       	adiw	r24, 0x11	; 17
    5b80:	60 e2       	ldi	r22, 0x20	; 32
    5b82:	70 e0       	ldi	r23, 0x00	; 0
    5b84:	40 e1       	ldi	r20, 0x10	; 16
    5b86:	50 e0       	ldi	r21, 0x00	; 0
    5b88:	0e 94 68 43 	call	0x86d0	; 0x86d0 <memset>
    5b8c:	d7 01       	movw	r26, r14
    5b8e:	ec 91       	ld	r30, X
    5b90:	f0 e0       	ldi	r31, 0x00	; 0
    5b92:	ee 0f       	add	r30, r30
    5b94:	ff 1f       	adc	r31, r31
    5b96:	e1 56       	subi	r30, 0x61	; 97
    5b98:	fa 4f       	sbci	r31, 0xFA	; 250
    5b9a:	81 81       	ldd	r24, Z+1	; 0x01
    5b9c:	82 34       	cpi	r24, 0x42	; 66
    5b9e:	08 f0       	brcs	.+2      	; 0x5ba2 <menu_repaint+0x152>
    5ba0:	65 c0       	rjmp	.+202    	; 0x5c6c <menu_repaint+0x21c>
    5ba2:	90 e0       	ldi	r25, 0x00	; 0
    5ba4:	fc 01       	movw	r30, r24
    5ba6:	ee 0f       	add	r30, r30
    5ba8:	ff 1f       	adc	r31, r31
    5baa:	e8 0f       	add	r30, r24
    5bac:	f9 1f       	adc	r31, r25
    5bae:	e1 50       	subi	r30, 0x01	; 1
    5bb0:	f1 4f       	sbci	r31, 0xF1	; 241
    5bb2:	64 91       	lpm	r22, Z+
    5bb4:	70 e0       	ldi	r23, 0x00	; 0
    5bb6:	e4 e0       	ldi	r30, 0x04	; 4
    5bb8:	66 0f       	add	r22, r22
    5bba:	77 1f       	adc	r23, r23
    5bbc:	ea 95       	dec	r30
    5bbe:	e1 f7       	brne	.-8      	; 0x5bb8 <menu_repaint+0x168>
    5bc0:	62 54       	subi	r22, 0x42	; 66
    5bc2:	75 4f       	sbci	r23, 0xF5	; 245
    5bc4:	4e 01       	movw	r8, r28
    5bc6:	08 94       	sec
    5bc8:	81 1c       	adc	r8, r1
    5bca:	91 1c       	adc	r9, r1
    5bcc:	c4 01       	movw	r24, r8
    5bce:	48 e0       	ldi	r20, 0x08	; 8
    5bd0:	50 e0       	ldi	r21, 0x00	; 0
    5bd2:	0e 94 54 43 	call	0x86a8	; 0x86a8 <strlcpy_P>
    5bd6:	d7 01       	movw	r26, r14
    5bd8:	ec 91       	ld	r30, X
    5bda:	f0 e0       	ldi	r31, 0x00	; 0
    5bdc:	ee 0f       	add	r30, r30
    5bde:	ff 1f       	adc	r31, r31
    5be0:	e1 56       	subi	r30, 0x61	; 97
    5be2:	fa 4f       	sbci	r31, 0xFA	; 250
    5be4:	81 81       	ldd	r24, Z+1	; 0x01
    5be6:	90 e0       	ldi	r25, 0x00	; 0
    5be8:	fc 01       	movw	r30, r24
    5bea:	ee 0f       	add	r30, r30
    5bec:	ff 1f       	adc	r31, r31
    5bee:	e8 0f       	add	r30, r24
    5bf0:	f9 1f       	adc	r31, r25
    5bf2:	e0 50       	subi	r30, 0x00	; 0
    5bf4:	f1 4f       	sbci	r31, 0xF1	; 241
    5bf6:	64 91       	lpm	r22, Z+
    5bf8:	70 e0       	ldi	r23, 0x00	; 0
    5bfa:	34 e0       	ldi	r19, 0x04	; 4
    5bfc:	66 0f       	add	r22, r22
    5bfe:	77 1f       	adc	r23, r23
    5c00:	3a 95       	dec	r19
    5c02:	e1 f7       	brne	.-8      	; 0x5bfc <menu_repaint+0x1ac>
    5c04:	62 5e       	subi	r22, 0xE2	; 226
    5c06:	73 4f       	sbci	r23, 0xF3	; 243
    5c08:	c4 01       	movw	r24, r8
    5c0a:	0e 94 42 43 	call	0x8684	; 0x8684 <strcat_P>
    5c0e:	c5 01       	movw	r24, r10
    5c10:	41 96       	adiw	r24, 0x11	; 17
    5c12:	b4 01       	movw	r22, r8
    5c14:	40 e1       	ldi	r20, 0x10	; 16
    5c16:	50 e0       	ldi	r21, 0x00	; 0
    5c18:	0e 94 76 43 	call	0x86ec	; 0x86ec <strlcpy>
    5c1c:	27 c0       	rjmp	.+78     	; 0x5c6c <menu_repaint+0x21c>
    5c1e:	e2 2f       	mov	r30, r18
    5c20:	f0 e0       	ldi	r31, 0x00	; 0
    5c22:	7f 01       	movw	r14, r30
    5c24:	ee 0c       	add	r14, r14
    5c26:	ff 1c       	adc	r15, r15
    5c28:	ee 0e       	add	r14, r30
    5c2a:	ff 1e       	adc	r15, r31
    5c2c:	f7 01       	movw	r30, r14
    5c2e:	e1 50       	subi	r30, 0x01	; 1
    5c30:	f1 4f       	sbci	r31, 0xF1	; 241
    5c32:	64 91       	lpm	r22, Z+
    5c34:	70 e0       	ldi	r23, 0x00	; 0
    5c36:	94 e0       	ldi	r25, 0x04	; 4
    5c38:	66 0f       	add	r22, r22
    5c3a:	77 1f       	adc	r23, r23
    5c3c:	9a 95       	dec	r25
    5c3e:	e1 f7       	brne	.-8      	; 0x5c38 <menu_repaint+0x1e8>
    5c40:	62 54       	subi	r22, 0x42	; 66
    5c42:	75 4f       	sbci	r23, 0xF5	; 245
    5c44:	89 e7       	ldi	r24, 0x79	; 121
    5c46:	97 e0       	ldi	r25, 0x07	; 7
    5c48:	0e 94 4d 43 	call	0x869a	; 0x869a <strcpy_P>
    5c4c:	f7 01       	movw	r30, r14
    5c4e:	e0 50       	subi	r30, 0x00	; 0
    5c50:	f1 4f       	sbci	r31, 0xF1	; 241
    5c52:	64 91       	lpm	r22, Z+
    5c54:	70 e0       	ldi	r23, 0x00	; 0
    5c56:	84 e0       	ldi	r24, 0x04	; 4
    5c58:	66 0f       	add	r22, r22
    5c5a:	77 1f       	adc	r23, r23
    5c5c:	8a 95       	dec	r24
    5c5e:	e1 f7       	brne	.-8      	; 0x5c58 <menu_repaint+0x208>
    5c60:	62 5e       	subi	r22, 0xE2	; 226
    5c62:	73 4f       	sbci	r23, 0xF3	; 243
    5c64:	8a e8       	ldi	r24, 0x8A	; 138
    5c66:	97 e0       	ldi	r25, 0x07	; 7
    5c68:	0e 94 4d 43 	call	0x869a	; 0x869a <strcpy_P>
    5c6c:	f8 01       	movw	r30, r16
    5c6e:	ee 0f       	add	r30, r30
    5c70:	ff 1f       	adc	r31, r31
    5c72:	bc 2d       	mov	r27, r12
    5c74:	b2 3e       	cpi	r27, 0xE2	; 226
    5c76:	09 f4       	brne	.+2      	; 0x5c7a <menu_repaint+0x22a>
    5c78:	90 c1       	rjmp	.+800    	; 0x5f9a <menu_repaint+0x54a>
    5c7a:	e5 56       	subi	r30, 0x65	; 101
    5c7c:	f8 4f       	sbci	r31, 0xF8	; 248
    5c7e:	21 81       	ldd	r18, Z+1	; 0x01
    5c80:	82 2f       	mov	r24, r18
    5c82:	90 e0       	ldi	r25, 0x00	; 0
    5c84:	8f 70       	andi	r24, 0x0F	; 15
    5c86:	90 70       	andi	r25, 0x00	; 0
    5c88:	87 30       	cpi	r24, 0x07	; 7
    5c8a:	91 05       	cpc	r25, r1
    5c8c:	09 f4       	brne	.+2      	; 0x5c90 <menu_repaint+0x240>
    5c8e:	94 c0       	rjmp	.+296    	; 0x5db8 <menu_repaint+0x368>
    5c90:	88 30       	cpi	r24, 0x08	; 8
    5c92:	91 05       	cpc	r25, r1
    5c94:	6c f4       	brge	.+26     	; 0x5cb0 <menu_repaint+0x260>
    5c96:	84 30       	cpi	r24, 0x04	; 4
    5c98:	91 05       	cpc	r25, r1
    5c9a:	09 f4       	brne	.+2      	; 0x5c9e <menu_repaint+0x24e>
    5c9c:	60 c1       	rjmp	.+704    	; 0x5f5e <menu_repaint+0x50e>
    5c9e:	86 30       	cpi	r24, 0x06	; 6
    5ca0:	91 05       	cpc	r25, r1
    5ca2:	09 f4       	brne	.+2      	; 0x5ca6 <menu_repaint+0x256>
    5ca4:	96 c0       	rjmp	.+300    	; 0x5dd2 <menu_repaint+0x382>
    5ca6:	83 30       	cpi	r24, 0x03	; 3
    5ca8:	91 05       	cpc	r25, r1
    5caa:	09 f0       	breq	.+2      	; 0x5cae <menu_repaint+0x25e>
    5cac:	6a c0       	rjmp	.+212    	; 0x5d82 <menu_repaint+0x332>
    5cae:	a0 c0       	rjmp	.+320    	; 0x5df0 <menu_repaint+0x3a0>
    5cb0:	89 30       	cpi	r24, 0x09	; 9
    5cb2:	91 05       	cpc	r25, r1
    5cb4:	41 f0       	breq	.+16     	; 0x5cc6 <menu_repaint+0x276>
    5cb6:	89 30       	cpi	r24, 0x09	; 9
    5cb8:	91 05       	cpc	r25, r1
    5cba:	54 f1       	brlt	.+84     	; 0x5d10 <menu_repaint+0x2c0>
    5cbc:	8b 30       	cpi	r24, 0x0B	; 11
    5cbe:	91 05       	cpc	r25, r1
    5cc0:	09 f0       	breq	.+2      	; 0x5cc4 <menu_repaint+0x274>
    5cc2:	5f c0       	rjmp	.+190    	; 0x5d82 <menu_repaint+0x332>
    5cc4:	21 c4       	rjmp	.+2114   	; 0x6508 <menu_repaint+0xab8>
    5cc6:	80 81       	ld	r24, Z
    5cc8:	98 2f       	mov	r25, r24
    5cca:	96 95       	lsr	r25
    5ccc:	96 95       	lsr	r25
    5cce:	96 95       	lsr	r25
    5cd0:	ec 2d       	mov	r30, r12
    5cd2:	e5 59       	subi	r30, 0x95	; 149
    5cd4:	f0 e0       	ldi	r31, 0x00	; 0
    5cd6:	a3 e0       	ldi	r26, 0x03	; 3
    5cd8:	ee 0f       	add	r30, r30
    5cda:	ff 1f       	adc	r31, r31
    5cdc:	aa 95       	dec	r26
    5cde:	e1 f7       	brne	.-8      	; 0x5cd8 <menu_repaint+0x288>
    5ce0:	e9 0f       	add	r30, r25
    5ce2:	f1 1d       	adc	r31, r1
    5ce4:	74 e0       	ldi	r23, 0x04	; 4
    5ce6:	ee 0f       	add	r30, r30
    5ce8:	ff 1f       	adc	r31, r31
    5cea:	7a 95       	dec	r23
    5cec:	e1 f7       	brne	.-8      	; 0x5ce6 <menu_repaint+0x296>
    5cee:	e8 51       	subi	r30, 0x18	; 24
    5cf0:	ff 4f       	sbci	r31, 0xFF	; 255
    5cf2:	87 70       	andi	r24, 0x07	; 7
    5cf4:	e8 0f       	add	r30, r24
    5cf6:	f1 1d       	adc	r31, r1
    5cf8:	e4 91       	lpm	r30, Z+
    5cfa:	ce 2e       	mov	r12, r30
    5cfc:	dd 24       	eor	r13, r13
    5cfe:	f6 01       	movw	r30, r12
    5d00:	ee 0f       	add	r30, r30
    5d02:	ff 1f       	adc	r31, r31
    5d04:	ec 0d       	add	r30, r12
    5d06:	fd 1d       	adc	r31, r13
    5d08:	e2 50       	subi	r30, 0x02	; 2
    5d0a:	f1 4f       	sbci	r31, 0xF1	; 241
    5d0c:	64 91       	lpm	r22, Z+
    5d0e:	2b c0       	rjmp	.+86     	; 0x5d66 <menu_repaint+0x316>
    5d10:	80 81       	ld	r24, Z
    5d12:	98 2f       	mov	r25, r24
    5d14:	96 95       	lsr	r25
    5d16:	96 95       	lsr	r25
    5d18:	96 95       	lsr	r25
    5d1a:	ec 2d       	mov	r30, r12
    5d1c:	e7 5a       	subi	r30, 0xA7	; 167
    5d1e:	f0 e0       	ldi	r31, 0x00	; 0
    5d20:	ee 0f       	add	r30, r30
    5d22:	ff 1f       	adc	r31, r31
    5d24:	e3 52       	subi	r30, 0x23	; 35
    5d26:	f7 4f       	sbci	r31, 0xF7	; 247
    5d28:	e0 81       	ld	r30, Z
    5d2a:	e1 50       	subi	r30, 0x01	; 1
    5d2c:	f0 e0       	ldi	r31, 0x00	; 0
    5d2e:	43 e0       	ldi	r20, 0x03	; 3
    5d30:	ee 0f       	add	r30, r30
    5d32:	ff 1f       	adc	r31, r31
    5d34:	4a 95       	dec	r20
    5d36:	e1 f7       	brne	.-8      	; 0x5d30 <menu_repaint+0x2e0>
    5d38:	e9 0f       	add	r30, r25
    5d3a:	f1 1d       	adc	r31, r1
    5d3c:	34 e0       	ldi	r19, 0x04	; 4
    5d3e:	ee 0f       	add	r30, r30
    5d40:	ff 1f       	adc	r31, r31
    5d42:	3a 95       	dec	r19
    5d44:	e1 f7       	brne	.-8      	; 0x5d3e <menu_repaint+0x2ee>
    5d46:	e8 51       	subi	r30, 0x18	; 24
    5d48:	ff 4f       	sbci	r31, 0xFF	; 255
    5d4a:	87 70       	andi	r24, 0x07	; 7
    5d4c:	e8 0f       	add	r30, r24
    5d4e:	f1 1d       	adc	r31, r1
    5d50:	e4 91       	lpm	r30, Z+
    5d52:	8e 2f       	mov	r24, r30
    5d54:	90 e0       	ldi	r25, 0x00	; 0
    5d56:	fc 01       	movw	r30, r24
    5d58:	ee 0f       	add	r30, r30
    5d5a:	ff 1f       	adc	r31, r31
    5d5c:	e8 0f       	add	r30, r24
    5d5e:	f9 1f       	adc	r31, r25
    5d60:	e2 50       	subi	r30, 0x02	; 2
    5d62:	f1 4f       	sbci	r31, 0xF1	; 241
    5d64:	64 91       	lpm	r22, Z+
    5d66:	70 e0       	ldi	r23, 0x00	; 0
    5d68:	66 0f       	add	r22, r22
    5d6a:	77 1f       	adc	r23, r23
    5d6c:	66 0f       	add	r22, r22
    5d6e:	77 1f       	adc	r23, r23
    5d70:	6e 50       	subi	r22, 0x0E	; 14
    5d72:	76 4f       	sbci	r23, 0xF6	; 246
    5d74:	87 e9       	ldi	r24, 0x97	; 151
    5d76:	97 e0       	ldi	r25, 0x07	; 7
    5d78:	43 e0       	ldi	r20, 0x03	; 3
    5d7a:	50 e0       	ldi	r21, 0x00	; 0
    5d7c:	0e 94 39 43 	call	0x8672	; 0x8672 <memcpy_P>
    5d80:	c3 c3       	rjmp	.+1926   	; 0x6508 <menu_repaint+0xab8>
    5d82:	00 d0       	rcall	.+0      	; 0x5d84 <menu_repaint+0x334>
    5d84:	00 d0       	rcall	.+0      	; 0x5d86 <menu_repaint+0x336>
    5d86:	00 d0       	rcall	.+0      	; 0x5d88 <menu_repaint+0x338>
    5d88:	ed b7       	in	r30, 0x3d	; 61
    5d8a:	fe b7       	in	r31, 0x3e	; 62
    5d8c:	31 96       	adiw	r30, 0x01	; 1
    5d8e:	87 e9       	ldi	r24, 0x97	; 151
    5d90:	97 e0       	ldi	r25, 0x07	; 7
    5d92:	ad b7       	in	r26, 0x3d	; 61
    5d94:	be b7       	in	r27, 0x3e	; 62
    5d96:	12 96       	adiw	r26, 0x02	; 2
    5d98:	9c 93       	st	X, r25
    5d9a:	8e 93       	st	-X, r24
    5d9c:	11 97       	sbiw	r26, 0x01	; 1
    5d9e:	83 ec       	ldi	r24, 0xC3	; 195
    5da0:	91 e0       	ldi	r25, 0x01	; 1
    5da2:	93 83       	std	Z+3, r25	; 0x03
    5da4:	82 83       	std	Z+2, r24	; 0x02
    5da6:	d8 01       	movw	r26, r16
    5da8:	aa 0f       	add	r26, r26
    5daa:	bb 1f       	adc	r27, r27
    5dac:	a5 56       	subi	r26, 0x65	; 101
    5dae:	b8 4f       	sbci	r27, 0xF8	; 248
    5db0:	8c 91       	ld	r24, X
    5db2:	84 83       	std	Z+4, r24	; 0x04
    5db4:	15 82       	std	Z+5, r1	; 0x05
    5db6:	13 c1       	rjmp	.+550    	; 0x5fde <menu_repaint+0x58e>
    5db8:	80 81       	ld	r24, Z
    5dba:	81 30       	cpi	r24, 0x01	; 1
    5dbc:	29 f4       	brne	.+10     	; 0x5dc8 <menu_repaint+0x378>
    5dbe:	87 e9       	ldi	r24, 0x97	; 151
    5dc0:	97 e0       	ldi	r25, 0x07	; 7
    5dc2:	69 ed       	ldi	r22, 0xD9	; 217
    5dc4:	71 e0       	ldi	r23, 0x01	; 1
    5dc6:	0c c0       	rjmp	.+24     	; 0x5de0 <menu_repaint+0x390>
    5dc8:	87 e9       	ldi	r24, 0x97	; 151
    5dca:	97 e0       	ldi	r25, 0x07	; 7
    5dcc:	6d ed       	ldi	r22, 0xDD	; 221
    5dce:	71 e0       	ldi	r23, 0x01	; 1
    5dd0:	07 c0       	rjmp	.+14     	; 0x5de0 <menu_repaint+0x390>
    5dd2:	80 81       	ld	r24, Z
    5dd4:	81 30       	cpi	r24, 0x01	; 1
    5dd6:	39 f4       	brne	.+14     	; 0x5de6 <menu_repaint+0x396>
    5dd8:	87 e9       	ldi	r24, 0x97	; 151
    5dda:	97 e0       	ldi	r25, 0x07	; 7
    5ddc:	60 ee       	ldi	r22, 0xE0	; 224
    5dde:	71 e0       	ldi	r23, 0x01	; 1
    5de0:	0e 94 6f 43 	call	0x86de	; 0x86de <strcpy>
    5de4:	91 c3       	rjmp	.+1826   	; 0x6508 <menu_repaint+0xab8>
    5de6:	87 e9       	ldi	r24, 0x97	; 151
    5de8:	97 e0       	ldi	r25, 0x07	; 7
    5dea:	63 ee       	ldi	r22, 0xE3	; 227
    5dec:	71 e0       	ldi	r23, 0x01	; 1
    5dee:	f8 cf       	rjmp	.-16     	; 0x5de0 <menu_repaint+0x390>
    5df0:	82 2f       	mov	r24, r18
    5df2:	82 95       	swap	r24
    5df4:	8f 70       	andi	r24, 0x0F	; 15
    5df6:	85 30       	cpi	r24, 0x05	; 5
    5df8:	09 f4       	brne	.+2      	; 0x5dfc <menu_repaint+0x3ac>
    5dfa:	4d c0       	rjmp	.+154    	; 0x5e96 <menu_repaint+0x446>
    5dfc:	86 30       	cpi	r24, 0x06	; 6
    5dfe:	78 f4       	brcc	.+30     	; 0x5e1e <menu_repaint+0x3ce>
    5e00:	82 30       	cpi	r24, 0x02	; 2
    5e02:	09 f4       	brne	.+2      	; 0x5e06 <menu_repaint+0x3b6>
    5e04:	3f c0       	rjmp	.+126    	; 0x5e84 <menu_repaint+0x434>
    5e06:	83 30       	cpi	r24, 0x03	; 3
    5e08:	20 f4       	brcc	.+8      	; 0x5e12 <menu_repaint+0x3c2>
    5e0a:	81 30       	cpi	r24, 0x01	; 1
    5e0c:	09 f0       	breq	.+2      	; 0x5e10 <menu_repaint+0x3c0>
    5e0e:	a2 c0       	rjmp	.+324    	; 0x5f54 <menu_repaint+0x504>
    5e10:	26 c0       	rjmp	.+76     	; 0x5e5e <menu_repaint+0x40e>
    5e12:	83 30       	cpi	r24, 0x03	; 3
    5e14:	89 f0       	breq	.+34     	; 0x5e38 <menu_repaint+0x3e8>
    5e16:	84 30       	cpi	r24, 0x04	; 4
    5e18:	09 f0       	breq	.+2      	; 0x5e1c <menu_repaint+0x3cc>
    5e1a:	9c c0       	rjmp	.+312    	; 0x5f54 <menu_repaint+0x504>
    5e1c:	8d c0       	rjmp	.+282    	; 0x5f38 <menu_repaint+0x4e8>
    5e1e:	87 30       	cpi	r24, 0x07	; 7
    5e20:	09 f4       	brne	.+2      	; 0x5e24 <menu_repaint+0x3d4>
    5e22:	65 c0       	rjmp	.+202    	; 0x5eee <menu_repaint+0x49e>
    5e24:	87 30       	cpi	r24, 0x07	; 7
    5e26:	08 f4       	brcc	.+2      	; 0x5e2a <menu_repaint+0x3da>
    5e28:	54 c0       	rjmp	.+168    	; 0x5ed2 <menu_repaint+0x482>
    5e2a:	88 30       	cpi	r24, 0x08	; 8
    5e2c:	09 f4       	brne	.+2      	; 0x5e30 <menu_repaint+0x3e0>
    5e2e:	76 c0       	rjmp	.+236    	; 0x5f1c <menu_repaint+0x4cc>
    5e30:	89 30       	cpi	r24, 0x09	; 9
    5e32:	09 f0       	breq	.+2      	; 0x5e36 <menu_repaint+0x3e6>
    5e34:	8f c0       	rjmp	.+286    	; 0x5f54 <menu_repaint+0x504>
    5e36:	64 c0       	rjmp	.+200    	; 0x5f00 <menu_repaint+0x4b0>
    5e38:	f8 01       	movw	r30, r16
    5e3a:	ee 0f       	add	r30, r30
    5e3c:	ff 1f       	adc	r31, r31
    5e3e:	e5 56       	subi	r30, 0x65	; 101
    5e40:	f8 4f       	sbci	r31, 0xF8	; 248
    5e42:	80 81       	ld	r24, Z
    5e44:	90 e0       	ldi	r25, 0x00	; 0
    5e46:	01 96       	adiw	r24, 0x01	; 1
    5e48:	bc 01       	movw	r22, r24
    5e4a:	b3 e0       	ldi	r27, 0x03	; 3
    5e4c:	66 0f       	add	r22, r22
    5e4e:	77 1f       	adc	r23, r23
    5e50:	ba 95       	dec	r27
    5e52:	e1 f7       	brne	.-8      	; 0x5e4c <menu_repaint+0x3fc>
    5e54:	68 1b       	sub	r22, r24
    5e56:	79 0b       	sbc	r23, r25
    5e58:	60 57       	subi	r22, 0x70	; 112
    5e5a:	76 4f       	sbci	r23, 0xF6	; 246
    5e5c:	8b cf       	rjmp	.-234    	; 0x5d74 <menu_repaint+0x324>
    5e5e:	f8 01       	movw	r30, r16
    5e60:	ee 0f       	add	r30, r30
    5e62:	ff 1f       	adc	r31, r31
    5e64:	e5 56       	subi	r30, 0x65	; 101
    5e66:	f8 4f       	sbci	r31, 0xF8	; 248
    5e68:	80 81       	ld	r24, Z
    5e6a:	90 e0       	ldi	r25, 0x00	; 0
    5e6c:	01 96       	adiw	r24, 0x01	; 1
    5e6e:	bc 01       	movw	r22, r24
    5e70:	f3 e0       	ldi	r31, 0x03	; 3
    5e72:	66 0f       	add	r22, r22
    5e74:	77 1f       	adc	r23, r23
    5e76:	fa 95       	dec	r31
    5e78:	e1 f7       	brne	.-8      	; 0x5e72 <menu_repaint+0x422>
    5e7a:	68 1b       	sub	r22, r24
    5e7c:	79 0b       	sbc	r23, r25
    5e7e:	6f 53       	subi	r22, 0x3F	; 63
    5e80:	76 4f       	sbci	r23, 0xF6	; 246
    5e82:	78 cf       	rjmp	.-272    	; 0x5d74 <menu_repaint+0x324>
    5e84:	60 81       	ld	r22, Z
    5e86:	70 e0       	ldi	r23, 0x00	; 0
    5e88:	66 0f       	add	r22, r22
    5e8a:	77 1f       	adc	r23, r23
    5e8c:	66 0f       	add	r22, r22
    5e8e:	77 1f       	adc	r23, r23
    5e90:	68 58       	subi	r22, 0x88	; 136
    5e92:	76 4f       	sbci	r23, 0xF6	; 246
    5e94:	6f cf       	rjmp	.-290    	; 0x5d74 <menu_repaint+0x324>
    5e96:	00 d0       	rcall	.+0      	; 0x5e98 <menu_repaint+0x448>
    5e98:	00 d0       	rcall	.+0      	; 0x5e9a <menu_repaint+0x44a>
    5e9a:	00 d0       	rcall	.+0      	; 0x5e9c <menu_repaint+0x44c>
    5e9c:	2d b7       	in	r18, 0x3d	; 61
    5e9e:	3e b7       	in	r19, 0x3e	; 62
    5ea0:	2f 5f       	subi	r18, 0xFF	; 255
    5ea2:	3f 4f       	sbci	r19, 0xFF	; 255
    5ea4:	87 e9       	ldi	r24, 0x97	; 151
    5ea6:	97 e0       	ldi	r25, 0x07	; 7
    5ea8:	ad b7       	in	r26, 0x3d	; 61
    5eaa:	be b7       	in	r27, 0x3e	; 62
    5eac:	12 96       	adiw	r26, 0x02	; 2
    5eae:	9c 93       	st	X, r25
    5eb0:	8e 93       	st	-X, r24
    5eb2:	11 97       	sbiw	r26, 0x01	; 1
    5eb4:	83 ec       	ldi	r24, 0xC3	; 195
    5eb6:	91 e0       	ldi	r25, 0x01	; 1
    5eb8:	d9 01       	movw	r26, r18
    5eba:	13 96       	adiw	r26, 0x03	; 3
    5ebc:	9c 93       	st	X, r25
    5ebe:	8e 93       	st	-X, r24
    5ec0:	12 97       	sbiw	r26, 0x02	; 2
    5ec2:	80 81       	ld	r24, Z
    5ec4:	14 96       	adiw	r26, 0x04	; 4
    5ec6:	8c 93       	st	X, r24
    5ec8:	14 97       	sbiw	r26, 0x04	; 4
    5eca:	15 96       	adiw	r26, 0x05	; 5
    5ecc:	1c 92       	st	X, r1
    5ece:	15 97       	sbiw	r26, 0x05	; 5
    5ed0:	86 c0       	rjmp	.+268    	; 0x5fde <menu_repaint+0x58e>
    5ed2:	f8 01       	movw	r30, r16
    5ed4:	ee 0f       	add	r30, r30
    5ed6:	ff 1f       	adc	r31, r31
    5ed8:	e5 56       	subi	r30, 0x65	; 101
    5eda:	f8 4f       	sbci	r31, 0xF8	; 248
    5edc:	60 81       	ld	r22, Z
    5ede:	70 e0       	ldi	r23, 0x00	; 0
    5ee0:	66 0f       	add	r22, r22
    5ee2:	77 1f       	adc	r23, r23
    5ee4:	66 0f       	add	r22, r22
    5ee6:	77 1f       	adc	r23, r23
    5ee8:	6c 51       	subi	r22, 0x1C	; 28
    5eea:	77 4f       	sbci	r23, 0xF7	; 247
    5eec:	43 cf       	rjmp	.-378    	; 0x5d74 <menu_repaint+0x324>
    5eee:	60 81       	ld	r22, Z
    5ef0:	70 e0       	ldi	r23, 0x00	; 0
    5ef2:	66 0f       	add	r22, r22
    5ef4:	77 1f       	adc	r23, r23
    5ef6:	66 0f       	add	r22, r22
    5ef8:	77 1f       	adc	r23, r23
    5efa:	6c 53       	subi	r22, 0x3C	; 60
    5efc:	77 4f       	sbci	r23, 0xF7	; 247
    5efe:	3a cf       	rjmp	.-396    	; 0x5d74 <menu_repaint+0x324>
    5f00:	f8 01       	movw	r30, r16
    5f02:	ee 0f       	add	r30, r30
    5f04:	ff 1f       	adc	r31, r31
    5f06:	e5 56       	subi	r30, 0x65	; 101
    5f08:	f8 4f       	sbci	r31, 0xF8	; 248
    5f0a:	60 81       	ld	r22, Z
    5f0c:	70 e0       	ldi	r23, 0x00	; 0
    5f0e:	66 0f       	add	r22, r22
    5f10:	77 1f       	adc	r23, r23
    5f12:	66 0f       	add	r22, r22
    5f14:	77 1f       	adc	r23, r23
    5f16:	64 59       	subi	r22, 0x94	; 148
    5f18:	77 4f       	sbci	r23, 0xF7	; 247
    5f1a:	2c cf       	rjmp	.-424    	; 0x5d74 <menu_repaint+0x324>
    5f1c:	f8 01       	movw	r30, r16
    5f1e:	ee 0f       	add	r30, r30
    5f20:	ff 1f       	adc	r31, r31
    5f22:	e5 56       	subi	r30, 0x65	; 101
    5f24:	f8 4f       	sbci	r31, 0xF8	; 248
    5f26:	60 81       	ld	r22, Z
    5f28:	70 e0       	ldi	r23, 0x00	; 0
    5f2a:	66 0f       	add	r22, r22
    5f2c:	77 1f       	adc	r23, r23
    5f2e:	66 0f       	add	r22, r22
    5f30:	77 1f       	adc	r23, r23
    5f32:	6c 57       	subi	r22, 0x7C	; 124
    5f34:	77 4f       	sbci	r23, 0xF7	; 247
    5f36:	1e cf       	rjmp	.-452    	; 0x5d74 <menu_repaint+0x324>
    5f38:	f8 01       	movw	r30, r16
    5f3a:	ee 0f       	add	r30, r30
    5f3c:	ff 1f       	adc	r31, r31
    5f3e:	e5 56       	subi	r30, 0x65	; 101
    5f40:	f8 4f       	sbci	r31, 0xF8	; 248
    5f42:	60 81       	ld	r22, Z
    5f44:	70 e0       	ldi	r23, 0x00	; 0
    5f46:	66 0f       	add	r22, r22
    5f48:	77 1f       	adc	r23, r23
    5f4a:	66 0f       	add	r22, r22
    5f4c:	77 1f       	adc	r23, r23
    5f4e:	68 5f       	subi	r22, 0xF8	; 248
    5f50:	76 4f       	sbci	r23, 0xF6	; 246
    5f52:	10 cf       	rjmp	.-480    	; 0x5d74 <menu_repaint+0x324>
    5f54:	87 e9       	ldi	r24, 0x97	; 151
    5f56:	97 e0       	ldi	r25, 0x07	; 7
    5f58:	67 ee       	ldi	r22, 0xE7	; 231
    5f5a:	71 e0       	ldi	r23, 0x01	; 1
    5f5c:	41 cf       	rjmp	.-382    	; 0x5de0 <menu_repaint+0x390>
    5f5e:	00 d0       	rcall	.+0      	; 0x5f60 <menu_repaint+0x510>
    5f60:	00 d0       	rcall	.+0      	; 0x5f62 <menu_repaint+0x512>
    5f62:	00 d0       	rcall	.+0      	; 0x5f64 <menu_repaint+0x514>
    5f64:	2d b7       	in	r18, 0x3d	; 61
    5f66:	3e b7       	in	r19, 0x3e	; 62
    5f68:	2f 5f       	subi	r18, 0xFF	; 255
    5f6a:	3f 4f       	sbci	r19, 0xFF	; 255
    5f6c:	87 e9       	ldi	r24, 0x97	; 151
    5f6e:	97 e0       	ldi	r25, 0x07	; 7
    5f70:	ad b7       	in	r26, 0x3d	; 61
    5f72:	be b7       	in	r27, 0x3e	; 62
    5f74:	12 96       	adiw	r26, 0x02	; 2
    5f76:	9c 93       	st	X, r25
    5f78:	8e 93       	st	-X, r24
    5f7a:	11 97       	sbiw	r26, 0x01	; 1
    5f7c:	83 ec       	ldi	r24, 0xC3	; 195
    5f7e:	91 e0       	ldi	r25, 0x01	; 1
    5f80:	d9 01       	movw	r26, r18
    5f82:	13 96       	adiw	r26, 0x03	; 3
    5f84:	9c 93       	st	X, r25
    5f86:	8e 93       	st	-X, r24
    5f88:	12 97       	sbiw	r26, 0x02	; 2
    5f8a:	80 81       	ld	r24, Z
    5f8c:	90 e0       	ldi	r25, 0x00	; 0
    5f8e:	cf 97       	sbiw	r24, 0x3f	; 63
    5f90:	15 96       	adiw	r26, 0x05	; 5
    5f92:	9c 93       	st	X, r25
    5f94:	8e 93       	st	-X, r24
    5f96:	14 97       	sbiw	r26, 0x04	; 4
    5f98:	22 c0       	rjmp	.+68     	; 0x5fde <menu_repaint+0x58e>
    5f9a:	e5 56       	subi	r30, 0x65	; 101
    5f9c:	f8 4f       	sbci	r31, 0xF8	; 248
    5f9e:	80 81       	ld	r24, Z
    5fa0:	8f 37       	cpi	r24, 0x7F	; 127
    5fa2:	39 f4       	brne	.+14     	; 0x5fb2 <menu_repaint+0x562>
    5fa4:	87 e9       	ldi	r24, 0x97	; 151
    5fa6:	97 e0       	ldi	r25, 0x07	; 7
    5fa8:	64 ec       	ldi	r22, 0xC4	; 196
    5faa:	7f e0       	ldi	r23, 0x0F	; 15
    5fac:	0e 94 4d 43 	call	0x869a	; 0x869a <strcpy_P>
    5fb0:	ab c2       	rjmp	.+1366   	; 0x6508 <menu_repaint+0xab8>
    5fb2:	00 d0       	rcall	.+0      	; 0x5fb4 <menu_repaint+0x564>
    5fb4:	00 d0       	rcall	.+0      	; 0x5fb6 <menu_repaint+0x566>
    5fb6:	00 d0       	rcall	.+0      	; 0x5fb8 <menu_repaint+0x568>
    5fb8:	ed b7       	in	r30, 0x3d	; 61
    5fba:	fe b7       	in	r31, 0x3e	; 62
    5fbc:	31 96       	adiw	r30, 0x01	; 1
    5fbe:	27 e9       	ldi	r18, 0x97	; 151
    5fc0:	37 e0       	ldi	r19, 0x07	; 7
    5fc2:	ad b7       	in	r26, 0x3d	; 61
    5fc4:	be b7       	in	r27, 0x3e	; 62
    5fc6:	12 96       	adiw	r26, 0x02	; 2
    5fc8:	3c 93       	st	X, r19
    5fca:	2e 93       	st	-X, r18
    5fcc:	11 97       	sbiw	r26, 0x01	; 1
    5fce:	23 ec       	ldi	r18, 0xC3	; 195
    5fd0:	31 e0       	ldi	r19, 0x01	; 1
    5fd2:	33 83       	std	Z+3, r19	; 0x03
    5fd4:	22 83       	std	Z+2, r18	; 0x02
    5fd6:	90 e0       	ldi	r25, 0x00	; 0
    5fd8:	cf 97       	sbiw	r24, 0x3f	; 63
    5fda:	95 83       	std	Z+5, r25	; 0x05
    5fdc:	84 83       	std	Z+4, r24	; 0x04
    5fde:	0e 94 ab 43 	call	0x8756	; 0x8756 <sprintf>
    5fe2:	ed b7       	in	r30, 0x3d	; 61
    5fe4:	fe b7       	in	r31, 0x3e	; 62
    5fe6:	36 96       	adiw	r30, 0x06	; 6
    5fe8:	0f b6       	in	r0, 0x3f	; 63
    5fea:	f8 94       	cli
    5fec:	fe bf       	out	0x3e, r31	; 62
    5fee:	0f be       	out	0x3f, r0	; 63
    5ff0:	ed bf       	out	0x3d, r30	; 61
    5ff2:	8a c2       	rjmp	.+1300   	; 0x6508 <menu_repaint+0xab8>
    5ff4:	04 30       	cpi	r16, 0x04	; 4
    5ff6:	10 f0       	brcs	.+4      	; 0x5ffc <menu_repaint+0x5ac>
    5ff8:	94 e0       	ldi	r25, 0x04	; 4
    5ffa:	01 c0       	rjmp	.+2      	; 0x5ffe <menu_repaint+0x5ae>
    5ffc:	90 e0       	ldi	r25, 0x00	; 0
    5ffe:	dd 24       	eor	r13, r13
    6000:	e9 2e       	mov	r14, r25
    6002:	ff 24       	eor	r15, r15
    6004:	e8 2f       	mov	r30, r24
    6006:	f0 e0       	ldi	r31, 0x00	; 0
    6008:	a3 e0       	ldi	r26, 0x03	; 3
    600a:	ee 0f       	add	r30, r30
    600c:	ff 1f       	adc	r31, r31
    600e:	aa 95       	dec	r26
    6010:	e1 f7       	brne	.-8      	; 0x600a <menu_repaint+0x5ba>
    6012:	ec 0d       	add	r30, r12
    6014:	fd 1d       	adc	r31, r13
    6016:	74 e0       	ldi	r23, 0x04	; 4
    6018:	ee 0f       	add	r30, r30
    601a:	ff 1f       	adc	r31, r31
    601c:	7a 95       	dec	r23
    601e:	e1 f7       	brne	.-8      	; 0x6018 <menu_repaint+0x5c8>
    6020:	e8 51       	subi	r30, 0x18	; 24
    6022:	ff 4f       	sbci	r31, 0xFF	; 255
    6024:	ee 0d       	add	r30, r14
    6026:	ff 1d       	adc	r31, r15
    6028:	84 91       	lpm	r24, Z+
    602a:	90 e0       	ldi	r25, 0x00	; 0
    602c:	fc 01       	movw	r30, r24
    602e:	ee 0f       	add	r30, r30
    6030:	ff 1f       	adc	r31, r31
    6032:	e8 0f       	add	r30, r24
    6034:	f9 1f       	adc	r31, r25
    6036:	e2 50       	subi	r30, 0x02	; 2
    6038:	f1 4f       	sbci	r31, 0xF1	; 241
    603a:	64 91       	lpm	r22, Z+
    603c:	70 e0       	ldi	r23, 0x00	; 0
    603e:	66 0f       	add	r22, r22
    6040:	77 1f       	adc	r23, r23
    6042:	66 0f       	add	r22, r22
    6044:	77 1f       	adc	r23, r23
    6046:	6e 50       	subi	r22, 0x0E	; 14
    6048:	76 4f       	sbci	r23, 0xF6	; 246
    604a:	89 e7       	ldi	r24, 0x79	; 121
    604c:	97 e0       	ldi	r25, 0x07	; 7
    604e:	43 e0       	ldi	r20, 0x03	; 3
    6050:	50 e0       	ldi	r21, 0x00	; 0
    6052:	0e 94 39 43 	call	0x8672	; 0x8672 <memcpy_P>
    6056:	e0 91 3b 02 	lds	r30, 0x023B
    605a:	f0 e0       	ldi	r31, 0x00	; 0
    605c:	43 e0       	ldi	r20, 0x03	; 3
    605e:	ee 0f       	add	r30, r30
    6060:	ff 1f       	adc	r31, r31
    6062:	4a 95       	dec	r20
    6064:	e1 f7       	brne	.-8      	; 0x605e <menu_repaint+0x60e>
    6066:	ec 0d       	add	r30, r12
    6068:	fd 1d       	adc	r31, r13
    606a:	34 e0       	ldi	r19, 0x04	; 4
    606c:	ee 0f       	add	r30, r30
    606e:	ff 1f       	adc	r31, r31
    6070:	3a 95       	dec	r19
    6072:	e1 f7       	brne	.-8      	; 0x606c <menu_repaint+0x61c>
    6074:	e7 51       	subi	r30, 0x17	; 23
    6076:	ff 4f       	sbci	r31, 0xFF	; 255
    6078:	ee 0d       	add	r30, r14
    607a:	ff 1d       	adc	r31, r15
    607c:	e4 91       	lpm	r30, Z+
    607e:	8e 2f       	mov	r24, r30
    6080:	90 e0       	ldi	r25, 0x00	; 0
    6082:	fc 01       	movw	r30, r24
    6084:	ee 0f       	add	r30, r30
    6086:	ff 1f       	adc	r31, r31
    6088:	e8 0f       	add	r30, r24
    608a:	f9 1f       	adc	r31, r25
    608c:	e2 50       	subi	r30, 0x02	; 2
    608e:	f1 4f       	sbci	r31, 0xF1	; 241
    6090:	64 91       	lpm	r22, Z+
    6092:	70 e0       	ldi	r23, 0x00	; 0
    6094:	66 0f       	add	r22, r22
    6096:	77 1f       	adc	r23, r23
    6098:	66 0f       	add	r22, r22
    609a:	77 1f       	adc	r23, r23
    609c:	6e 50       	subi	r22, 0x0E	; 14
    609e:	76 4f       	sbci	r23, 0xF6	; 246
    60a0:	8d e7       	ldi	r24, 0x7D	; 125
    60a2:	97 e0       	ldi	r25, 0x07	; 7
    60a4:	43 e0       	ldi	r20, 0x03	; 3
    60a6:	50 e0       	ldi	r21, 0x00	; 0
    60a8:	0e 94 39 43 	call	0x8672	; 0x8672 <memcpy_P>
    60ac:	e0 91 3b 02 	lds	r30, 0x023B
    60b0:	f0 e0       	ldi	r31, 0x00	; 0
    60b2:	13 e0       	ldi	r17, 0x03	; 3
    60b4:	ee 0f       	add	r30, r30
    60b6:	ff 1f       	adc	r31, r31
    60b8:	1a 95       	dec	r17
    60ba:	e1 f7       	brne	.-8      	; 0x60b4 <menu_repaint+0x664>
    60bc:	ec 0d       	add	r30, r12
    60be:	fd 1d       	adc	r31, r13
    60c0:	b4 e0       	ldi	r27, 0x04	; 4
    60c2:	ee 0f       	add	r30, r30
    60c4:	ff 1f       	adc	r31, r31
    60c6:	ba 95       	dec	r27
    60c8:	e1 f7       	brne	.-8      	; 0x60c2 <menu_repaint+0x672>
    60ca:	e6 51       	subi	r30, 0x16	; 22
    60cc:	ff 4f       	sbci	r31, 0xFF	; 255
    60ce:	ee 0d       	add	r30, r14
    60d0:	ff 1d       	adc	r31, r15
    60d2:	e4 91       	lpm	r30, Z+
    60d4:	8e 2f       	mov	r24, r30
    60d6:	90 e0       	ldi	r25, 0x00	; 0
    60d8:	fc 01       	movw	r30, r24
    60da:	ee 0f       	add	r30, r30
    60dc:	ff 1f       	adc	r31, r31
    60de:	e8 0f       	add	r30, r24
    60e0:	f9 1f       	adc	r31, r25
    60e2:	e2 50       	subi	r30, 0x02	; 2
    60e4:	f1 4f       	sbci	r31, 0xF1	; 241
    60e6:	64 91       	lpm	r22, Z+
    60e8:	70 e0       	ldi	r23, 0x00	; 0
    60ea:	66 0f       	add	r22, r22
    60ec:	77 1f       	adc	r23, r23
    60ee:	66 0f       	add	r22, r22
    60f0:	77 1f       	adc	r23, r23
    60f2:	6e 50       	subi	r22, 0x0E	; 14
    60f4:	76 4f       	sbci	r23, 0xF6	; 246
    60f6:	81 e8       	ldi	r24, 0x81	; 129
    60f8:	97 e0       	ldi	r25, 0x07	; 7
    60fa:	43 e0       	ldi	r20, 0x03	; 3
    60fc:	50 e0       	ldi	r21, 0x00	; 0
    60fe:	0e 94 39 43 	call	0x8672	; 0x8672 <memcpy_P>
    6102:	e0 91 3b 02 	lds	r30, 0x023B
    6106:	f0 e0       	ldi	r31, 0x00	; 0
    6108:	63 e0       	ldi	r22, 0x03	; 3
    610a:	ee 0f       	add	r30, r30
    610c:	ff 1f       	adc	r31, r31
    610e:	6a 95       	dec	r22
    6110:	e1 f7       	brne	.-8      	; 0x610a <menu_repaint+0x6ba>
    6112:	ec 0d       	add	r30, r12
    6114:	fd 1d       	adc	r31, r13
    6116:	54 e0       	ldi	r21, 0x04	; 4
    6118:	ee 0f       	add	r30, r30
    611a:	ff 1f       	adc	r31, r31
    611c:	5a 95       	dec	r21
    611e:	e1 f7       	brne	.-8      	; 0x6118 <menu_repaint+0x6c8>
    6120:	e5 51       	subi	r30, 0x15	; 21
    6122:	ff 4f       	sbci	r31, 0xFF	; 255
    6124:	ee 0d       	add	r30, r14
    6126:	ff 1d       	adc	r31, r15
    6128:	e4 91       	lpm	r30, Z+
    612a:	8e 2f       	mov	r24, r30
    612c:	90 e0       	ldi	r25, 0x00	; 0
    612e:	fc 01       	movw	r30, r24
    6130:	ee 0f       	add	r30, r30
    6132:	ff 1f       	adc	r31, r31
    6134:	e8 0f       	add	r30, r24
    6136:	f9 1f       	adc	r31, r25
    6138:	e2 50       	subi	r30, 0x02	; 2
    613a:	f1 4f       	sbci	r31, 0xF1	; 241
    613c:	64 91       	lpm	r22, Z+
    613e:	70 e0       	ldi	r23, 0x00	; 0
    6140:	66 0f       	add	r22, r22
    6142:	77 1f       	adc	r23, r23
    6144:	66 0f       	add	r22, r22
    6146:	77 1f       	adc	r23, r23
    6148:	6e 50       	subi	r22, 0x0E	; 14
    614a:	76 4f       	sbci	r23, 0xF6	; 246
    614c:	85 e8       	ldi	r24, 0x85	; 133
    614e:	97 e0       	ldi	r25, 0x07	; 7
    6150:	43 e0       	ldi	r20, 0x03	; 3
    6152:	50 e0       	ldi	r21, 0x00	; 0
    6154:	0e 94 39 43 	call	0x8672	; 0x8672 <memcpy_P>
    6158:	e0 2f       	mov	r30, r16
    615a:	f0 e0       	ldi	r31, 0x00	; 0
    615c:	e3 70       	andi	r30, 0x03	; 3
    615e:	f0 70       	andi	r31, 0x00	; 0
    6160:	ee 0f       	add	r30, r30
    6162:	ff 1f       	adc	r31, r31
    6164:	ee 0f       	add	r30, r30
    6166:	ff 1f       	adc	r31, r31
    6168:	e7 58       	subi	r30, 0x87	; 135
    616a:	f8 4f       	sbci	r31, 0xF8	; 248
    616c:	80 81       	ld	r24, Z
    616e:	80 52       	subi	r24, 0x20	; 32
    6170:	80 83       	st	Z, r24
    6172:	9a e8       	ldi	r25, 0x8A	; 138
    6174:	a9 2e       	mov	r10, r25
    6176:	97 e0       	ldi	r25, 0x07	; 7
    6178:	b9 2e       	mov	r11, r25
    617a:	8e 01       	movw	r16, r28
    617c:	0f 5f       	subi	r16, 0xFF	; 255
    617e:	1f 4f       	sbci	r17, 0xFF	; 255
    6180:	83 ec       	ldi	r24, 0xC3	; 195
    6182:	88 2e       	mov	r8, r24
    6184:	81 e0       	ldi	r24, 0x01	; 1
    6186:	98 2e       	mov	r9, r24
    6188:	e0 91 3b 02 	lds	r30, 0x023B
    618c:	f0 e0       	ldi	r31, 0x00	; 0
    618e:	b3 e0       	ldi	r27, 0x03	; 3
    6190:	ee 0f       	add	r30, r30
    6192:	ff 1f       	adc	r31, r31
    6194:	ba 95       	dec	r27
    6196:	e1 f7       	brne	.-8      	; 0x6190 <menu_repaint+0x740>
    6198:	ec 0d       	add	r30, r12
    619a:	fd 1d       	adc	r31, r13
    619c:	a4 e0       	ldi	r26, 0x04	; 4
    619e:	ee 0f       	add	r30, r30
    61a0:	ff 1f       	adc	r31, r31
    61a2:	aa 95       	dec	r26
    61a4:	e1 f7       	brne	.-8      	; 0x619e <menu_repaint+0x74e>
    61a6:	e0 51       	subi	r30, 0x10	; 16
    61a8:	ff 4f       	sbci	r31, 0xFF	; 255
    61aa:	ee 0d       	add	r30, r14
    61ac:	ff 1d       	adc	r31, r15
    61ae:	e4 91       	lpm	r30, Z+
    61b0:	ee 23       	and	r30, r30
    61b2:	09 f4       	brne	.+2      	; 0x61b6 <menu_repaint+0x766>
    61b4:	90 c1       	rjmp	.+800    	; 0x64d6 <menu_repaint+0xa86>
    61b6:	2e 2f       	mov	r18, r30
    61b8:	30 e0       	ldi	r19, 0x00	; 0
    61ba:	d9 01       	movw	r26, r18
    61bc:	aa 0f       	add	r26, r26
    61be:	bb 1f       	adc	r27, r27
    61c0:	a5 56       	subi	r26, 0x65	; 101
    61c2:	b8 4f       	sbci	r27, 0xF8	; 248
    61c4:	11 96       	adiw	r26, 0x01	; 1
    61c6:	4c 91       	ld	r20, X
    61c8:	11 97       	sbiw	r26, 0x01	; 1
    61ca:	84 2f       	mov	r24, r20
    61cc:	90 e0       	ldi	r25, 0x00	; 0
    61ce:	8f 70       	andi	r24, 0x0F	; 15
    61d0:	90 70       	andi	r25, 0x00	; 0
    61d2:	87 30       	cpi	r24, 0x07	; 7
    61d4:	91 05       	cpc	r25, r1
    61d6:	09 f4       	brne	.+2      	; 0x61da <menu_repaint+0x78a>
    61d8:	aa c0       	rjmp	.+340    	; 0x632e <menu_repaint+0x8de>
    61da:	88 30       	cpi	r24, 0x08	; 8
    61dc:	91 05       	cpc	r25, r1
    61de:	6c f4       	brge	.+26     	; 0x61fa <menu_repaint+0x7aa>
    61e0:	84 30       	cpi	r24, 0x04	; 4
    61e2:	91 05       	cpc	r25, r1
    61e4:	09 f4       	brne	.+2      	; 0x61e8 <menu_repaint+0x798>
    61e6:	59 c1       	rjmp	.+690    	; 0x649a <menu_repaint+0xa4a>
    61e8:	86 30       	cpi	r24, 0x06	; 6
    61ea:	91 05       	cpc	r25, r1
    61ec:	09 f4       	brne	.+2      	; 0x61f0 <menu_repaint+0x7a0>
    61ee:	aa c0       	rjmp	.+340    	; 0x6344 <menu_repaint+0x8f4>
    61f0:	83 30       	cpi	r24, 0x03	; 3
    61f2:	91 05       	cpc	r25, r1
    61f4:	09 f0       	breq	.+2      	; 0x61f8 <menu_repaint+0x7a8>
    61f6:	67 c0       	rjmp	.+206    	; 0x62c6 <menu_repaint+0x876>
    61f8:	b0 c0       	rjmp	.+352    	; 0x635a <menu_repaint+0x90a>
    61fa:	89 30       	cpi	r24, 0x09	; 9
    61fc:	91 05       	cpc	r25, r1
    61fe:	41 f0       	breq	.+16     	; 0x6210 <menu_repaint+0x7c0>
    6200:	89 30       	cpi	r24, 0x09	; 9
    6202:	91 05       	cpc	r25, r1
    6204:	4c f1       	brlt	.+82     	; 0x6258 <menu_repaint+0x808>
    6206:	8b 30       	cpi	r24, 0x0B	; 11
    6208:	91 05       	cpc	r25, r1
    620a:	09 f0       	breq	.+2      	; 0x620e <menu_repaint+0x7be>
    620c:	5c c0       	rjmp	.+184    	; 0x62c6 <menu_repaint+0x876>
    620e:	7c c0       	rjmp	.+248    	; 0x6308 <menu_repaint+0x8b8>
    6210:	8c 91       	ld	r24, X
    6212:	98 2f       	mov	r25, r24
    6214:	96 95       	lsr	r25
    6216:	96 95       	lsr	r25
    6218:	96 95       	lsr	r25
    621a:	e5 59       	subi	r30, 0x95	; 149
    621c:	f0 e0       	ldi	r31, 0x00	; 0
    621e:	63 e0       	ldi	r22, 0x03	; 3
    6220:	ee 0f       	add	r30, r30
    6222:	ff 1f       	adc	r31, r31
    6224:	6a 95       	dec	r22
    6226:	e1 f7       	brne	.-8      	; 0x6220 <menu_repaint+0x7d0>
    6228:	e9 0f       	add	r30, r25
    622a:	f1 1d       	adc	r31, r1
    622c:	54 e0       	ldi	r21, 0x04	; 4
    622e:	ee 0f       	add	r30, r30
    6230:	ff 1f       	adc	r31, r31
    6232:	5a 95       	dec	r21
    6234:	e1 f7       	brne	.-8      	; 0x622e <menu_repaint+0x7de>
    6236:	e8 51       	subi	r30, 0x18	; 24
    6238:	ff 4f       	sbci	r31, 0xFF	; 255
    623a:	87 70       	andi	r24, 0x07	; 7
    623c:	e8 0f       	add	r30, r24
    623e:	f1 1d       	adc	r31, r1
    6240:	e4 91       	lpm	r30, Z+
    6242:	8e 2f       	mov	r24, r30
    6244:	90 e0       	ldi	r25, 0x00	; 0
    6246:	fc 01       	movw	r30, r24
    6248:	ee 0f       	add	r30, r30
    624a:	ff 1f       	adc	r31, r31
    624c:	e8 0f       	add	r30, r24
    624e:	f9 1f       	adc	r31, r25
    6250:	e2 50       	subi	r30, 0x02	; 2
    6252:	f1 4f       	sbci	r31, 0xF1	; 241
    6254:	64 91       	lpm	r22, Z+
    6256:	2a c0       	rjmp	.+84     	; 0x62ac <menu_repaint+0x85c>
    6258:	8c 91       	ld	r24, X
    625a:	98 2f       	mov	r25, r24
    625c:	96 95       	lsr	r25
    625e:	96 95       	lsr	r25
    6260:	96 95       	lsr	r25
    6262:	e7 5a       	subi	r30, 0xA7	; 167
    6264:	f0 e0       	ldi	r31, 0x00	; 0
    6266:	ee 0f       	add	r30, r30
    6268:	ff 1f       	adc	r31, r31
    626a:	e3 52       	subi	r30, 0x23	; 35
    626c:	f7 4f       	sbci	r31, 0xF7	; 247
    626e:	e0 81       	ld	r30, Z
    6270:	e1 50       	subi	r30, 0x01	; 1
    6272:	f0 e0       	ldi	r31, 0x00	; 0
    6274:	23 e0       	ldi	r18, 0x03	; 3
    6276:	ee 0f       	add	r30, r30
    6278:	ff 1f       	adc	r31, r31
    627a:	2a 95       	dec	r18
    627c:	e1 f7       	brne	.-8      	; 0x6276 <menu_repaint+0x826>
    627e:	e9 0f       	add	r30, r25
    6280:	f1 1d       	adc	r31, r1
    6282:	b4 e0       	ldi	r27, 0x04	; 4
    6284:	ee 0f       	add	r30, r30
    6286:	ff 1f       	adc	r31, r31
    6288:	ba 95       	dec	r27
    628a:	e1 f7       	brne	.-8      	; 0x6284 <menu_repaint+0x834>
    628c:	e8 51       	subi	r30, 0x18	; 24
    628e:	ff 4f       	sbci	r31, 0xFF	; 255
    6290:	87 70       	andi	r24, 0x07	; 7
    6292:	e8 0f       	add	r30, r24
    6294:	f1 1d       	adc	r31, r1
    6296:	e4 91       	lpm	r30, Z+
    6298:	8e 2f       	mov	r24, r30
    629a:	90 e0       	ldi	r25, 0x00	; 0
    629c:	fc 01       	movw	r30, r24
    629e:	ee 0f       	add	r30, r30
    62a0:	ff 1f       	adc	r31, r31
    62a2:	e8 0f       	add	r30, r24
    62a4:	f9 1f       	adc	r31, r25
    62a6:	e2 50       	subi	r30, 0x02	; 2
    62a8:	f1 4f       	sbci	r31, 0xF1	; 241
    62aa:	64 91       	lpm	r22, Z+
    62ac:	70 e0       	ldi	r23, 0x00	; 0
    62ae:	66 0f       	add	r22, r22
    62b0:	77 1f       	adc	r23, r23
    62b2:	66 0f       	add	r22, r22
    62b4:	77 1f       	adc	r23, r23
    62b6:	6e 50       	subi	r22, 0x0E	; 14
    62b8:	76 4f       	sbci	r23, 0xF6	; 246
    62ba:	c8 01       	movw	r24, r16
    62bc:	43 e0       	ldi	r20, 0x03	; 3
    62be:	50 e0       	ldi	r21, 0x00	; 0
    62c0:	0e 94 39 43 	call	0x8672	; 0x8672 <memcpy_P>
    62c4:	0d c1       	rjmp	.+538    	; 0x64e0 <menu_repaint+0xa90>
    62c6:	00 d0       	rcall	.+0      	; 0x62c8 <menu_repaint+0x878>
    62c8:	00 d0       	rcall	.+0      	; 0x62ca <menu_repaint+0x87a>
    62ca:	00 d0       	rcall	.+0      	; 0x62cc <menu_repaint+0x87c>
    62cc:	ed b7       	in	r30, 0x3d	; 61
    62ce:	fe b7       	in	r31, 0x3e	; 62
    62d0:	31 96       	adiw	r30, 0x01	; 1
    62d2:	ad b7       	in	r26, 0x3d	; 61
    62d4:	be b7       	in	r27, 0x3e	; 62
    62d6:	12 96       	adiw	r26, 0x02	; 2
    62d8:	1c 93       	st	X, r17
    62da:	0e 93       	st	-X, r16
    62dc:	11 97       	sbiw	r26, 0x01	; 1
    62de:	93 82       	std	Z+3, r9	; 0x03
    62e0:	82 82       	std	Z+2, r8	; 0x02
    62e2:	d9 01       	movw	r26, r18
    62e4:	aa 0f       	add	r26, r26
    62e6:	bb 1f       	adc	r27, r27
    62e8:	a5 56       	subi	r26, 0x65	; 101
    62ea:	b8 4f       	sbci	r27, 0xF8	; 248
    62ec:	8c 91       	ld	r24, X
    62ee:	84 83       	std	Z+4, r24	; 0x04
    62f0:	15 82       	std	Z+5, r1	; 0x05
    62f2:	0e 94 ab 43 	call	0x8756	; 0x8756 <sprintf>
    62f6:	ed b7       	in	r30, 0x3d	; 61
    62f8:	fe b7       	in	r31, 0x3e	; 62
    62fa:	36 96       	adiw	r30, 0x06	; 6
    62fc:	0f b6       	in	r0, 0x3f	; 63
    62fe:	f8 94       	cli
    6300:	fe bf       	out	0x3e, r31	; 62
    6302:	0f be       	out	0x3f, r0	; 63
    6304:	ed bf       	out	0x3d, r30	; 61
    6306:	ec c0       	rjmp	.+472    	; 0x64e0 <menu_repaint+0xa90>
    6308:	ec 91       	ld	r30, X
    630a:	ef 3f       	cpi	r30, 0xFF	; 255
    630c:	11 f1       	breq	.+68     	; 0x6352 <menu_repaint+0x902>
    630e:	f0 e0       	ldi	r31, 0x00	; 0
    6310:	ee 0f       	add	r30, r30
    6312:	ff 1f       	adc	r31, r31
    6314:	e1 56       	subi	r30, 0x61	; 97
    6316:	fa 4f       	sbci	r31, 0xFA	; 250
    6318:	81 81       	ldd	r24, Z+1	; 0x01
    631a:	90 e0       	ldi	r25, 0x00	; 0
    631c:	fc 01       	movw	r30, r24
    631e:	ee 0f       	add	r30, r30
    6320:	ff 1f       	adc	r31, r31
    6322:	e8 0f       	add	r30, r24
    6324:	f9 1f       	adc	r31, r25
    6326:	e2 50       	subi	r30, 0x02	; 2
    6328:	f1 4f       	sbci	r31, 0xF1	; 241
    632a:	64 91       	lpm	r22, Z+
    632c:	bf cf       	rjmp	.-130    	; 0x62ac <menu_repaint+0x85c>
    632e:	8c 91       	ld	r24, X
    6330:	81 30       	cpi	r24, 0x01	; 1
    6332:	21 f4       	brne	.+8      	; 0x633c <menu_repaint+0x8ec>
    6334:	c8 01       	movw	r24, r16
    6336:	69 ed       	ldi	r22, 0xD9	; 217
    6338:	71 e0       	ldi	r23, 0x01	; 1
    633a:	d0 c0       	rjmp	.+416    	; 0x64dc <menu_repaint+0xa8c>
    633c:	c8 01       	movw	r24, r16
    633e:	6d ed       	ldi	r22, 0xDD	; 221
    6340:	71 e0       	ldi	r23, 0x01	; 1
    6342:	cc c0       	rjmp	.+408    	; 0x64dc <menu_repaint+0xa8c>
    6344:	8c 91       	ld	r24, X
    6346:	81 30       	cpi	r24, 0x01	; 1
    6348:	21 f4       	brne	.+8      	; 0x6352 <menu_repaint+0x902>
    634a:	c8 01       	movw	r24, r16
    634c:	60 ee       	ldi	r22, 0xE0	; 224
    634e:	71 e0       	ldi	r23, 0x01	; 1
    6350:	c5 c0       	rjmp	.+394    	; 0x64dc <menu_repaint+0xa8c>
    6352:	c8 01       	movw	r24, r16
    6354:	63 ee       	ldi	r22, 0xE3	; 227
    6356:	71 e0       	ldi	r23, 0x01	; 1
    6358:	c1 c0       	rjmp	.+386    	; 0x64dc <menu_repaint+0xa8c>
    635a:	84 2f       	mov	r24, r20
    635c:	82 95       	swap	r24
    635e:	8f 70       	andi	r24, 0x0F	; 15
    6360:	85 30       	cpi	r24, 0x05	; 5
    6362:	09 f4       	brne	.+2      	; 0x6366 <menu_repaint+0x916>
    6364:	4c c0       	rjmp	.+152    	; 0x63fe <menu_repaint+0x9ae>
    6366:	86 30       	cpi	r24, 0x06	; 6
    6368:	70 f4       	brcc	.+28     	; 0x6386 <menu_repaint+0x936>
    636a:	82 30       	cpi	r24, 0x02	; 2
    636c:	f9 f1       	breq	.+126    	; 0x63ec <menu_repaint+0x99c>
    636e:	83 30       	cpi	r24, 0x03	; 3
    6370:	20 f4       	brcc	.+8      	; 0x637a <menu_repaint+0x92a>
    6372:	81 30       	cpi	r24, 0x01	; 1
    6374:	09 f0       	breq	.+2      	; 0x6378 <menu_repaint+0x928>
    6376:	8d c0       	rjmp	.+282    	; 0x6492 <menu_repaint+0xa42>
    6378:	26 c0       	rjmp	.+76     	; 0x63c6 <menu_repaint+0x976>
    637a:	83 30       	cpi	r24, 0x03	; 3
    637c:	89 f0       	breq	.+34     	; 0x63a0 <menu_repaint+0x950>
    637e:	84 30       	cpi	r24, 0x04	; 4
    6380:	09 f0       	breq	.+2      	; 0x6384 <menu_repaint+0x934>
    6382:	87 c0       	rjmp	.+270    	; 0x6492 <menu_repaint+0xa42>
    6384:	78 c0       	rjmp	.+240    	; 0x6476 <menu_repaint+0xa26>
    6386:	87 30       	cpi	r24, 0x07	; 7
    6388:	09 f4       	brne	.+2      	; 0x638c <menu_repaint+0x93c>
    638a:	50 c0       	rjmp	.+160    	; 0x642c <menu_repaint+0x9dc>
    638c:	87 30       	cpi	r24, 0x07	; 7
    638e:	08 f4       	brcc	.+2      	; 0x6392 <menu_repaint+0x942>
    6390:	3f c0       	rjmp	.+126    	; 0x6410 <menu_repaint+0x9c0>
    6392:	88 30       	cpi	r24, 0x08	; 8
    6394:	09 f4       	brne	.+2      	; 0x6398 <menu_repaint+0x948>
    6396:	61 c0       	rjmp	.+194    	; 0x645a <menu_repaint+0xa0a>
    6398:	89 30       	cpi	r24, 0x09	; 9
    639a:	09 f0       	breq	.+2      	; 0x639e <menu_repaint+0x94e>
    639c:	7a c0       	rjmp	.+244    	; 0x6492 <menu_repaint+0xa42>
    639e:	4f c0       	rjmp	.+158    	; 0x643e <menu_repaint+0x9ee>
    63a0:	f9 01       	movw	r30, r18
    63a2:	ee 0f       	add	r30, r30
    63a4:	ff 1f       	adc	r31, r31
    63a6:	e5 56       	subi	r30, 0x65	; 101
    63a8:	f8 4f       	sbci	r31, 0xF8	; 248
    63aa:	80 81       	ld	r24, Z
    63ac:	90 e0       	ldi	r25, 0x00	; 0
    63ae:	01 96       	adiw	r24, 0x01	; 1
    63b0:	bc 01       	movw	r22, r24
    63b2:	23 e0       	ldi	r18, 0x03	; 3
    63b4:	66 0f       	add	r22, r22
    63b6:	77 1f       	adc	r23, r23
    63b8:	2a 95       	dec	r18
    63ba:	e1 f7       	brne	.-8      	; 0x63b4 <menu_repaint+0x964>
    63bc:	68 1b       	sub	r22, r24
    63be:	79 0b       	sbc	r23, r25
    63c0:	60 57       	subi	r22, 0x70	; 112
    63c2:	76 4f       	sbci	r23, 0xF6	; 246
    63c4:	7a cf       	rjmp	.-268    	; 0x62ba <menu_repaint+0x86a>
    63c6:	f9 01       	movw	r30, r18
    63c8:	ee 0f       	add	r30, r30
    63ca:	ff 1f       	adc	r31, r31
    63cc:	e5 56       	subi	r30, 0x65	; 101
    63ce:	f8 4f       	sbci	r31, 0xF8	; 248
    63d0:	80 81       	ld	r24, Z
    63d2:	90 e0       	ldi	r25, 0x00	; 0
    63d4:	01 96       	adiw	r24, 0x01	; 1
    63d6:	bc 01       	movw	r22, r24
    63d8:	a3 e0       	ldi	r26, 0x03	; 3
    63da:	66 0f       	add	r22, r22
    63dc:	77 1f       	adc	r23, r23
    63de:	aa 95       	dec	r26
    63e0:	e1 f7       	brne	.-8      	; 0x63da <menu_repaint+0x98a>
    63e2:	68 1b       	sub	r22, r24
    63e4:	79 0b       	sbc	r23, r25
    63e6:	6f 53       	subi	r22, 0x3F	; 63
    63e8:	76 4f       	sbci	r23, 0xF6	; 246
    63ea:	67 cf       	rjmp	.-306    	; 0x62ba <menu_repaint+0x86a>
    63ec:	6c 91       	ld	r22, X
    63ee:	70 e0       	ldi	r23, 0x00	; 0
    63f0:	66 0f       	add	r22, r22
    63f2:	77 1f       	adc	r23, r23
    63f4:	66 0f       	add	r22, r22
    63f6:	77 1f       	adc	r23, r23
    63f8:	68 58       	subi	r22, 0x88	; 136
    63fa:	76 4f       	sbci	r23, 0xF6	; 246
    63fc:	5e cf       	rjmp	.-324    	; 0x62ba <menu_repaint+0x86a>
    63fe:	6c 91       	ld	r22, X
    6400:	70 e0       	ldi	r23, 0x00	; 0
    6402:	66 0f       	add	r22, r22
    6404:	77 1f       	adc	r23, r23
    6406:	66 0f       	add	r22, r22
    6408:	77 1f       	adc	r23, r23
    640a:	6c 5b       	subi	r22, 0xBC	; 188
    640c:	76 4f       	sbci	r23, 0xF6	; 246
    640e:	55 cf       	rjmp	.-342    	; 0x62ba <menu_repaint+0x86a>
    6410:	f9 01       	movw	r30, r18
    6412:	ee 0f       	add	r30, r30
    6414:	ff 1f       	adc	r31, r31
    6416:	e5 56       	subi	r30, 0x65	; 101
    6418:	f8 4f       	sbci	r31, 0xF8	; 248
    641a:	60 81       	ld	r22, Z
    641c:	70 e0       	ldi	r23, 0x00	; 0
    641e:	66 0f       	add	r22, r22
    6420:	77 1f       	adc	r23, r23
    6422:	66 0f       	add	r22, r22
    6424:	77 1f       	adc	r23, r23
    6426:	6c 51       	subi	r22, 0x1C	; 28
    6428:	77 4f       	sbci	r23, 0xF7	; 247
    642a:	47 cf       	rjmp	.-370    	; 0x62ba <menu_repaint+0x86a>
    642c:	6c 91       	ld	r22, X
    642e:	70 e0       	ldi	r23, 0x00	; 0
    6430:	66 0f       	add	r22, r22
    6432:	77 1f       	adc	r23, r23
    6434:	66 0f       	add	r22, r22
    6436:	77 1f       	adc	r23, r23
    6438:	6c 53       	subi	r22, 0x3C	; 60
    643a:	77 4f       	sbci	r23, 0xF7	; 247
    643c:	3e cf       	rjmp	.-388    	; 0x62ba <menu_repaint+0x86a>
    643e:	f9 01       	movw	r30, r18
    6440:	ee 0f       	add	r30, r30
    6442:	ff 1f       	adc	r31, r31
    6444:	e5 56       	subi	r30, 0x65	; 101
    6446:	f8 4f       	sbci	r31, 0xF8	; 248
    6448:	60 81       	ld	r22, Z
    644a:	70 e0       	ldi	r23, 0x00	; 0
    644c:	66 0f       	add	r22, r22
    644e:	77 1f       	adc	r23, r23
    6450:	66 0f       	add	r22, r22
    6452:	77 1f       	adc	r23, r23
    6454:	64 59       	subi	r22, 0x94	; 148
    6456:	77 4f       	sbci	r23, 0xF7	; 247
    6458:	30 cf       	rjmp	.-416    	; 0x62ba <menu_repaint+0x86a>
    645a:	f9 01       	movw	r30, r18
    645c:	ee 0f       	add	r30, r30
    645e:	ff 1f       	adc	r31, r31
    6460:	e5 56       	subi	r30, 0x65	; 101
    6462:	f8 4f       	sbci	r31, 0xF8	; 248
    6464:	60 81       	ld	r22, Z
    6466:	70 e0       	ldi	r23, 0x00	; 0
    6468:	66 0f       	add	r22, r22
    646a:	77 1f       	adc	r23, r23
    646c:	66 0f       	add	r22, r22
    646e:	77 1f       	adc	r23, r23
    6470:	6c 57       	subi	r22, 0x7C	; 124
    6472:	77 4f       	sbci	r23, 0xF7	; 247
    6474:	22 cf       	rjmp	.-444    	; 0x62ba <menu_repaint+0x86a>
    6476:	f9 01       	movw	r30, r18
    6478:	ee 0f       	add	r30, r30
    647a:	ff 1f       	adc	r31, r31
    647c:	e5 56       	subi	r30, 0x65	; 101
    647e:	f8 4f       	sbci	r31, 0xF8	; 248
    6480:	60 81       	ld	r22, Z
    6482:	70 e0       	ldi	r23, 0x00	; 0
    6484:	66 0f       	add	r22, r22
    6486:	77 1f       	adc	r23, r23
    6488:	66 0f       	add	r22, r22
    648a:	77 1f       	adc	r23, r23
    648c:	68 5f       	subi	r22, 0xF8	; 248
    648e:	76 4f       	sbci	r23, 0xF6	; 246
    6490:	14 cf       	rjmp	.-472    	; 0x62ba <menu_repaint+0x86a>
    6492:	c8 01       	movw	r24, r16
    6494:	67 ee       	ldi	r22, 0xE7	; 231
    6496:	71 e0       	ldi	r23, 0x01	; 1
    6498:	21 c0       	rjmp	.+66     	; 0x64dc <menu_repaint+0xa8c>
    649a:	00 d0       	rcall	.+0      	; 0x649c <menu_repaint+0xa4c>
    649c:	00 d0       	rcall	.+0      	; 0x649e <menu_repaint+0xa4e>
    649e:	00 d0       	rcall	.+0      	; 0x64a0 <menu_repaint+0xa50>
    64a0:	2d b7       	in	r18, 0x3d	; 61
    64a2:	3e b7       	in	r19, 0x3e	; 62
    64a4:	2f 5f       	subi	r18, 0xFF	; 255
    64a6:	3f 4f       	sbci	r19, 0xFF	; 255
    64a8:	ed b7       	in	r30, 0x3d	; 61
    64aa:	fe b7       	in	r31, 0x3e	; 62
    64ac:	12 83       	std	Z+2, r17	; 0x02
    64ae:	01 83       	std	Z+1, r16	; 0x01
    64b0:	f9 01       	movw	r30, r18
    64b2:	93 82       	std	Z+3, r9	; 0x03
    64b4:	82 82       	std	Z+2, r8	; 0x02
    64b6:	8c 91       	ld	r24, X
    64b8:	90 e0       	ldi	r25, 0x00	; 0
    64ba:	cf 97       	sbiw	r24, 0x3f	; 63
    64bc:	95 83       	std	Z+5, r25	; 0x05
    64be:	84 83       	std	Z+4, r24	; 0x04
    64c0:	0e 94 ab 43 	call	0x8756	; 0x8756 <sprintf>
    64c4:	8d b7       	in	r24, 0x3d	; 61
    64c6:	9e b7       	in	r25, 0x3e	; 62
    64c8:	06 96       	adiw	r24, 0x06	; 6
    64ca:	0f b6       	in	r0, 0x3f	; 63
    64cc:	f8 94       	cli
    64ce:	9e bf       	out	0x3e, r25	; 62
    64d0:	0f be       	out	0x3f, r0	; 63
    64d2:	8d bf       	out	0x3d, r24	; 61
    64d4:	05 c0       	rjmp	.+10     	; 0x64e0 <menu_repaint+0xa90>
    64d6:	c8 01       	movw	r24, r16
    64d8:	6b ee       	ldi	r22, 0xEB	; 235
    64da:	71 e0       	ldi	r23, 0x01	; 1
    64dc:	0e 94 6f 43 	call	0x86de	; 0x86de <strcpy>
    64e0:	d5 01       	movw	r26, r10
    64e2:	f8 01       	movw	r30, r16
    64e4:	83 e0       	ldi	r24, 0x03	; 3
    64e6:	01 90       	ld	r0, Z+
    64e8:	0d 92       	st	X+, r0
    64ea:	81 50       	subi	r24, 0x01	; 1
    64ec:	e1 f7       	brne	.-8      	; 0x64e6 <menu_repaint+0xa96>
    64ee:	08 94       	sec
    64f0:	e1 1c       	adc	r14, r1
    64f2:	f1 1c       	adc	r15, r1
    64f4:	a4 e0       	ldi	r26, 0x04	; 4
    64f6:	b0 e0       	ldi	r27, 0x00	; 0
    64f8:	aa 0e       	add	r10, r26
    64fa:	bb 1e       	adc	r11, r27
    64fc:	ba e9       	ldi	r27, 0x9A	; 154
    64fe:	ab 16       	cp	r10, r27
    6500:	b7 e0       	ldi	r27, 0x07	; 7
    6502:	bb 06       	cpc	r11, r27
    6504:	09 f0       	breq	.+2      	; 0x6508 <menu_repaint+0xab8>
    6506:	40 ce       	rjmp	.-896    	; 0x6188 <menu_repaint+0x738>
    6508:	0e 94 e7 2a 	call	0x55ce	; 0x55ce <sendDisplayBuffer>
    650c:	61 96       	adiw	r28, 0x11	; 17
    650e:	0f b6       	in	r0, 0x3f	; 63
    6510:	f8 94       	cli
    6512:	de bf       	out	0x3e, r29	; 62
    6514:	0f be       	out	0x3f, r0	; 63
    6516:	cd bf       	out	0x3d, r28	; 61
    6518:	cf 91       	pop	r28
    651a:	df 91       	pop	r29
    651c:	1f 91       	pop	r17
    651e:	0f 91       	pop	r16
    6520:	ff 90       	pop	r15
    6522:	ef 90       	pop	r14
    6524:	df 90       	pop	r13
    6526:	cf 90       	pop	r12
    6528:	bf 90       	pop	r11
    652a:	af 90       	pop	r10
    652c:	9f 90       	pop	r9
    652e:	8f 90       	pop	r8
    6530:	08 95       	ret

00006532 <menu_repaintAll>:
    6532:	89 e7       	ldi	r24, 0x79	; 121
    6534:	97 e0       	ldi	r25, 0x07	; 7
    6536:	60 e2       	ldi	r22, 0x20	; 32
    6538:	70 e0       	ldi	r23, 0x00	; 0
    653a:	42 e2       	ldi	r20, 0x22	; 34
    653c:	50 e0       	ldi	r21, 0x00	; 0
    653e:	0e 94 68 43 	call	0x86d0	; 0x86d0 <memset>
    6542:	89 e5       	ldi	r24, 0x59	; 89
    6544:	97 e0       	ldi	r25, 0x07	; 7
    6546:	6f e7       	ldi	r22, 0x7F	; 127
    6548:	70 e0       	ldi	r23, 0x00	; 0
    654a:	40 e2       	ldi	r20, 0x20	; 32
    654c:	50 e0       	ldi	r21, 0x00	; 0
    654e:	0e 94 68 43 	call	0x86d0	; 0x86d0 <memset>
    6552:	0e 94 28 2d 	call	0x5a50	; 0x5a50 <menu_repaint>
    6556:	08 95       	ret

00006558 <menu_resetSaveParameters>:
    6558:	81 e0       	ldi	r24, 0x01	; 1
    655a:	80 93 3f 02 	sts	0x023F, r24
    655e:	80 91 41 02 	lds	r24, 0x0241
    6562:	87 78       	andi	r24, 0x87	; 135
    6564:	88 60       	ori	r24, 0x08	; 8
    6566:	80 93 41 02 	sts	0x0241, r24
    656a:	0e 94 99 32 	call	0x6532	; 0x6532 <menu_repaintAll>
    656e:	08 95       	ret

00006570 <menu_handleLoadSaveMenu>:
    6570:	1f 93       	push	r17
    6572:	18 2f       	mov	r17, r24
    6574:	61 30       	cpi	r22, 0x01	; 1
    6576:	09 f0       	breq	.+2      	; 0x657a <menu_handleLoadSaveMenu+0xa>
    6578:	59 c0       	rjmp	.+178    	; 0x662c <menu_handleLoadSaveMenu+0xbc>
    657a:	80 91 42 02 	lds	r24, 0x0242
    657e:	81 30       	cpi	r24, 0x01	; 1
    6580:	09 f4       	brne	.+2      	; 0x6584 <menu_handleLoadSaveMenu+0x14>
    6582:	54 c0       	rjmp	.+168    	; 0x662c <menu_handleLoadSaveMenu+0xbc>
    6584:	80 91 3f 02 	lds	r24, 0x023F
    6588:	68 1b       	sub	r22, r24
    658a:	60 93 3f 02 	sts	0x023F, r22
    658e:	0e 94 99 32 	call	0x6532	; 0x6532 <menu_repaintAll>
    6592:	80 91 3f 02 	lds	r24, 0x023F
    6596:	88 23       	and	r24, r24
    6598:	29 f0       	breq	.+10     	; 0x65a4 <menu_handleLoadSaveMenu+0x34>
    659a:	80 91 41 02 	lds	r24, 0x0241
    659e:	88 77       	andi	r24, 0x78	; 120
    65a0:	80 35       	cpi	r24, 0x50	; 80
    65a2:	69 f0       	breq	.+26     	; 0x65be <menu_handleLoadSaveMenu+0x4e>
    65a4:	80 91 41 02 	lds	r24, 0x0241
    65a8:	87 70       	andi	r24, 0x07	; 7
    65aa:	83 30       	cpi	r24, 0x03	; 3
    65ac:	09 f0       	breq	.+2      	; 0x65b0 <menu_handleLoadSaveMenu+0x40>
    65ae:	3e c0       	rjmp	.+124    	; 0x662c <menu_handleLoadSaveMenu+0xbc>
    65b0:	80 91 41 02 	lds	r24, 0x0241
    65b4:	86 95       	lsr	r24
    65b6:	86 95       	lsr	r24
    65b8:	86 95       	lsr	r24
    65ba:	8f 70       	andi	r24, 0x0F	; 15
    65bc:	b9 f1       	breq	.+110    	; 0x662c <menu_handleLoadSaveMenu+0xbc>
    65be:	80 91 3b 02 	lds	r24, 0x023B
    65c2:	89 30       	cpi	r24, 0x09	; 9
    65c4:	d9 f4       	brne	.+54     	; 0x65fc <menu_handleLoadSaveMenu+0x8c>
    65c6:	20 91 41 02 	lds	r18, 0x0241
    65ca:	27 70       	andi	r18, 0x07	; 7
    65cc:	30 e0       	ldi	r19, 0x00	; 0
    65ce:	21 30       	cpi	r18, 0x01	; 1
    65d0:	31 05       	cpc	r19, r1
    65d2:	39 f0       	breq	.+14     	; 0x65e2 <menu_handleLoadSaveMenu+0x72>
    65d4:	23 30       	cpi	r18, 0x03	; 3
    65d6:	31 05       	cpc	r19, r1
    65d8:	71 f0       	breq	.+28     	; 0x65f6 <menu_handleLoadSaveMenu+0x86>
    65da:	21 15       	cp	r18, r1
    65dc:	31 05       	cpc	r19, r1
    65de:	31 f0       	breq	.+12     	; 0x65ec <menu_handleLoadSaveMenu+0x7c>
    65e0:	21 c0       	rjmp	.+66     	; 0x6624 <menu_handleLoadSaveMenu+0xb4>
    65e2:	80 91 40 02 	lds	r24, 0x0240
    65e6:	0e 94 70 3d 	call	0x7ae0	; 0x7ae0 <preset_savePattern>
    65ea:	1c c0       	rjmp	.+56     	; 0x6624 <menu_handleLoadSaveMenu+0xb4>
    65ec:	80 91 40 02 	lds	r24, 0x0240
    65f0:	0e 94 8a 3a 	call	0x7514	; 0x7514 <preset_saveDrumset>
    65f4:	17 c0       	rjmp	.+46     	; 0x6624 <menu_handleLoadSaveMenu+0xb4>
    65f6:	0e 94 f2 3a 	call	0x75e4	; 0x75e4 <preset_saveGlobals>
    65fa:	14 c0       	rjmp	.+40     	; 0x6624 <menu_handleLoadSaveMenu+0xb4>
    65fc:	20 91 41 02 	lds	r18, 0x0241
    6600:	27 70       	andi	r18, 0x07	; 7
    6602:	30 e0       	ldi	r19, 0x00	; 0
    6604:	21 30       	cpi	r18, 0x01	; 1
    6606:	31 05       	cpc	r19, r1
    6608:	21 f0       	breq	.+8      	; 0x6612 <menu_handleLoadSaveMenu+0xa2>
    660a:	23 30       	cpi	r18, 0x03	; 3
    660c:	31 05       	cpc	r19, r1
    660e:	71 f4       	brne	.+28     	; 0x662c <menu_handleLoadSaveMenu+0xbc>
    6610:	07 c0       	rjmp	.+14     	; 0x6620 <menu_handleLoadSaveMenu+0xb0>
    6612:	80 91 40 02 	lds	r24, 0x0240
    6616:	0e 94 b4 3e 	call	0x7d68	; 0x7d68 <preset_loadPattern>
    661a:	88 23       	and	r24, r24
    661c:	39 f0       	breq	.+14     	; 0x662c <menu_handleLoadSaveMenu+0xbc>
    661e:	02 c0       	rjmp	.+4      	; 0x6624 <menu_handleLoadSaveMenu+0xb4>
    6620:	0e 94 26 3b 	call	0x764c	; 0x764c <preset_loadGlobals>
    6624:	0e 94 ac 32 	call	0x6558	; 0x6558 <menu_resetSaveParameters>
    6628:	0e 94 99 32 	call	0x6532	; 0x6532 <menu_repaintAll>
    662c:	80 91 3f 02 	lds	r24, 0x023F
    6630:	88 23       	and	r24, r24
    6632:	09 f4       	brne	.+2      	; 0x6636 <menu_handleLoadSaveMenu+0xc6>
    6634:	95 c0       	rjmp	.+298    	; 0x6760 <menu_handleLoadSaveMenu+0x1f0>
    6636:	20 91 41 02 	lds	r18, 0x0241
    663a:	26 95       	lsr	r18
    663c:	26 95       	lsr	r18
    663e:	26 95       	lsr	r18
    6640:	2f 70       	andi	r18, 0x0F	; 15
    6642:	30 e0       	ldi	r19, 0x00	; 0
    6644:	21 30       	cpi	r18, 0x01	; 1
    6646:	31 05       	cpc	r19, r1
    6648:	09 f4       	brne	.+2      	; 0x664c <menu_handleLoadSaveMenu+0xdc>
    664a:	3e c0       	rjmp	.+124    	; 0x66c8 <menu_handleLoadSaveMenu+0x158>
    664c:	22 30       	cpi	r18, 0x02	; 2
    664e:	31 05       	cpc	r19, r1
    6650:	24 f4       	brge	.+8      	; 0x665a <menu_handleLoadSaveMenu+0xea>
    6652:	21 15       	cp	r18, r1
    6654:	31 05       	cpc	r19, r1
    6656:	31 f0       	breq	.+12     	; 0x6664 <menu_handleLoadSaveMenu+0xf4>
    6658:	f3 c0       	rjmp	.+486    	; 0x6840 <menu_handleLoadSaveMenu+0x2d0>
    665a:	2a 30       	cpi	r18, 0x0A	; 10
    665c:	31 05       	cpc	r19, r1
    665e:	0c f0       	brlt	.+2      	; 0x6662 <menu_handleLoadSaveMenu+0xf2>
    6660:	ef c0       	rjmp	.+478    	; 0x6840 <menu_handleLoadSaveMenu+0x2d0>
    6662:	71 c0       	rjmp	.+226    	; 0x6746 <menu_handleLoadSaveMenu+0x1d6>
    6664:	17 ff       	sbrs	r17, 7
    6666:	08 c0       	rjmp	.+16     	; 0x6678 <menu_handleLoadSaveMenu+0x108>
    6668:	80 91 41 02 	lds	r24, 0x0241
    666c:	87 70       	andi	r24, 0x07	; 7
    666e:	a9 f0       	breq	.+42     	; 0x669a <menu_handleLoadSaveMenu+0x12a>
    6670:	90 91 41 02 	lds	r25, 0x0241
    6674:	99 5f       	subi	r25, 0xF9	; 249
    6676:	0a c0       	rjmp	.+20     	; 0x668c <menu_handleLoadSaveMenu+0x11c>
    6678:	11 23       	and	r17, r17
    667a:	79 f0       	breq	.+30     	; 0x669a <menu_handleLoadSaveMenu+0x12a>
    667c:	80 91 41 02 	lds	r24, 0x0241
    6680:	87 70       	andi	r24, 0x07	; 7
    6682:	83 30       	cpi	r24, 0x03	; 3
    6684:	51 f0       	breq	.+20     	; 0x669a <menu_handleLoadSaveMenu+0x12a>
    6686:	90 91 41 02 	lds	r25, 0x0241
    668a:	9f 5f       	subi	r25, 0xFF	; 255
    668c:	97 70       	andi	r25, 0x07	; 7
    668e:	80 91 41 02 	lds	r24, 0x0241
    6692:	88 7f       	andi	r24, 0xF8	; 248
    6694:	89 2b       	or	r24, r25
    6696:	80 93 41 02 	sts	0x0241, r24
    669a:	80 91 41 02 	lds	r24, 0x0241
    669e:	87 70       	andi	r24, 0x07	; 7
    66a0:	90 e0       	ldi	r25, 0x00	; 0
    66a2:	81 30       	cpi	r24, 0x01	; 1
    66a4:	91 05       	cpc	r25, r1
    66a6:	31 f0       	breq	.+12     	; 0x66b4 <menu_handleLoadSaveMenu+0x144>
    66a8:	82 30       	cpi	r24, 0x02	; 2
    66aa:	91 05       	cpc	r25, r1
    66ac:	41 f0       	breq	.+16     	; 0x66be <menu_handleLoadSaveMenu+0x14e>
    66ae:	00 97       	sbiw	r24, 0x00	; 0
    66b0:	31 f0       	breq	.+12     	; 0x66be <menu_handleLoadSaveMenu+0x14e>
    66b2:	c4 c0       	rjmp	.+392    	; 0x683c <menu_handleLoadSaveMenu+0x2cc>
    66b4:	80 91 40 02 	lds	r24, 0x0240
    66b8:	0e 94 65 3b 	call	0x76ca	; 0x76ca <preset_getPatternName>
    66bc:	bf c0       	rjmp	.+382    	; 0x683c <menu_handleLoadSaveMenu+0x2cc>
    66be:	80 91 40 02 	lds	r24, 0x0240
    66c2:	0e 94 c0 3b 	call	0x7780	; 0x7780 <preset_getDrumsetName>
    66c6:	ba c0       	rjmp	.+372    	; 0x683c <menu_handleLoadSaveMenu+0x2cc>
    66c8:	17 ff       	sbrs	r17, 7
    66ca:	05 c0       	rjmp	.+10     	; 0x66d6 <menu_handleLoadSaveMenu+0x166>
    66cc:	80 91 40 02 	lds	r24, 0x0240
    66d0:	88 23       	and	r24, r24
    66d2:	69 f0       	breq	.+26     	; 0x66ee <menu_handleLoadSaveMenu+0x17e>
    66d4:	07 c0       	rjmp	.+14     	; 0x66e4 <menu_handleLoadSaveMenu+0x174>
    66d6:	11 23       	and	r17, r17
    66d8:	09 f4       	brne	.+2      	; 0x66dc <menu_handleLoadSaveMenu+0x16c>
    66da:	b2 c0       	rjmp	.+356    	; 0x6840 <menu_handleLoadSaveMenu+0x2d0>
    66dc:	80 91 40 02 	lds	r24, 0x0240
    66e0:	8e 37       	cpi	r24, 0x7E	; 126
    66e2:	28 f4       	brcc	.+10     	; 0x66ee <menu_handleLoadSaveMenu+0x17e>
    66e4:	80 91 40 02 	lds	r24, 0x0240
    66e8:	81 0f       	add	r24, r17
    66ea:	80 93 40 02 	sts	0x0240, r24
    66ee:	80 91 3b 02 	lds	r24, 0x023B
    66f2:	88 30       	cpi	r24, 0x08	; 8
    66f4:	01 f5       	brne	.+64     	; 0x6736 <menu_handleLoadSaveMenu+0x1c6>
    66f6:	80 91 41 02 	lds	r24, 0x0241
    66fa:	87 70       	andi	r24, 0x07	; 7
    66fc:	90 e0       	ldi	r25, 0x00	; 0
    66fe:	81 30       	cpi	r24, 0x01	; 1
    6700:	91 05       	cpc	r25, r1
    6702:	31 f0       	breq	.+12     	; 0x6710 <menu_handleLoadSaveMenu+0x1a0>
    6704:	82 30       	cpi	r24, 0x02	; 2
    6706:	91 05       	cpc	r25, r1
    6708:	61 f0       	breq	.+24     	; 0x6722 <menu_handleLoadSaveMenu+0x1b2>
    670a:	00 97       	sbiw	r24, 0x00	; 0
    670c:	31 f0       	breq	.+12     	; 0x671a <menu_handleLoadSaveMenu+0x1aa>
    670e:	98 c0       	rjmp	.+304    	; 0x6840 <menu_handleLoadSaveMenu+0x2d0>
    6710:	80 91 40 02 	lds	r24, 0x0240
    6714:	0e 94 65 3b 	call	0x76ca	; 0x76ca <preset_getPatternName>
    6718:	93 c0       	rjmp	.+294    	; 0x6840 <menu_handleLoadSaveMenu+0x2d0>
    671a:	80 91 40 02 	lds	r24, 0x0240
    671e:	60 e0       	ldi	r22, 0x00	; 0
    6720:	03 c0       	rjmp	.+6      	; 0x6728 <menu_handleLoadSaveMenu+0x1b8>
    6722:	80 91 40 02 	lds	r24, 0x0240
    6726:	61 e0       	ldi	r22, 0x01	; 1
    6728:	0e 94 3e 40 	call	0x807c	; 0x807c <preset_loadDrumset>
    672c:	80 91 40 02 	lds	r24, 0x0240
    6730:	0e 94 c0 3b 	call	0x7780	; 0x7780 <preset_getDrumsetName>
    6734:	85 c0       	rjmp	.+266    	; 0x6840 <menu_handleLoadSaveMenu+0x2d0>
    6736:	80 91 40 02 	lds	r24, 0x0240
    673a:	60 91 41 02 	lds	r22, 0x0241
    673e:	67 70       	andi	r22, 0x07	; 7
    6740:	0e 94 1b 3c 	call	0x7836	; 0x7836 <preset_loadName>
    6744:	7d c0       	rjmp	.+250    	; 0x6840 <menu_handleLoadSaveMenu+0x2d0>
    6746:	e0 91 41 02 	lds	r30, 0x0241
    674a:	e6 95       	lsr	r30
    674c:	e6 95       	lsr	r30
    674e:	e6 95       	lsr	r30
    6750:	ef 70       	andi	r30, 0x0F	; 15
    6752:	f0 e0       	ldi	r31, 0x00	; 0
    6754:	ef 56       	subi	r30, 0x6F	; 111
    6756:	f2 4f       	sbci	r31, 0xF2	; 242
    6758:	80 81       	ld	r24, Z
    675a:	81 0f       	add	r24, r17
    675c:	80 83       	st	Z, r24
    675e:	70 c0       	rjmp	.+224    	; 0x6840 <menu_handleLoadSaveMenu+0x2d0>
    6760:	17 ff       	sbrs	r17, 7
    6762:	26 c0       	rjmp	.+76     	; 0x67b0 <menu_handleLoadSaveMenu+0x240>
    6764:	80 91 41 02 	lds	r24, 0x0241
    6768:	88 77       	andi	r24, 0x78	; 120
    676a:	09 f4       	brne	.+2      	; 0x676e <menu_handleLoadSaveMenu+0x1fe>
    676c:	67 c0       	rjmp	.+206    	; 0x683c <menu_handleLoadSaveMenu+0x2cc>
    676e:	80 91 41 02 	lds	r24, 0x0241
    6772:	86 95       	lsr	r24
    6774:	86 95       	lsr	r24
    6776:	86 95       	lsr	r24
    6778:	81 5f       	subi	r24, 0xF1	; 241
    677a:	8f 70       	andi	r24, 0x0F	; 15
    677c:	88 0f       	add	r24, r24
    677e:	88 0f       	add	r24, r24
    6780:	88 0f       	add	r24, r24
    6782:	90 91 41 02 	lds	r25, 0x0241
    6786:	97 78       	andi	r25, 0x87	; 135
    6788:	98 2b       	or	r25, r24
    678a:	90 93 41 02 	sts	0x0241, r25
    678e:	80 91 3b 02 	lds	r24, 0x023B
    6792:	88 30       	cpi	r24, 0x08	; 8
    6794:	09 f0       	breq	.+2      	; 0x6798 <menu_handleLoadSaveMenu+0x228>
    6796:	52 c0       	rjmp	.+164    	; 0x683c <menu_handleLoadSaveMenu+0x2cc>
    6798:	80 91 41 02 	lds	r24, 0x0241
    679c:	86 95       	lsr	r24
    679e:	86 95       	lsr	r24
    67a0:	86 95       	lsr	r24
    67a2:	8f 70       	andi	r24, 0x0F	; 15
    67a4:	90 e0       	ldi	r25, 0x00	; 0
    67a6:	82 30       	cpi	r24, 0x02	; 2
    67a8:	91 05       	cpc	r25, r1
    67aa:	0c f0       	brlt	.+2      	; 0x67ae <menu_handleLoadSaveMenu+0x23e>
    67ac:	41 c0       	rjmp	.+130    	; 0x6830 <menu_handleLoadSaveMenu+0x2c0>
    67ae:	46 c0       	rjmp	.+140    	; 0x683c <menu_handleLoadSaveMenu+0x2cc>
    67b0:	11 23       	and	r17, r17
    67b2:	09 f4       	brne	.+2      	; 0x67b6 <menu_handleLoadSaveMenu+0x246>
    67b4:	45 c0       	rjmp	.+138    	; 0x6840 <menu_handleLoadSaveMenu+0x2d0>
    67b6:	80 91 41 02 	lds	r24, 0x0241
    67ba:	86 95       	lsr	r24
    67bc:	86 95       	lsr	r24
    67be:	86 95       	lsr	r24
    67c0:	8f 70       	andi	r24, 0x0F	; 15
    67c2:	90 e0       	ldi	r25, 0x00	; 0
    67c4:	8a 30       	cpi	r24, 0x0A	; 10
    67c6:	91 05       	cpc	r25, r1
    67c8:	cc f5       	brge	.+114    	; 0x683c <menu_handleLoadSaveMenu+0x2cc>
    67ca:	80 91 41 02 	lds	r24, 0x0241
    67ce:	86 95       	lsr	r24
    67d0:	86 95       	lsr	r24
    67d2:	86 95       	lsr	r24
    67d4:	8f 5f       	subi	r24, 0xFF	; 255
    67d6:	8f 70       	andi	r24, 0x0F	; 15
    67d8:	88 0f       	add	r24, r24
    67da:	88 0f       	add	r24, r24
    67dc:	88 0f       	add	r24, r24
    67de:	90 91 41 02 	lds	r25, 0x0241
    67e2:	97 78       	andi	r25, 0x87	; 135
    67e4:	98 2b       	or	r25, r24
    67e6:	90 93 41 02 	sts	0x0241, r25
    67ea:	80 91 3b 02 	lds	r24, 0x023B
    67ee:	88 30       	cpi	r24, 0x08	; 8
    67f0:	29 f5       	brne	.+74     	; 0x683c <menu_handleLoadSaveMenu+0x2cc>
    67f2:	80 91 41 02 	lds	r24, 0x0241
    67f6:	86 95       	lsr	r24
    67f8:	86 95       	lsr	r24
    67fa:	86 95       	lsr	r24
    67fc:	8f 70       	andi	r24, 0x0F	; 15
    67fe:	90 e0       	ldi	r25, 0x00	; 0
    6800:	82 30       	cpi	r24, 0x02	; 2
    6802:	91 05       	cpc	r25, r1
    6804:	34 f0       	brlt	.+12     	; 0x6812 <menu_handleLoadSaveMenu+0x2a2>
    6806:	80 91 41 02 	lds	r24, 0x0241
    680a:	87 78       	andi	r24, 0x87	; 135
    680c:	80 65       	ori	r24, 0x50	; 80
    680e:	80 93 41 02 	sts	0x0241, r24
    6812:	80 91 41 02 	lds	r24, 0x0241
    6816:	87 70       	andi	r24, 0x07	; 7
    6818:	81 30       	cpi	r24, 0x01	; 1
    681a:	81 f0       	breq	.+32     	; 0x683c <menu_handleLoadSaveMenu+0x2cc>
    681c:	80 91 41 02 	lds	r24, 0x0241
    6820:	87 70       	andi	r24, 0x07	; 7
    6822:	83 30       	cpi	r24, 0x03	; 3
    6824:	59 f0       	breq	.+22     	; 0x683c <menu_handleLoadSaveMenu+0x2cc>
    6826:	80 91 41 02 	lds	r24, 0x0241
    682a:	88 77       	andi	r24, 0x78	; 120
    682c:	80 35       	cpi	r24, 0x50	; 80
    682e:	31 f4       	brne	.+12     	; 0x683c <menu_handleLoadSaveMenu+0x2cc>
    6830:	80 91 41 02 	lds	r24, 0x0241
    6834:	87 78       	andi	r24, 0x87	; 135
    6836:	88 60       	ori	r24, 0x08	; 8
    6838:	80 93 41 02 	sts	0x0241, r24
    683c:	0e 94 99 32 	call	0x6532	; 0x6532 <menu_repaintAll>
    6840:	1f 91       	pop	r17
    6842:	08 95       	ret

00006844 <menu_switchSubPage>:
    6844:	df 93       	push	r29
    6846:	cf 93       	push	r28
    6848:	0f 92       	push	r0
    684a:	cd b7       	in	r28, 0x3d	; 61
    684c:	de b7       	in	r29, 0x3e	; 62
    684e:	89 83       	std	Y+1, r24	; 0x01
    6850:	0e 94 c2 2a 	call	0x5584	; 0x5584 <lockPotentiometerFetch>
    6854:	90 91 3e 02 	lds	r25, 0x023E
    6858:	97 70       	andi	r25, 0x07	; 7
    685a:	90 93 3e 02 	sts	0x023E, r25
    685e:	20 91 3e 02 	lds	r18, 0x023E
    6862:	89 81       	ldd	r24, Y+1	; 0x01
    6864:	90 e0       	ldi	r25, 0x00	; 0
    6866:	87 70       	andi	r24, 0x07	; 7
    6868:	90 70       	andi	r25, 0x00	; 0
    686a:	63 e0       	ldi	r22, 0x03	; 3
    686c:	88 0f       	add	r24, r24
    686e:	99 1f       	adc	r25, r25
    6870:	6a 95       	dec	r22
    6872:	e1 f7       	brne	.-8      	; 0x686c <menu_switchSubPage+0x28>
    6874:	28 2b       	or	r18, r24
    6876:	20 93 3e 02 	sts	0x023E, r18
    687a:	0f 90       	pop	r0
    687c:	cf 91       	pop	r28
    687e:	df 91       	pop	r29
    6880:	08 95       	ret

00006882 <menu_resetActiveParameter>:
    6882:	80 91 3e 02 	lds	r24, 0x023E
    6886:	88 7f       	andi	r24, 0xF8	; 248
    6888:	80 93 3e 02 	sts	0x023E, r24
    688c:	08 95       	ret

0000688e <menu_getSubPage>:
    688e:	80 91 3e 02 	lds	r24, 0x023E
    6892:	86 95       	lsr	r24
    6894:	86 95       	lsr	r24
    6896:	86 95       	lsr	r24
    6898:	08 95       	ret

0000689a <menu_switchPage>:
    689a:	df 93       	push	r29
    689c:	cf 93       	push	r28
    689e:	0f 92       	push	r0
    68a0:	cd b7       	in	r28, 0x3d	; 61
    68a2:	de b7       	in	r29, 0x3e	; 62
    68a4:	89 83       	std	Y+1, r24	; 0x01
    68a6:	0e 94 41 34 	call	0x6882	; 0x6882 <menu_resetActiveParameter>
    68aa:	0e 94 ac 32 	call	0x6558	; 0x6558 <menu_resetSaveParameters>
    68ae:	0e 94 93 27 	call	0x4f26	; 0x4f26 <led_clearSequencerLeds>
    68b2:	89 81       	ldd	r24, Y+1	; 0x01
    68b4:	8c 30       	cpi	r24, 0x0C	; 12
    68b6:	28 f4       	brcc	.+10     	; 0x68c2 <menu_switchPage+0x28>
    68b8:	8a 30       	cpi	r24, 0x0A	; 10
    68ba:	28 f4       	brcc	.+10     	; 0x68c6 <menu_switchPage+0x2c>
    68bc:	88 30       	cpi	r24, 0x08	; 8
    68be:	c9 f4       	brne	.+50     	; 0x68f2 <menu_switchPage+0x58>
    68c0:	09 c0       	rjmp	.+18     	; 0x68d4 <menu_switchPage+0x3a>
    68c2:	8d 30       	cpi	r24, 0x0D	; 13
    68c4:	b1 f4       	brne	.+44     	; 0x68f2 <menu_switchPage+0x58>
    68c6:	80 93 3b 02 	sts	0x023B, r24
    68ca:	10 92 3f 02 	sts	0x023F, r1
    68ce:	0e 94 c2 2a 	call	0x5584	; 0x5584 <lockPotentiometerFetch>
    68d2:	25 c0       	rjmp	.+74     	; 0x691e <menu_switchPage+0x84>
    68d4:	90 91 3b 02 	lds	r25, 0x023B
    68d8:	98 30       	cpi	r25, 0x08	; 8
    68da:	09 f4       	brne	.+2      	; 0x68de <menu_switchPage+0x44>
    68dc:	89 e0       	ldi	r24, 0x09	; 9
    68de:	80 93 3b 02 	sts	0x023B, r24
    68e2:	80 91 40 02 	lds	r24, 0x0240
    68e6:	60 91 41 02 	lds	r22, 0x0241
    68ea:	67 70       	andi	r22, 0x07	; 7
    68ec:	0e 94 1b 3c 	call	0x7836	; 0x7836 <preset_loadName>
    68f0:	16 c0       	rjmp	.+44     	; 0x691e <menu_switchPage+0x84>
    68f2:	80 93 3b 02 	sts	0x023B, r24
    68f6:	87 30       	cpi	r24, 0x07	; 7
    68f8:	10 f4       	brcc	.+4      	; 0x68fe <menu_switchPage+0x64>
    68fa:	80 93 3c 02 	sts	0x023C, r24
    68fe:	10 92 3f 02 	sts	0x023F, r1
    6902:	0e 94 c2 2a 	call	0x5584	; 0x5584 <lockPotentiometerFetch>
    6906:	40 91 3c 02 	lds	r20, 0x023C
    690a:	42 95       	swap	r20
    690c:	40 7f       	andi	r20, 0xF0	; 240
    690e:	80 91 3a 02 	lds	r24, 0x023A
    6912:	87 70       	andi	r24, 0x07	; 7
    6914:	48 2b       	or	r20, r24
    6916:	81 eb       	ldi	r24, 0xB1	; 177
    6918:	63 e0       	ldi	r22, 0x03	; 3
    691a:	0e 94 90 0d 	call	0x1b20	; 0x1b20 <frontPanel_sendData>
    691e:	0e 94 99 32 	call	0x6532	; 0x6532 <menu_repaintAll>
    6922:	0f 90       	pop	r0
    6924:	cf 91       	pop	r28
    6926:	df 91       	pop	r29
    6928:	08 95       	ret

0000692a <menu_init>:
    692a:	0e 94 84 10 	call	0x2108	; 0x2108 <lcd_clear>
    692e:	0e 94 83 29 	call	0x5306	; 0x5306 <cc2Name_init>
    6932:	80 e1       	ldi	r24, 0x10	; 16
    6934:	80 93 61 09 	sts	0x0961, r24
    6938:	80 93 63 09 	sts	0x0963, r24
    693c:	ec e9       	ldi	r30, 0x9C	; 156
    693e:	f7 e0       	ldi	r31, 0x07	; 7
    6940:	81 e0       	ldi	r24, 0x01	; 1
    6942:	80 83       	st	Z, r24
    6944:	32 96       	adiw	r30, 0x02	; 2
    6946:	99 e0       	ldi	r25, 0x09	; 9
    6948:	ec 38       	cpi	r30, 0x8C	; 140
    694a:	f9 07       	cpc	r31, r25
    694c:	d1 f7       	brne	.-12     	; 0x6942 <menu_init+0x18>
    694e:	95 e0       	ldi	r25, 0x05	; 5
    6950:	90 93 78 09 	sts	0x0978, r25
    6954:	90 93 7a 09 	sts	0x097A, r25
    6958:	90 93 7c 09 	sts	0x097C, r25
    695c:	90 93 7e 09 	sts	0x097E, r25
    6960:	90 93 80 09 	sts	0x0980, r25
    6964:	90 93 82 09 	sts	0x0982, r25
    6968:	83 e3       	ldi	r24, 0x33	; 51
    696a:	80 93 4a 09 	sts	0x094A, r24
    696e:	80 93 4c 09 	sts	0x094C, r24
    6972:	80 93 4e 09 	sts	0x094E, r24
    6976:	80 93 50 09 	sts	0x0950, r24
    697a:	80 93 52 09 	sts	0x0952, r24
    697e:	80 93 54 09 	sts	0x0954, r24
    6982:	83 e2       	ldi	r24, 0x23	; 35
    6984:	80 93 9e 07 	sts	0x079E, r24
    6988:	80 93 a0 07 	sts	0x07A0, r24
    698c:	80 93 a2 07 	sts	0x07A2, r24
    6990:	80 93 a8 07 	sts	0x07A8, r24
    6994:	80 93 aa 07 	sts	0x07AA, r24
    6998:	80 93 a4 07 	sts	0x07A4, r24
    699c:	80 93 c4 07 	sts	0x07C4, r24
    69a0:	80 93 c6 07 	sts	0x07C6, r24
    69a4:	80 93 c8 07 	sts	0x07C8, r24
    69a8:	80 93 ca 07 	sts	0x07CA, r24
    69ac:	80 93 cc 07 	sts	0x07CC, r24
    69b0:	80 93 ce 07 	sts	0x07CE, r24
    69b4:	80 93 d0 07 	sts	0x07D0, r24
    69b8:	83 e1       	ldi	r24, 0x13	; 19
    69ba:	80 93 20 09 	sts	0x0920, r24
    69be:	80 93 22 09 	sts	0x0922, r24
    69c2:	80 93 24 09 	sts	0x0924, r24
    69c6:	80 93 1a 09 	sts	0x091A, r24
    69ca:	80 93 1c 09 	sts	0x091C, r24
    69ce:	80 93 1e 09 	sts	0x091E, r24
    69d2:	83 e5       	ldi	r24, 0x53	; 83
    69d4:	80 93 02 09 	sts	0x0902, r24
    69d8:	80 93 04 09 	sts	0x0904, r24
    69dc:	80 93 06 09 	sts	0x0906, r24
    69e0:	80 93 08 09 	sts	0x0908, r24
    69e4:	80 93 0a 09 	sts	0x090A, r24
    69e8:	80 93 0c 09 	sts	0x090C, r24
    69ec:	83 e6       	ldi	r24, 0x63	; 99
    69ee:	80 93 d2 08 	sts	0x08D2, r24
    69f2:	80 93 d4 08 	sts	0x08D4, r24
    69f6:	80 93 d6 08 	sts	0x08D6, r24
    69fa:	80 93 d8 08 	sts	0x08D8, r24
    69fe:	80 93 da 08 	sts	0x08DA, r24
    6a02:	80 93 dc 08 	sts	0x08DC, r24
    6a06:	83 e4       	ldi	r24, 0x43	; 67
    6a08:	80 93 56 09 	sts	0x0956, r24
    6a0c:	84 e0       	ldi	r24, 0x04	; 4
    6a0e:	80 93 60 09 	sts	0x0960, r24
    6a12:	80 93 ae 07 	sts	0x07AE, r24
    6a16:	80 93 b2 07 	sts	0x07B2, r24
    6a1a:	80 93 b6 07 	sts	0x07B6, r24
    6a1e:	80 93 ba 07 	sts	0x07BA, r24
    6a22:	80 93 be 07 	sts	0x07BE, r24
    6a26:	80 93 c2 07 	sts	0x07C2, r24
    6a2a:	80 93 58 08 	sts	0x0858, r24
    6a2e:	80 93 5a 08 	sts	0x085A, r24
    6a32:	80 93 5c 08 	sts	0x085C, r24
    6a36:	80 93 62 08 	sts	0x0862, r24
    6a3a:	80 93 64 08 	sts	0x0864, r24
    6a3e:	80 93 66 08 	sts	0x0866, r24
    6a42:	8b e0       	ldi	r24, 0x0B	; 11
    6a44:	80 93 68 09 	sts	0x0968, r24
    6a48:	80 93 6a 09 	sts	0x096A, r24
    6a4c:	8c e0       	ldi	r24, 0x0C	; 12
    6a4e:	80 93 66 09 	sts	0x0966, r24
    6a52:	10 92 76 09 	sts	0x0976, r1
    6a56:	87 e0       	ldi	r24, 0x07	; 7
    6a58:	80 93 a8 08 	sts	0x08A8, r24
    6a5c:	80 93 aa 08 	sts	0x08AA, r24
    6a60:	80 93 ac 08 	sts	0x08AC, r24
    6a64:	86 e0       	ldi	r24, 0x06	; 6
    6a66:	80 93 ae 08 	sts	0x08AE, r24
    6a6a:	80 93 b0 08 	sts	0x08B0, r24
    6a6e:	80 93 b2 08 	sts	0x08B2, r24
    6a72:	80 93 b4 08 	sts	0x08B4, r24
    6a76:	80 93 b6 08 	sts	0x08B6, r24
    6a7a:	80 93 b8 08 	sts	0x08B8, r24
    6a7e:	29 e0       	ldi	r18, 0x09	; 9
    6a80:	20 93 c6 08 	sts	0x08C6, r18
    6a84:	20 93 c8 08 	sts	0x08C8, r18
    6a88:	20 93 ca 08 	sts	0x08CA, r18
    6a8c:	20 93 cc 08 	sts	0x08CC, r18
    6a90:	20 93 ce 08 	sts	0x08CE, r18
    6a94:	20 93 d0 08 	sts	0x08D0, r18
    6a98:	90 93 62 09 	sts	0x0962, r25
    6a9c:	90 93 64 09 	sts	0x0964, r25
    6aa0:	28 e0       	ldi	r18, 0x08	; 8
    6aa2:	20 93 ea 08 	sts	0x08EA, r18
    6aa6:	20 93 ec 08 	sts	0x08EC, r18
    6aaa:	20 93 ee 08 	sts	0x08EE, r18
    6aae:	20 93 f0 08 	sts	0x08F0, r18
    6ab2:	20 93 f2 08 	sts	0x08F2, r18
    6ab6:	20 93 f4 08 	sts	0x08F4, r18
    6aba:	23 e7       	ldi	r18, 0x73	; 115
    6abc:	20 93 f6 08 	sts	0x08F6, r18
    6ac0:	20 93 f8 08 	sts	0x08F8, r18
    6ac4:	20 93 fa 08 	sts	0x08FA, r18
    6ac8:	20 93 fc 08 	sts	0x08FC, r18
    6acc:	20 93 fe 08 	sts	0x08FE, r18
    6ad0:	20 93 00 09 	sts	0x0900, r18
    6ad4:	23 e8       	ldi	r18, 0x83	; 131
    6ad6:	20 93 74 09 	sts	0x0974, r18
    6ada:	23 e9       	ldi	r18, 0x93	; 147
    6adc:	20 93 88 09 	sts	0x0988, r18
    6ae0:	2a e0       	ldi	r18, 0x0A	; 10
    6ae2:	20 93 de 08 	sts	0x08DE, r18
    6ae6:	20 93 e0 08 	sts	0x08E0, r18
    6aea:	20 93 e2 08 	sts	0x08E2, r18
    6aee:	20 93 e4 08 	sts	0x08E4, r18
    6af2:	20 93 e6 08 	sts	0x08E6, r18
    6af6:	20 93 e8 08 	sts	0x08E8, r18
    6afa:	90 93 8a 09 	sts	0x098A, r25
    6afe:	10 92 58 09 	sts	0x0958, r1
    6b02:	80 93 84 09 	sts	0x0984, r24
    6b06:	80 93 86 09 	sts	0x0986, r24
    6b0a:	eb e9       	ldi	r30, 0x9B	; 155
    6b0c:	f7 e0       	ldi	r31, 0x07	; 7
    6b0e:	10 82       	st	Z, r1
    6b10:	32 96       	adiw	r30, 0x02	; 2
    6b12:	89 e0       	ldi	r24, 0x09	; 9
    6b14:	eb 38       	cpi	r30, 0x8B	; 139
    6b16:	f8 07       	cpc	r31, r24
    6b18:	d1 f7       	brne	.-12     	; 0x6b0e <menu_init+0x1e4>
    6b1a:	88 e7       	ldi	r24, 0x78	; 120
    6b1c:	80 93 75 09 	sts	0x0975, r24
    6b20:	80 e0       	ldi	r24, 0x00	; 0
    6b22:	0e 94 4d 34 	call	0x689a	; 0x689a <menu_switchPage>
    6b26:	82 eb       	ldi	r24, 0xB2	; 178
    6b28:	65 e1       	ldi	r22, 0x15	; 21
    6b2a:	40 e0       	ldi	r20, 0x00	; 0
    6b2c:	0e 94 90 0d 	call	0x1b20	; 0x1b20 <frontPanel_sendData>
    6b30:	80 e0       	ldi	r24, 0x00	; 0
    6b32:	0e 94 1b 27 	call	0x4e36	; 0x4e36 <led_setActiveVoice>
    6b36:	0e 94 99 32 	call	0x6532	; 0x6532 <menu_repaintAll>
    6b3a:	08 95       	ret

00006b3c <menu_parseGlobalParam>:
    6b3c:	0f 93       	push	r16
    6b3e:	1f 93       	push	r17
    6b40:	16 2f       	mov	r17, r22
    6b42:	85 3e       	cpi	r24, 0xE5	; 229
    6b44:	09 f4       	brne	.+2      	; 0x6b48 <menu_parseGlobalParam+0xc>
    6b46:	5a c0       	rjmp	.+180    	; 0x6bfc <menu_parseGlobalParam+0xc0>
    6b48:	86 3e       	cpi	r24, 0xE6	; 230
    6b4a:	20 f5       	brcc	.+72     	; 0x6b94 <menu_parseGlobalParam+0x58>
    6b4c:	8f 3d       	cpi	r24, 0xDF	; 223
    6b4e:	09 f4       	brne	.+2      	; 0x6b52 <menu_parseGlobalParam+0x16>
    6b50:	d1 c0       	rjmp	.+418    	; 0x6cf4 <menu_parseGlobalParam+0x1b8>
    6b52:	80 3e       	cpi	r24, 0xE0	; 224
    6b54:	60 f4       	brcc	.+24     	; 0x6b6e <menu_parseGlobalParam+0x32>
    6b56:	8d 3d       	cpi	r24, 0xDD	; 221
    6b58:	09 f4       	brne	.+2      	; 0x6b5c <menu_parseGlobalParam+0x20>
    6b5a:	95 c0       	rjmp	.+298    	; 0x6c86 <menu_parseGlobalParam+0x14a>
    6b5c:	8e 3d       	cpi	r24, 0xDE	; 222
    6b5e:	08 f0       	brcs	.+2      	; 0x6b62 <menu_parseGlobalParam+0x26>
    6b60:	7c c0       	rjmp	.+248    	; 0x6c5a <menu_parseGlobalParam+0x11e>
    6b62:	48 2f       	mov	r20, r24
    6b64:	4c 56       	subi	r20, 0x6C	; 108
    6b66:	47 30       	cpi	r20, 0x07	; 7
    6b68:	08 f0       	brcs	.+2      	; 0x6b6c <menu_parseGlobalParam+0x30>
    6b6a:	d2 c0       	rjmp	.+420    	; 0x6d10 <menu_parseGlobalParam+0x1d4>
    6b6c:	85 c0       	rjmp	.+266    	; 0x6c78 <menu_parseGlobalParam+0x13c>
    6b6e:	82 3e       	cpi	r24, 0xE2	; 226
    6b70:	09 f4       	brne	.+2      	; 0x6b74 <menu_parseGlobalParam+0x38>
    6b72:	c6 c0       	rjmp	.+396    	; 0x6d00 <menu_parseGlobalParam+0x1c4>
    6b74:	83 3e       	cpi	r24, 0xE3	; 227
    6b76:	38 f4       	brcc	.+14     	; 0x6b86 <menu_parseGlobalParam+0x4a>
    6b78:	80 3e       	cpi	r24, 0xE0	; 224
    6b7a:	09 f4       	brne	.+2      	; 0x6b7e <menu_parseGlobalParam+0x42>
    6b7c:	c4 c0       	rjmp	.+392    	; 0x6d06 <menu_parseGlobalParam+0x1ca>
    6b7e:	81 3e       	cpi	r24, 0xE1	; 225
    6b80:	09 f0       	breq	.+2      	; 0x6b84 <menu_parseGlobalParam+0x48>
    6b82:	c6 c0       	rjmp	.+396    	; 0x6d10 <menu_parseGlobalParam+0x1d4>
    6b84:	ba c0       	rjmp	.+372    	; 0x6cfa <menu_parseGlobalParam+0x1be>
    6b86:	83 3e       	cpi	r24, 0xE3	; 227
    6b88:	09 f4       	brne	.+2      	; 0x6b8c <menu_parseGlobalParam+0x50>
    6b8a:	80 c0       	rjmp	.+256    	; 0x6c8c <menu_parseGlobalParam+0x150>
    6b8c:	84 3e       	cpi	r24, 0xE4	; 228
    6b8e:	09 f0       	breq	.+2      	; 0x6b92 <menu_parseGlobalParam+0x56>
    6b90:	bf c0       	rjmp	.+382    	; 0x6d10 <menu_parseGlobalParam+0x1d4>
    6b92:	99 c0       	rjmp	.+306    	; 0x6cc6 <menu_parseGlobalParam+0x18a>
    6b94:	8b 3e       	cpi	r24, 0xEB	; 235
    6b96:	09 f4       	brne	.+2      	; 0x6b9a <menu_parseGlobalParam+0x5e>
    6b98:	a7 c0       	rjmp	.+334    	; 0x6ce8 <menu_parseGlobalParam+0x1ac>
    6b9a:	8c 3e       	cpi	r24, 0xEC	; 236
    6b9c:	90 f4       	brcc	.+36     	; 0x6bc2 <menu_parseGlobalParam+0x86>
    6b9e:	88 3e       	cpi	r24, 0xE8	; 232
    6ba0:	09 f4       	brne	.+2      	; 0x6ba4 <menu_parseGlobalParam+0x68>
    6ba2:	4b c0       	rjmp	.+150    	; 0x6c3a <menu_parseGlobalParam+0xfe>
    6ba4:	89 3e       	cpi	r24, 0xE9	; 233
    6ba6:	30 f4       	brcc	.+12     	; 0x6bb4 <menu_parseGlobalParam+0x78>
    6ba8:	86 3e       	cpi	r24, 0xE6	; 230
    6baa:	59 f1       	breq	.+86     	; 0x6c02 <menu_parseGlobalParam+0xc6>
    6bac:	87 3e       	cpi	r24, 0xE7	; 231
    6bae:	09 f0       	breq	.+2      	; 0x6bb2 <menu_parseGlobalParam+0x76>
    6bb0:	af c0       	rjmp	.+350    	; 0x6d10 <menu_parseGlobalParam+0x1d4>
    6bb2:	35 c0       	rjmp	.+106    	; 0x6c1e <menu_parseGlobalParam+0xe2>
    6bb4:	89 3e       	cpi	r24, 0xE9	; 233
    6bb6:	09 f4       	brne	.+2      	; 0x6bba <menu_parseGlobalParam+0x7e>
    6bb8:	42 c0       	rjmp	.+132    	; 0x6c3e <menu_parseGlobalParam+0x102>
    6bba:	8a 3e       	cpi	r24, 0xEA	; 234
    6bbc:	09 f0       	breq	.+2      	; 0x6bc0 <menu_parseGlobalParam+0x84>
    6bbe:	a8 c0       	rjmp	.+336    	; 0x6d10 <menu_parseGlobalParam+0x1d4>
    6bc0:	1a c0       	rjmp	.+52     	; 0x6bf6 <menu_parseGlobalParam+0xba>
    6bc2:	84 3f       	cpi	r24, 0xF4	; 244
    6bc4:	09 f4       	brne	.+2      	; 0x6bc8 <menu_parseGlobalParam+0x8c>
    6bc6:	4d c0       	rjmp	.+154    	; 0x6c62 <menu_parseGlobalParam+0x126>
    6bc8:	85 3f       	cpi	r24, 0xF5	; 245
    6bca:	38 f4       	brcc	.+14     	; 0x6bda <menu_parseGlobalParam+0x9e>
    6bcc:	8c 3e       	cpi	r24, 0xEC	; 236
    6bce:	09 f4       	brne	.+2      	; 0x6bd2 <menu_parseGlobalParam+0x96>
    6bd0:	8e c0       	rjmp	.+284    	; 0x6cee <menu_parseGlobalParam+0x1b2>
    6bd2:	8d 3e       	cpi	r24, 0xED	; 237
    6bd4:	09 f0       	breq	.+2      	; 0x6bd8 <menu_parseGlobalParam+0x9c>
    6bd6:	9c c0       	rjmp	.+312    	; 0x6d10 <menu_parseGlobalParam+0x1d4>
    6bd8:	39 c0       	rjmp	.+114    	; 0x6c4c <menu_parseGlobalParam+0x110>
    6bda:	86 3f       	cpi	r24, 0xF6	; 246
    6bdc:	a1 f1       	breq	.+104    	; 0x6c46 <menu_parseGlobalParam+0x10a>
    6bde:	87 3f       	cpi	r24, 0xF7	; 247
    6be0:	09 f0       	breq	.+2      	; 0x6be4 <menu_parseGlobalParam+0xa8>
    6be2:	96 c0       	rjmp	.+300    	; 0x6d10 <menu_parseGlobalParam+0x1d4>
    6be4:	82 eb       	ldi	r24, 0xB2	; 178
    6be6:	65 e1       	ldi	r22, 0x15	; 21
    6be8:	40 91 3c 02 	lds	r20, 0x023C
    6bec:	0e 94 90 0d 	call	0x1b20	; 0x1b20 <frontPanel_sendData>
    6bf0:	82 eb       	ldi	r24, 0xB2	; 178
    6bf2:	66 e2       	ldi	r22, 0x26	; 38
    6bf4:	8a c0       	rjmp	.+276    	; 0x6d0a <menu_parseGlobalParam+0x1ce>
    6bf6:	82 eb       	ldi	r24, 0xB2	; 178
    6bf8:	65 e2       	ldi	r22, 0x25	; 37
    6bfa:	87 c0       	rjmp	.+270    	; 0x6d0a <menu_parseGlobalParam+0x1ce>
    6bfc:	82 eb       	ldi	r24, 0xB2	; 178
    6bfe:	63 e2       	ldi	r22, 0x23	; 35
    6c00:	84 c0       	rjmp	.+264    	; 0x6d0a <menu_parseGlobalParam+0x1ce>
    6c02:	82 eb       	ldi	r24, 0xB2	; 178
    6c04:	64 e2       	ldi	r22, 0x24	; 36
    6c06:	40 91 59 09 	lds	r20, 0x0959
    6c0a:	0e 94 90 0d 	call	0x1b20	; 0x1b20 <frontPanel_sendData>
    6c0e:	61 2f       	mov	r22, r17
    6c10:	66 1f       	adc	r22, r22
    6c12:	66 27       	eor	r22, r22
    6c14:	66 1f       	adc	r22, r22
    6c16:	41 2f       	mov	r20, r17
    6c18:	4f 77       	andi	r20, 0x7F	; 127
    6c1a:	8a eb       	ldi	r24, 0xBA	; 186
    6c1c:	77 c0       	rjmp	.+238    	; 0x6d0c <menu_parseGlobalParam+0x1d0>
    6c1e:	82 eb       	ldi	r24, 0xB2	; 178
    6c20:	64 e2       	ldi	r22, 0x24	; 36
    6c22:	40 91 59 09 	lds	r20, 0x0959
    6c26:	0e 94 90 0d 	call	0x1b20	; 0x1b20 <frontPanel_sendData>
    6c2a:	61 2f       	mov	r22, r17
    6c2c:	66 1f       	adc	r22, r22
    6c2e:	66 27       	eor	r22, r22
    6c30:	66 1f       	adc	r22, r22
    6c32:	41 2f       	mov	r20, r17
    6c34:	4f 77       	andi	r20, 0x7F	; 127
    6c36:	8b eb       	ldi	r24, 0xBB	; 187
    6c38:	69 c0       	rjmp	.+210    	; 0x6d0c <menu_parseGlobalParam+0x1d0>
    6c3a:	8c eb       	ldi	r24, 0xBC	; 188
    6c3c:	01 c0       	rjmp	.+2      	; 0x6c40 <menu_parseGlobalParam+0x104>
    6c3e:	8d eb       	ldi	r24, 0xBD	; 189
    6c40:	60 91 59 09 	lds	r22, 0x0959
    6c44:	62 c0       	rjmp	.+196    	; 0x6d0a <menu_parseGlobalParam+0x1ce>
    6c46:	82 eb       	ldi	r24, 0xB2	; 178
    6c48:	62 e2       	ldi	r22, 0x22	; 34
    6c4a:	5f c0       	rjmp	.+190    	; 0x6d0a <menu_parseGlobalParam+0x1ce>
    6c4c:	6f 77       	andi	r22, 0x7F	; 127
    6c4e:	41 2f       	mov	r20, r17
    6c50:	44 1f       	adc	r20, r20
    6c52:	44 27       	eor	r20, r20
    6c54:	44 1f       	adc	r20, r20
    6c56:	85 eb       	ldi	r24, 0xB5	; 181
    6c58:	59 c0       	rjmp	.+178    	; 0x6d0c <menu_parseGlobalParam+0x1d0>
    6c5a:	86 2f       	mov	r24, r22
    6c5c:	0e 94 e4 3f 	call	0x7fc8	; 0x7fc8 <preset_morph>
    6c60:	57 c0       	rjmp	.+174    	; 0x6d10 <menu_parseGlobalParam+0x1d4>
    6c62:	66 23       	and	r22, r22
    6c64:	31 f0       	breq	.+12     	; 0x6c72 <menu_parseGlobalParam+0x136>
    6c66:	80 91 ef 01 	lds	r24, 0x01EF
    6c6a:	80 61       	ori	r24, 0x10	; 16
    6c6c:	80 93 ef 01 	sts	0x01EF, r24
    6c70:	4f c0       	rjmp	.+158    	; 0x6d10 <menu_parseGlobalParam+0x1d4>
    6c72:	10 92 ef 01 	sts	0x01EF, r1
    6c76:	4c c0       	rjmp	.+152    	; 0x6d10 <menu_parseGlobalParam+0x1d4>
    6c78:	82 eb       	ldi	r24, 0xB2	; 178
    6c7a:	65 e1       	ldi	r22, 0x15	; 21
    6c7c:	0e 94 90 0d 	call	0x1b20	; 0x1b20 <frontPanel_sendData>
    6c80:	84 eb       	ldi	r24, 0xB4	; 180
    6c82:	63 e0       	ldi	r22, 0x03	; 3
    6c84:	42 c0       	rjmp	.+132    	; 0x6d0a <menu_parseGlobalParam+0x1ce>
    6c86:	82 eb       	ldi	r24, 0xB2	; 178
    6c88:	61 e1       	ldi	r22, 0x11	; 17
    6c8a:	3f c0       	rjmp	.+126    	; 0x6d0a <menu_parseGlobalParam+0x1ce>
    6c8c:	00 91 3a 02 	lds	r16, 0x023A
    6c90:	07 70       	andi	r16, 0x07	; 7
    6c92:	82 eb       	ldi	r24, 0xB2	; 178
    6c94:	65 e1       	ldi	r22, 0x15	; 21
    6c96:	40 91 3c 02 	lds	r20, 0x023C
    6c9a:	0e 94 90 0d 	call	0x1b20	; 0x1b20 <frontPanel_sendData>
    6c9e:	41 2f       	mov	r20, r17
    6ca0:	41 50       	subi	r20, 0x01	; 1
    6ca2:	44 0f       	add	r20, r20
    6ca4:	44 0f       	add	r20, r20
    6ca6:	44 0f       	add	r20, r20
    6ca8:	40 2b       	or	r20, r16
    6caa:	82 eb       	ldi	r24, 0xB2	; 178
    6cac:	67 e1       	ldi	r22, 0x17	; 23
    6cae:	0e 94 90 0d 	call	0x1b20	; 0x1b20 <frontPanel_sendData>
    6cb2:	40 91 63 09 	lds	r20, 0x0963
    6cb6:	41 50       	subi	r20, 0x01	; 1
    6cb8:	44 0f       	add	r20, r20
    6cba:	44 0f       	add	r20, r20
    6cbc:	44 0f       	add	r20, r20
    6cbe:	40 2b       	or	r20, r16
    6cc0:	82 eb       	ldi	r24, 0xB2	; 178
    6cc2:	68 e1       	ldi	r22, 0x18	; 24
    6cc4:	23 c0       	rjmp	.+70     	; 0x6d0c <menu_parseGlobalParam+0x1d0>
    6cc6:	11 50       	subi	r17, 0x01	; 1
    6cc8:	11 0f       	add	r17, r17
    6cca:	11 0f       	add	r17, r17
    6ccc:	11 0f       	add	r17, r17
    6cce:	80 91 3a 02 	lds	r24, 0x023A
    6cd2:	87 70       	andi	r24, 0x07	; 7
    6cd4:	18 2b       	or	r17, r24
    6cd6:	82 eb       	ldi	r24, 0xB2	; 178
    6cd8:	65 e1       	ldi	r22, 0x15	; 21
    6cda:	40 91 3c 02 	lds	r20, 0x023C
    6cde:	0e 94 90 0d 	call	0x1b20	; 0x1b20 <frontPanel_sendData>
    6ce2:	82 eb       	ldi	r24, 0xB2	; 178
    6ce4:	68 e1       	ldi	r22, 0x18	; 24
    6ce6:	11 c0       	rjmp	.+34     	; 0x6d0a <menu_parseGlobalParam+0x1ce>
    6ce8:	82 eb       	ldi	r24, 0xB2	; 178
    6cea:	6d e1       	ldi	r22, 0x1D	; 29
    6cec:	0e c0       	rjmp	.+28     	; 0x6d0a <menu_parseGlobalParam+0x1ce>
    6cee:	82 eb       	ldi	r24, 0xB2	; 178
    6cf0:	6e e1       	ldi	r22, 0x1E	; 30
    6cf2:	0b c0       	rjmp	.+22     	; 0x6d0a <menu_parseGlobalParam+0x1ce>
    6cf4:	82 eb       	ldi	r24, 0xB2	; 178
    6cf6:	6f e0       	ldi	r22, 0x0F	; 15
    6cf8:	08 c0       	rjmp	.+16     	; 0x6d0a <menu_parseGlobalParam+0x1ce>
    6cfa:	82 eb       	ldi	r24, 0xB2	; 178
    6cfc:	64 e1       	ldi	r22, 0x14	; 20
    6cfe:	05 c0       	rjmp	.+10     	; 0x6d0a <menu_parseGlobalParam+0x1ce>
    6d00:	82 eb       	ldi	r24, 0xB2	; 178
    6d02:	63 e1       	ldi	r22, 0x13	; 19
    6d04:	02 c0       	rjmp	.+4      	; 0x6d0a <menu_parseGlobalParam+0x1ce>
    6d06:	82 eb       	ldi	r24, 0xB2	; 178
    6d08:	62 e1       	ldi	r22, 0x12	; 18
    6d0a:	41 2f       	mov	r20, r17
    6d0c:	0e 94 90 0d 	call	0x1b20	; 0x1b20 <frontPanel_sendData>
    6d10:	1f 91       	pop	r17
    6d12:	0f 91       	pop	r16
    6d14:	08 95       	ret

00006d16 <menu_sendAllGlobals>:
    6d16:	0f 93       	push	r16
    6d18:	1f 93       	push	r17
    6d1a:	cf 93       	push	r28
    6d1c:	df 93       	push	r29
    6d1e:	05 e7       	ldi	r16, 0x75	; 117
    6d20:	19 e0       	ldi	r17, 0x09	; 9
    6d22:	cd ee       	ldi	r28, 0xED	; 237
    6d24:	d0 e0       	ldi	r29, 0x00	; 0
    6d26:	8c 2f       	mov	r24, r28
    6d28:	f8 01       	movw	r30, r16
    6d2a:	60 81       	ld	r22, Z
    6d2c:	0e 94 9e 35 	call	0x6b3c	; 0x6b3c <menu_parseGlobalParam>
    6d30:	21 96       	adiw	r28, 0x01	; 1
    6d32:	0e 5f       	subi	r16, 0xFE	; 254
    6d34:	1f 4f       	sbci	r17, 0xFF	; 255
    6d36:	c8 3f       	cpi	r28, 0xF8	; 248
    6d38:	d1 05       	cpc	r29, r1
    6d3a:	a9 f7       	brne	.-22     	; 0x6d26 <menu_sendAllGlobals+0x10>
    6d3c:	df 91       	pop	r29
    6d3e:	cf 91       	pop	r28
    6d40:	1f 91       	pop	r17
    6d42:	0f 91       	pop	r16
    6d44:	08 95       	ret

00006d46 <menu_parseEncoder>:
    6d46:	0f 93       	push	r16
    6d48:	1f 93       	push	r17
    6d4a:	cf 93       	push	r28
    6d4c:	df 93       	push	r29
    6d4e:	16 2f       	mov	r17, r22
    6d50:	08 2f       	mov	r16, r24
    6d52:	01 95       	neg	r16
    6d54:	11 f0       	breq	.+4      	; 0x6d5a <menu_parseEncoder+0x14>
    6d56:	0e 94 c8 39 	call	0x7390	; 0x7390 <screensaver_touch>
    6d5a:	80 91 3b 02 	lds	r24, 0x023B
    6d5e:	88 50       	subi	r24, 0x08	; 8
    6d60:	82 30       	cpi	r24, 0x02	; 2
    6d62:	28 f4       	brcc	.+10     	; 0x6d6e <menu_parseEncoder+0x28>
    6d64:	80 2f       	mov	r24, r16
    6d66:	61 2f       	mov	r22, r17
    6d68:	0e 94 b8 32 	call	0x6570	; 0x6570 <menu_handleLoadSaveMenu>
    6d6c:	7c c1       	rjmp	.+760    	; 0x7066 <menu_parseEncoder+0x320>
    6d6e:	00 23       	and	r16, r16
    6d70:	09 f4       	brne	.+2      	; 0x6d74 <menu_parseEncoder+0x2e>
    6d72:	79 c1       	rjmp	.+754    	; 0x7066 <menu_parseEncoder+0x320>
    6d74:	11 30       	cpi	r17, 0x01	; 1
    6d76:	61 f4       	brne	.+24     	; 0x6d90 <menu_parseEncoder+0x4a>
    6d78:	80 91 42 02 	lds	r24, 0x0242
    6d7c:	81 30       	cpi	r24, 0x01	; 1
    6d7e:	41 f0       	breq	.+16     	; 0x6d90 <menu_parseEncoder+0x4a>
    6d80:	80 91 3f 02 	lds	r24, 0x023F
    6d84:	21 2f       	mov	r18, r17
    6d86:	28 1b       	sub	r18, r24
    6d88:	20 93 3f 02 	sts	0x023F, r18
    6d8c:	0e 94 99 32 	call	0x6532	; 0x6532 <menu_repaintAll>
    6d90:	0e 94 58 2a 	call	0x54b0	; 0x54b0 <copyClear_isClearModeActive>
    6d94:	88 23       	and	r24, r24
    6d96:	71 f0       	breq	.+28     	; 0x6db4 <menu_parseEncoder+0x6e>
    6d98:	0e 94 5f 2a 	call	0x54be	; 0x54be <copyClear_getClearTarget>
    6d9c:	07 ff       	sbrs	r16, 7
    6d9e:	04 c0       	rjmp	.+8      	; 0x6da8 <menu_parseEncoder+0x62>
    6da0:	88 23       	and	r24, r24
    6da2:	29 f0       	breq	.+10     	; 0x6dae <menu_parseEncoder+0x68>
    6da4:	81 50       	subi	r24, 0x01	; 1
    6da6:	03 c0       	rjmp	.+6      	; 0x6dae <menu_parseEncoder+0x68>
    6da8:	83 30       	cpi	r24, 0x03	; 3
    6daa:	09 f0       	breq	.+2      	; 0x6dae <menu_parseEncoder+0x68>
    6dac:	8f 5f       	subi	r24, 0xFF	; 255
    6dae:	0e 94 95 2a 	call	0x552a	; 0x552a <copyClear_setClearTarget>
    6db2:	5d c1       	rjmp	.+698    	; 0x706e <menu_parseEncoder+0x328>
    6db4:	80 91 3f 02 	lds	r24, 0x023F
    6db8:	20 91 3b 02 	lds	r18, 0x023B
    6dbc:	88 23       	and	r24, r24
    6dbe:	09 f4       	brne	.+2      	; 0x6dc2 <menu_parseEncoder+0x7c>
    6dc0:	03 c1       	rjmp	.+518    	; 0x6fc8 <menu_parseEncoder+0x282>
    6dc2:	80 91 3e 02 	lds	r24, 0x023E
    6dc6:	90 91 3e 02 	lds	r25, 0x023E
    6dca:	96 95       	lsr	r25
    6dcc:	96 95       	lsr	r25
    6dce:	96 95       	lsr	r25
    6dd0:	e2 2f       	mov	r30, r18
    6dd2:	f0 e0       	ldi	r31, 0x00	; 0
    6dd4:	23 e0       	ldi	r18, 0x03	; 3
    6dd6:	ee 0f       	add	r30, r30
    6dd8:	ff 1f       	adc	r31, r31
    6dda:	2a 95       	dec	r18
    6ddc:	e1 f7       	brne	.-8      	; 0x6dd6 <menu_parseEncoder+0x90>
    6dde:	e9 0f       	add	r30, r25
    6de0:	f1 1d       	adc	r31, r1
    6de2:	94 e0       	ldi	r25, 0x04	; 4
    6de4:	ee 0f       	add	r30, r30
    6de6:	ff 1f       	adc	r31, r31
    6de8:	9a 95       	dec	r25
    6dea:	e1 f7       	brne	.-8      	; 0x6de4 <menu_parseEncoder+0x9e>
    6dec:	e0 51       	subi	r30, 0x10	; 16
    6dee:	ff 4f       	sbci	r31, 0xFF	; 255
    6df0:	87 70       	andi	r24, 0x07	; 7
    6df2:	e8 0f       	add	r30, r24
    6df4:	f1 1d       	adc	r31, r1
    6df6:	64 91       	lpm	r22, Z+
    6df8:	c6 2f       	mov	r28, r22
    6dfa:	d0 e0       	ldi	r29, 0x00	; 0
    6dfc:	07 ff       	sbrs	r16, 7
    6dfe:	08 c0       	rjmp	.+16     	; 0x6e10 <menu_parseEncoder+0xca>
    6e00:	de 01       	movw	r26, r28
    6e02:	aa 0f       	add	r26, r26
    6e04:	bb 1f       	adc	r27, r27
    6e06:	a5 56       	subi	r26, 0x65	; 101
    6e08:	b8 4f       	sbci	r27, 0xF8	; 248
    6e0a:	8c 91       	ld	r24, X
    6e0c:	88 23       	and	r24, r24
    6e0e:	41 f0       	breq	.+16     	; 0x6e20 <menu_parseEncoder+0xda>
    6e10:	de 01       	movw	r26, r28
    6e12:	aa 0f       	add	r26, r26
    6e14:	bb 1f       	adc	r27, r27
    6e16:	a5 56       	subi	r26, 0x65	; 101
    6e18:	b8 4f       	sbci	r27, 0xF8	; 248
    6e1a:	8c 91       	ld	r24, X
    6e1c:	80 0f       	add	r24, r16
    6e1e:	8c 93       	st	X, r24
    6e20:	ae 01       	movw	r20, r28
    6e22:	44 0f       	add	r20, r20
    6e24:	55 1f       	adc	r21, r21
    6e26:	da 01       	movw	r26, r20
    6e28:	a5 56       	subi	r26, 0x65	; 101
    6e2a:	b8 4f       	sbci	r27, 0xF8	; 248
    6e2c:	11 96       	adiw	r26, 0x01	; 1
    6e2e:	8c 91       	ld	r24, X
    6e30:	11 97       	sbiw	r26, 0x01	; 1
    6e32:	28 2f       	mov	r18, r24
    6e34:	30 e0       	ldi	r19, 0x00	; 0
    6e36:	2f 70       	andi	r18, 0x0F	; 15
    6e38:	30 70       	andi	r19, 0x00	; 0
    6e3a:	28 30       	cpi	r18, 0x08	; 8
    6e3c:	31 05       	cpc	r19, r1
    6e3e:	8c f4       	brge	.+34     	; 0x6e62 <menu_parseEncoder+0x11c>
    6e40:	26 30       	cpi	r18, 0x06	; 6
    6e42:	31 05       	cpc	r19, r1
    6e44:	0c f0       	brlt	.+2      	; 0x6e48 <menu_parseEncoder+0x102>
    6e46:	84 c0       	rjmp	.+264    	; 0x6f50 <menu_parseEncoder+0x20a>
    6e48:	23 30       	cpi	r18, 0x03	; 3
    6e4a:	31 05       	cpc	r19, r1
    6e4c:	09 f4       	brne	.+2      	; 0x6e50 <menu_parseEncoder+0x10a>
    6e4e:	89 c0       	rjmp	.+274    	; 0x6f62 <menu_parseEncoder+0x21c>
    6e50:	25 30       	cpi	r18, 0x05	; 5
    6e52:	31 05       	cpc	r19, r1
    6e54:	09 f4       	brne	.+2      	; 0x6e58 <menu_parseEncoder+0x112>
    6e56:	73 c0       	rjmp	.+230    	; 0x6f3e <menu_parseEncoder+0x1f8>
    6e58:	21 15       	cp	r18, r1
    6e5a:	31 05       	cpc	r19, r1
    6e5c:	09 f4       	brne	.+2      	; 0x6e60 <menu_parseEncoder+0x11a>
    6e5e:	97 c0       	rjmp	.+302    	; 0x6f8e <menu_parseEncoder+0x248>
    6e60:	5a c0       	rjmp	.+180    	; 0x6f16 <menu_parseEncoder+0x1d0>
    6e62:	2a 30       	cpi	r18, 0x0A	; 10
    6e64:	31 05       	cpc	r19, r1
    6e66:	09 f4       	brne	.+2      	; 0x6e6a <menu_parseEncoder+0x124>
    6e68:	63 c0       	rjmp	.+198    	; 0x6f30 <menu_parseEncoder+0x1ea>
    6e6a:	2b 30       	cpi	r18, 0x0B	; 11
    6e6c:	31 05       	cpc	r19, r1
    6e6e:	44 f4       	brge	.+16     	; 0x6e80 <menu_parseEncoder+0x13a>
    6e70:	28 30       	cpi	r18, 0x08	; 8
    6e72:	31 05       	cpc	r19, r1
    6e74:	59 f1       	breq	.+86     	; 0x6ecc <menu_parseEncoder+0x186>
    6e76:	29 30       	cpi	r18, 0x09	; 9
    6e78:	31 05       	cpc	r19, r1
    6e7a:	09 f0       	breq	.+2      	; 0x6e7e <menu_parseEncoder+0x138>
    6e7c:	4c c0       	rjmp	.+152    	; 0x6f16 <menu_parseEncoder+0x1d0>
    6e7e:	09 c0       	rjmp	.+18     	; 0x6e92 <menu_parseEncoder+0x14c>
    6e80:	2b 30       	cpi	r18, 0x0B	; 11
    6e82:	31 05       	cpc	r19, r1
    6e84:	09 f4       	brne	.+2      	; 0x6e88 <menu_parseEncoder+0x142>
    6e86:	4f c0       	rjmp	.+158    	; 0x6f26 <menu_parseEncoder+0x1e0>
    6e88:	2c 30       	cpi	r18, 0x0C	; 12
    6e8a:	31 05       	cpc	r19, r1
    6e8c:	09 f0       	breq	.+2      	; 0x6e90 <menu_parseEncoder+0x14a>
    6e8e:	43 c0       	rjmp	.+134    	; 0x6f16 <menu_parseEncoder+0x1d0>
    6e90:	5f c0       	rjmp	.+190    	; 0x6f50 <menu_parseEncoder+0x20a>
    6e92:	8c 91       	ld	r24, X
    6e94:	80 34       	cpi	r24, 0x40	; 64
    6e96:	10 f0       	brcs	.+4      	; 0x6e9c <menu_parseEncoder+0x156>
    6e98:	8f e3       	ldi	r24, 0x3F	; 63
    6e9a:	8c 93       	st	X, r24
    6e9c:	de 01       	movw	r26, r28
    6e9e:	aa 0f       	add	r26, r26
    6ea0:	bb 1f       	adc	r27, r27
    6ea2:	a5 56       	subi	r26, 0x65	; 101
    6ea4:	b8 4f       	sbci	r27, 0xF8	; 248
    6ea6:	65 59       	subi	r22, 0x95	; 149
    6ea8:	8c 91       	ld	r24, X
    6eaa:	0e 94 ca 2a 	call	0x5594	; 0x5594 <getModTargetValue>
    6eae:	68 2f       	mov	r22, r24
    6eb0:	66 1f       	adc	r22, r22
    6eb2:	66 27       	eor	r22, r22
    6eb4:	66 1f       	adc	r22, r22
    6eb6:	c5 59       	subi	r28, 0x95	; 149
    6eb8:	d0 40       	sbci	r29, 0x00	; 0
    6eba:	cf 73       	andi	r28, 0x3F	; 63
    6ebc:	d0 70       	andi	r29, 0x00	; 0
    6ebe:	cc 0f       	add	r28, r28
    6ec0:	dd 1f       	adc	r29, r29
    6ec2:	6c 2b       	or	r22, r28
    6ec4:	48 2f       	mov	r20, r24
    6ec6:	4f 77       	andi	r20, 0x7F	; 127
    6ec8:	88 eb       	ldi	r24, 0xB8	; 184
    6eca:	22 c0       	rjmp	.+68     	; 0x6f10 <menu_parseEncoder+0x1ca>
    6ecc:	8c 91       	ld	r24, X
    6ece:	80 34       	cpi	r24, 0x40	; 64
    6ed0:	10 f0       	brcs	.+4      	; 0x6ed6 <menu_parseEncoder+0x190>
    6ed2:	8f e3       	ldi	r24, 0x3F	; 63
    6ed4:	8c 93       	st	X, r24
    6ed6:	fe 01       	movw	r30, r28
    6ed8:	ee 0f       	add	r30, r30
    6eda:	ff 1f       	adc	r31, r31
    6edc:	e5 56       	subi	r30, 0x65	; 101
    6ede:	f8 4f       	sbci	r31, 0xF8	; 248
    6ee0:	de 01       	movw	r26, r28
    6ee2:	aa 0f       	add	r26, r26
    6ee4:	bb 1f       	adc	r27, r27
    6ee6:	a1 57       	subi	r26, 0x71	; 113
    6ee8:	b8 4f       	sbci	r27, 0xF8	; 248
    6eea:	6c 91       	ld	r22, X
    6eec:	61 50       	subi	r22, 0x01	; 1
    6eee:	80 81       	ld	r24, Z
    6ef0:	0e 94 ca 2a 	call	0x5594	; 0x5594 <getModTargetValue>
    6ef4:	68 2f       	mov	r22, r24
    6ef6:	66 1f       	adc	r22, r22
    6ef8:	66 27       	eor	r22, r22
    6efa:	66 1f       	adc	r22, r22
    6efc:	c7 5a       	subi	r28, 0xA7	; 167
    6efe:	d0 40       	sbci	r29, 0x00	; 0
    6f00:	cf 73       	andi	r28, 0x3F	; 63
    6f02:	d0 70       	andi	r29, 0x00	; 0
    6f04:	cc 0f       	add	r28, r28
    6f06:	dd 1f       	adc	r29, r29
    6f08:	6c 2b       	or	r22, r28
    6f0a:	48 2f       	mov	r20, r24
    6f0c:	4f 77       	andi	r20, 0x7F	; 127
    6f0e:	87 eb       	ldi	r24, 0xB7	; 183
    6f10:	0e 94 90 0d 	call	0x1b20	; 0x1b20 <frontPanel_sendData>
    6f14:	ac c0       	rjmp	.+344    	; 0x706e <menu_parseEncoder+0x328>
    6f16:	fa 01       	movw	r30, r20
    6f18:	e5 56       	subi	r30, 0x65	; 101
    6f1a:	f8 4f       	sbci	r31, 0xF8	; 248
    6f1c:	80 81       	ld	r24, Z
    6f1e:	87 ff       	sbrs	r24, 7
    6f20:	36 c0       	rjmp	.+108    	; 0x6f8e <menu_parseEncoder+0x248>
    6f22:	8f e7       	ldi	r24, 0x7F	; 127
    6f24:	1c c0       	rjmp	.+56     	; 0x6f5e <menu_parseEncoder+0x218>
    6f26:	8c 91       	ld	r24, X
    6f28:	8d 3d       	cpi	r24, 0xDD	; 221
    6f2a:	88 f1       	brcs	.+98     	; 0x6f8e <menu_parseEncoder+0x248>
    6f2c:	8c ed       	ldi	r24, 0xDC	; 220
    6f2e:	2e c0       	rjmp	.+92     	; 0x6f8c <menu_parseEncoder+0x246>
    6f30:	8c 91       	ld	r24, X
    6f32:	88 23       	and	r24, r24
    6f34:	39 f0       	breq	.+14     	; 0x6f44 <menu_parseEncoder+0x1fe>
    6f36:	87 30       	cpi	r24, 0x07	; 7
    6f38:	50 f1       	brcs	.+84     	; 0x6f8e <menu_parseEncoder+0x248>
    6f3a:	86 e0       	ldi	r24, 0x06	; 6
    6f3c:	27 c0       	rjmp	.+78     	; 0x6f8c <menu_parseEncoder+0x246>
    6f3e:	8c 91       	ld	r24, X
    6f40:	88 23       	and	r24, r24
    6f42:	11 f4       	brne	.+4      	; 0x6f48 <menu_parseEncoder+0x202>
    6f44:	81 e0       	ldi	r24, 0x01	; 1
    6f46:	22 c0       	rjmp	.+68     	; 0x6f8c <menu_parseEncoder+0x246>
    6f48:	81 31       	cpi	r24, 0x11	; 17
    6f4a:	08 f1       	brcs	.+66     	; 0x6f8e <menu_parseEncoder+0x248>
    6f4c:	80 e1       	ldi	r24, 0x10	; 16
    6f4e:	1e c0       	rjmp	.+60     	; 0x6f8c <menu_parseEncoder+0x246>
    6f50:	fa 01       	movw	r30, r20
    6f52:	e5 56       	subi	r30, 0x65	; 101
    6f54:	f8 4f       	sbci	r31, 0xF8	; 248
    6f56:	80 81       	ld	r24, Z
    6f58:	82 30       	cpi	r24, 0x02	; 2
    6f5a:	c8 f0       	brcs	.+50     	; 0x6f8e <menu_parseEncoder+0x248>
    6f5c:	81 e0       	ldi	r24, 0x01	; 1
    6f5e:	80 83       	st	Z, r24
    6f60:	16 c0       	rjmp	.+44     	; 0x6f8e <menu_parseEncoder+0x248>
    6f62:	a8 2f       	mov	r26, r24
    6f64:	a2 95       	swap	r26
    6f66:	af 70       	andi	r26, 0x0F	; 15
    6f68:	a1 50       	subi	r26, 0x01	; 1
    6f6a:	a9 30       	cpi	r26, 0x09	; 9
    6f6c:	28 f4       	brcc	.+10     	; 0x6f78 <menu_parseEncoder+0x232>
    6f6e:	b0 e0       	ldi	r27, 0x00	; 0
    6f70:	a7 50       	subi	r26, 0x07	; 7
    6f72:	be 4f       	sbci	r27, 0xFE	; 254
    6f74:	8c 91       	ld	r24, X
    6f76:	01 c0       	rjmp	.+2      	; 0x6f7a <menu_parseEncoder+0x234>
    6f78:	80 e0       	ldi	r24, 0x00	; 0
    6f7a:	de 01       	movw	r26, r28
    6f7c:	aa 0f       	add	r26, r26
    6f7e:	bb 1f       	adc	r27, r27
    6f80:	a5 56       	subi	r26, 0x65	; 101
    6f82:	b8 4f       	sbci	r27, 0xF8	; 248
    6f84:	9c 91       	ld	r25, X
    6f86:	98 17       	cp	r25, r24
    6f88:	10 f0       	brcs	.+4      	; 0x6f8e <menu_parseEncoder+0x248>
    6f8a:	81 50       	subi	r24, 0x01	; 1
    6f8c:	8c 93       	st	X, r24
    6f8e:	67 fd       	sbrc	r22, 7
    6f90:	06 c0       	rjmp	.+12     	; 0x6f9e <menu_parseEncoder+0x258>
    6f92:	cc 0f       	add	r28, r28
    6f94:	dd 1f       	adc	r29, r29
    6f96:	c5 56       	subi	r28, 0x65	; 101
    6f98:	d8 4f       	sbci	r29, 0xF8	; 248
    6f9a:	80 eb       	ldi	r24, 0xB0	; 176
    6f9c:	0a c0       	rjmp	.+20     	; 0x6fb2 <menu_parseEncoder+0x26c>
    6f9e:	96 2f       	mov	r25, r22
    6fa0:	90 58       	subi	r25, 0x80	; 128
    6fa2:	cc 0f       	add	r28, r28
    6fa4:	dd 1f       	adc	r29, r29
    6fa6:	9d 35       	cpi	r25, 0x5D	; 93
    6fa8:	40 f4       	brcc	.+16     	; 0x6fba <menu_parseEncoder+0x274>
    6faa:	c5 56       	subi	r28, 0x65	; 101
    6fac:	d8 4f       	sbci	r29, 0xF8	; 248
    6fae:	86 eb       	ldi	r24, 0xB6	; 182
    6fb0:	69 2f       	mov	r22, r25
    6fb2:	48 81       	ld	r20, Y
    6fb4:	0e 94 90 0d 	call	0x1b20	; 0x1b20 <frontPanel_sendData>
    6fb8:	56 c0       	rjmp	.+172    	; 0x7066 <menu_parseEncoder+0x320>
    6fba:	c5 56       	subi	r28, 0x65	; 101
    6fbc:	d8 4f       	sbci	r29, 0xF8	; 248
    6fbe:	86 2f       	mov	r24, r22
    6fc0:	68 81       	ld	r22, Y
    6fc2:	0e 94 9e 35 	call	0x6b3c	; 0x6b3c <menu_parseGlobalParam>
    6fc6:	4f c0       	rjmp	.+158    	; 0x7066 <menu_parseEncoder+0x320>
    6fc8:	80 91 3e 02 	lds	r24, 0x023E
    6fcc:	80 0f       	add	r24, r16
    6fce:	87 70       	andi	r24, 0x07	; 7
    6fd0:	90 91 3e 02 	lds	r25, 0x023E
    6fd4:	e0 2f       	mov	r30, r16
    6fd6:	ff 27       	eor	r31, r31
    6fd8:	e7 fd       	sbrc	r30, 7
    6fda:	f0 95       	com	r31
    6fdc:	e9 0f       	add	r30, r25
    6fde:	f1 1d       	adc	r31, r1
    6fe0:	e8 7f       	andi	r30, 0xF8	; 248
    6fe2:	f0 70       	andi	r31, 0x00	; 0
    6fe4:	b3 e0       	ldi	r27, 0x03	; 3
    6fe6:	f6 95       	lsr	r31
    6fe8:	e7 95       	ror	r30
    6fea:	ba 95       	dec	r27
    6fec:	e1 f7       	brne	.-8      	; 0x6fe6 <menu_parseEncoder+0x2a0>
    6fee:	30 e0       	ldi	r19, 0x00	; 0
    6ff0:	a3 e0       	ldi	r26, 0x03	; 3
    6ff2:	22 0f       	add	r18, r18
    6ff4:	33 1f       	adc	r19, r19
    6ff6:	aa 95       	dec	r26
    6ff8:	e1 f7       	brne	.-8      	; 0x6ff2 <menu_parseEncoder+0x2ac>
    6ffa:	e2 0f       	add	r30, r18
    6ffc:	f3 1f       	adc	r31, r19
    6ffe:	74 e0       	ldi	r23, 0x04	; 4
    7000:	ee 0f       	add	r30, r30
    7002:	ff 1f       	adc	r31, r31
    7004:	7a 95       	dec	r23
    7006:	e1 f7       	brne	.-8      	; 0x7000 <menu_parseEncoder+0x2ba>
    7008:	e8 51       	subi	r30, 0x18	; 24
    700a:	ff 4f       	sbci	r31, 0xFF	; 255
    700c:	e8 0f       	add	r30, r24
    700e:	f1 1d       	adc	r31, r1
    7010:	e4 91       	lpm	r30, Z+
    7012:	10 16       	cp	r1, r16
    7014:	84 f4       	brge	.+32     	; 0x7036 <menu_parseEncoder+0x2f0>
    7016:	ee 23       	and	r30, r30
    7018:	31 f1       	breq	.+76     	; 0x7066 <menu_parseEncoder+0x320>
    701a:	88 23       	and	r24, r24
    701c:	21 f1       	breq	.+72     	; 0x7066 <menu_parseEncoder+0x320>
    701e:	90 91 ef 01 	lds	r25, 0x01EF
    7022:	94 ff       	sbrs	r25, 4
    7024:	1b c0       	rjmp	.+54     	; 0x705c <menu_parseEncoder+0x316>
    7026:	90 91 3e 02 	lds	r25, 0x023E
    702a:	97 70       	andi	r25, 0x07	; 7
    702c:	94 30       	cpi	r25, 0x04	; 4
    702e:	b0 f4       	brcc	.+44     	; 0x705c <menu_parseEncoder+0x316>
    7030:	84 30       	cpi	r24, 0x04	; 4
    7032:	a0 f0       	brcs	.+40     	; 0x705c <menu_parseEncoder+0x316>
    7034:	11 c0       	rjmp	.+34     	; 0x7058 <menu_parseEncoder+0x312>
    7036:	90 91 3e 02 	lds	r25, 0x023E
    703a:	99 23       	and	r25, r25
    703c:	a1 f0       	breq	.+40     	; 0x7066 <menu_parseEncoder+0x320>
    703e:	87 30       	cpi	r24, 0x07	; 7
    7040:	91 f0       	breq	.+36     	; 0x7066 <menu_parseEncoder+0x320>
    7042:	90 91 ef 01 	lds	r25, 0x01EF
    7046:	94 ff       	sbrs	r25, 4
    7048:	09 c0       	rjmp	.+18     	; 0x705c <menu_parseEncoder+0x316>
    704a:	90 91 3e 02 	lds	r25, 0x023E
    704e:	97 70       	andi	r25, 0x07	; 7
    7050:	94 30       	cpi	r25, 0x04	; 4
    7052:	20 f0       	brcs	.+8      	; 0x705c <menu_parseEncoder+0x316>
    7054:	84 30       	cpi	r24, 0x04	; 4
    7056:	10 f4       	brcc	.+4      	; 0x705c <menu_parseEncoder+0x316>
    7058:	0e 94 c2 2a 	call	0x5584	; 0x5584 <lockPotentiometerFetch>
    705c:	80 91 3e 02 	lds	r24, 0x023E
    7060:	80 0f       	add	r24, r16
    7062:	80 93 3e 02 	sts	0x023E, r24
    7066:	10 93 42 02 	sts	0x0242, r17
    706a:	0e 94 28 2d 	call	0x5a50	; 0x5a50 <menu_repaint>
    706e:	df 91       	pop	r29
    7070:	cf 91       	pop	r28
    7072:	1f 91       	pop	r17
    7074:	0f 91       	pop	r16
    7076:	08 95       	ret

00007078 <menu_processSpecialCaseValues>:
    7078:	8d 3e       	cpi	r24, 0xED	; 237
    707a:	29 f0       	breq	.+10     	; 0x7086 <menu_processSpecialCaseValues+0xe>
    707c:	83 5e       	subi	r24, 0xE3	; 227
    707e:	82 30       	cpi	r24, 0x02	; 2
    7080:	10 f4       	brcc	.+4      	; 0x7086 <menu_processSpecialCaseValues+0xe>
    7082:	0e 94 93 27 	call	0x4f26	; 0x4f26 <led_clearSequencerLeds>
    7086:	08 95       	ret

00007088 <getDtypeValue>:
    7088:	cf 92       	push	r12
    708a:	df 92       	push	r13
    708c:	ef 92       	push	r14
    708e:	ff 92       	push	r15
    7090:	0f 93       	push	r16
    7092:	1f 93       	push	r17
    7094:	18 2f       	mov	r17, r24
    7096:	06 2f       	mov	r16, r22
    7098:	68 2f       	mov	r22, r24
    709a:	70 e0       	ldi	r23, 0x00	; 0
    709c:	88 27       	eor	r24, r24
    709e:	77 fd       	sbrc	r23, 7
    70a0:	80 95       	com	r24
    70a2:	98 2f       	mov	r25, r24
    70a4:	0e 94 a1 41 	call	0x8342	; 0x8342 <__floatsisf>
    70a8:	21 e8       	ldi	r18, 0x81	; 129
    70aa:	30 e8       	ldi	r19, 0x80	; 128
    70ac:	40 e8       	ldi	r20, 0x80	; 128
    70ae:	5b e3       	ldi	r21, 0x3B	; 59
    70b0:	0e 94 31 42 	call	0x8462	; 0x8462 <__mulsf3>
    70b4:	6b 01       	movw	r12, r22
    70b6:	7c 01       	movw	r14, r24
    70b8:	e0 2f       	mov	r30, r16
    70ba:	f0 e0       	ldi	r31, 0x00	; 0
    70bc:	ee 0f       	add	r30, r30
    70be:	ff 1f       	adc	r31, r31
    70c0:	e5 56       	subi	r30, 0x65	; 101
    70c2:	f8 4f       	sbci	r31, 0xF8	; 248
    70c4:	e1 81       	ldd	r30, Z+1	; 0x01
    70c6:	8e 2f       	mov	r24, r30
    70c8:	90 e0       	ldi	r25, 0x00	; 0
    70ca:	8f 70       	andi	r24, 0x0F	; 15
    70cc:	90 70       	andi	r25, 0x00	; 0
    70ce:	88 30       	cpi	r24, 0x08	; 8
    70d0:	91 05       	cpc	r25, r1
    70d2:	c4 f4       	brge	.+48     	; 0x7104 <getDtypeValue+0x7c>
    70d4:	86 30       	cpi	r24, 0x06	; 6
    70d6:	91 05       	cpc	r25, r1
    70d8:	0c f0       	brlt	.+2      	; 0x70dc <getDtypeValue+0x54>
    70da:	46 c0       	rjmp	.+140    	; 0x7168 <getDtypeValue+0xe0>
    70dc:	83 30       	cpi	r24, 0x03	; 3
    70de:	91 05       	cpc	r25, r1
    70e0:	09 f4       	brne	.+2      	; 0x70e4 <getDtypeValue+0x5c>
    70e2:	51 c0       	rjmp	.+162    	; 0x7186 <getDtypeValue+0xfe>
    70e4:	84 30       	cpi	r24, 0x04	; 4
    70e6:	91 05       	cpc	r25, r1
    70e8:	24 f4       	brge	.+8      	; 0x70f2 <getDtypeValue+0x6a>
    70ea:	00 97       	sbiw	r24, 0x00	; 0
    70ec:	09 f4       	brne	.+2      	; 0x70f0 <getDtypeValue+0x68>
    70ee:	71 c0       	rjmp	.+226    	; 0x71d2 <getDtypeValue+0x14a>
    70f0:	63 c0       	rjmp	.+198    	; 0x71b8 <getDtypeValue+0x130>
    70f2:	84 30       	cpi	r24, 0x04	; 4
    70f4:	91 05       	cpc	r25, r1
    70f6:	09 f4       	brne	.+2      	; 0x70fa <getDtypeValue+0x72>
    70f8:	5f c0       	rjmp	.+190    	; 0x71b8 <getDtypeValue+0x130>
    70fa:	85 30       	cpi	r24, 0x05	; 5
    70fc:	91 05       	cpc	r25, r1
    70fe:	09 f0       	breq	.+2      	; 0x7102 <getDtypeValue+0x7a>
    7100:	5b c0       	rjmp	.+182    	; 0x71b8 <getDtypeValue+0x130>
    7102:	21 c0       	rjmp	.+66     	; 0x7146 <getDtypeValue+0xbe>
    7104:	8a 30       	cpi	r24, 0x0A	; 10
    7106:	91 05       	cpc	r25, r1
    7108:	a9 f0       	breq	.+42     	; 0x7134 <getDtypeValue+0xac>
    710a:	8a 30       	cpi	r24, 0x0A	; 10
    710c:	91 05       	cpc	r25, r1
    710e:	4c f0       	brlt	.+18     	; 0x7122 <getDtypeValue+0x9a>
    7110:	8b 30       	cpi	r24, 0x0B	; 11
    7112:	91 05       	cpc	r25, r1
    7114:	09 f4       	brne	.+2      	; 0x7118 <getDtypeValue+0x90>
    7116:	5d c0       	rjmp	.+186    	; 0x71d2 <getDtypeValue+0x14a>
    7118:	8c 30       	cpi	r24, 0x0C	; 12
    711a:	91 05       	cpc	r25, r1
    711c:	09 f0       	breq	.+2      	; 0x7120 <getDtypeValue+0x98>
    711e:	4c c0       	rjmp	.+152    	; 0x71b8 <getDtypeValue+0x130>
    7120:	23 c0       	rjmp	.+70     	; 0x7168 <getDtypeValue+0xe0>
    7122:	6c 2d       	mov	r22, r12
    7124:	7d 2d       	mov	r23, r13
    7126:	8e 2d       	mov	r24, r14
    7128:	9f 2d       	mov	r25, r15
    712a:	20 e0       	ldi	r18, 0x00	; 0
    712c:	30 e0       	ldi	r19, 0x00	; 0
    712e:	4c e7       	ldi	r20, 0x7C	; 124
    7130:	52 e4       	ldi	r21, 0x42	; 66
    7132:	4a c0       	rjmp	.+148    	; 0x71c8 <getDtypeValue+0x140>
    7134:	6c 2d       	mov	r22, r12
    7136:	7d 2d       	mov	r23, r13
    7138:	8e 2d       	mov	r24, r14
    713a:	9f 2d       	mov	r25, r15
    713c:	20 e0       	ldi	r18, 0x00	; 0
    713e:	30 e0       	ldi	r19, 0x00	; 0
    7140:	40 ea       	ldi	r20, 0xA0	; 160
    7142:	50 e4       	ldi	r21, 0x40	; 64
    7144:	08 c0       	rjmp	.+16     	; 0x7156 <getDtypeValue+0xce>
    7146:	6c 2d       	mov	r22, r12
    7148:	7d 2d       	mov	r23, r13
    714a:	8e 2d       	mov	r24, r14
    714c:	9f 2d       	mov	r25, r15
    714e:	20 e0       	ldi	r18, 0x00	; 0
    7150:	30 e0       	ldi	r19, 0x00	; 0
    7152:	40 e7       	ldi	r20, 0x70	; 112
    7154:	51 e4       	ldi	r21, 0x41	; 65
    7156:	0e 94 31 42 	call	0x8462	; 0x8462 <__mulsf3>
    715a:	20 e0       	ldi	r18, 0x00	; 0
    715c:	30 e0       	ldi	r19, 0x00	; 0
    715e:	40 e8       	ldi	r20, 0x80	; 128
    7160:	5f e3       	ldi	r21, 0x3F	; 63
    7162:	0e 94 0f 41 	call	0x821e	; 0x821e <__addsf3>
    7166:	32 c0       	rjmp	.+100    	; 0x71cc <getDtypeValue+0x144>
    7168:	11 e0       	ldi	r17, 0x01	; 1
    716a:	6c 2d       	mov	r22, r12
    716c:	7d 2d       	mov	r23, r13
    716e:	8e 2d       	mov	r24, r14
    7170:	9f 2d       	mov	r25, r15
    7172:	20 e0       	ldi	r18, 0x00	; 0
    7174:	30 e0       	ldi	r19, 0x00	; 0
    7176:	40 e0       	ldi	r20, 0x00	; 0
    7178:	5f e3       	ldi	r21, 0x3F	; 63
    717a:	0e 94 2d 42 	call	0x845a	; 0x845a <__gesf2>
    717e:	18 16       	cp	r1, r24
    7180:	44 f1       	brlt	.+80     	; 0x71d2 <getDtypeValue+0x14a>
    7182:	10 e0       	ldi	r17, 0x00	; 0
    7184:	26 c0       	rjmp	.+76     	; 0x71d2 <getDtypeValue+0x14a>
    7186:	e2 95       	swap	r30
    7188:	ef 70       	andi	r30, 0x0F	; 15
    718a:	e1 50       	subi	r30, 0x01	; 1
    718c:	e9 30       	cpi	r30, 0x09	; 9
    718e:	28 f4       	brcc	.+10     	; 0x719a <getDtypeValue+0x112>
    7190:	f0 e0       	ldi	r31, 0x00	; 0
    7192:	e0 51       	subi	r30, 0x10	; 16
    7194:	fe 4f       	sbci	r31, 0xFE	; 254
    7196:	60 81       	ld	r22, Z
    7198:	01 c0       	rjmp	.+2      	; 0x719c <getDtypeValue+0x114>
    719a:	61 e0       	ldi	r22, 0x01	; 1
    719c:	70 e0       	ldi	r23, 0x00	; 0
    719e:	61 50       	subi	r22, 0x01	; 1
    71a0:	70 40       	sbci	r23, 0x00	; 0
    71a2:	88 27       	eor	r24, r24
    71a4:	77 fd       	sbrc	r23, 7
    71a6:	80 95       	com	r24
    71a8:	98 2f       	mov	r25, r24
    71aa:	0e 94 a1 41 	call	0x8342	; 0x8342 <__floatsisf>
    71ae:	2c 2d       	mov	r18, r12
    71b0:	3d 2d       	mov	r19, r13
    71b2:	4e 2d       	mov	r20, r14
    71b4:	5f 2d       	mov	r21, r15
    71b6:	08 c0       	rjmp	.+16     	; 0x71c8 <getDtypeValue+0x140>
    71b8:	6c 2d       	mov	r22, r12
    71ba:	7d 2d       	mov	r23, r13
    71bc:	8e 2d       	mov	r24, r14
    71be:	9f 2d       	mov	r25, r15
    71c0:	20 e0       	ldi	r18, 0x00	; 0
    71c2:	30 e0       	ldi	r19, 0x00	; 0
    71c4:	4e ef       	ldi	r20, 0xFE	; 254
    71c6:	52 e4       	ldi	r21, 0x42	; 66
    71c8:	0e 94 31 42 	call	0x8462	; 0x8462 <__mulsf3>
    71cc:	0e 94 73 41 	call	0x82e6	; 0x82e6 <__fixunssfsi>
    71d0:	16 2f       	mov	r17, r22
    71d2:	81 2f       	mov	r24, r17
    71d4:	1f 91       	pop	r17
    71d6:	0f 91       	pop	r16
    71d8:	ff 90       	pop	r15
    71da:	ef 90       	pop	r14
    71dc:	df 90       	pop	r13
    71de:	cf 90       	pop	r12
    71e0:	08 95       	ret

000071e2 <menu_parseKnobValue>:
    71e2:	cf 92       	push	r12
    71e4:	df 92       	push	r13
    71e6:	ef 92       	push	r14
    71e8:	ff 92       	push	r15
    71ea:	0f 93       	push	r16
    71ec:	1f 93       	push	r17
    71ee:	df 93       	push	r29
    71f0:	cf 93       	push	r28
    71f2:	00 d0       	rcall	.+0      	; 0x71f4 <menu_parseKnobValue+0x12>
    71f4:	cd b7       	in	r28, 0x3d	; 61
    71f6:	de b7       	in	r29, 0x3e	; 62
    71f8:	c8 2e       	mov	r12, r24
    71fa:	6a 83       	std	Y+2, r22	; 0x02
    71fc:	0e 94 c8 39 	call	0x7390	; 0x7390 <screensaver_touch>
    7200:	90 91 3e 02 	lds	r25, 0x023E
    7204:	96 95       	lsr	r25
    7206:	96 95       	lsr	r25
    7208:	96 95       	lsr	r25
    720a:	20 91 3e 02 	lds	r18, 0x023E
    720e:	27 70       	andi	r18, 0x07	; 7
    7210:	8a 81       	ldd	r24, Y+2	; 0x02
    7212:	24 30       	cpi	r18, 0x04	; 4
    7214:	10 f0       	brcs	.+4      	; 0x721a <menu_parseKnobValue+0x38>
    7216:	44 e0       	ldi	r20, 0x04	; 4
    7218:	01 c0       	rjmp	.+2      	; 0x721c <menu_parseKnobValue+0x3a>
    721a:	40 e0       	ldi	r20, 0x00	; 0
    721c:	e0 91 3b 02 	lds	r30, 0x023B
    7220:	f0 e0       	ldi	r31, 0x00	; 0
    7222:	b3 e0       	ldi	r27, 0x03	; 3
    7224:	ee 0f       	add	r30, r30
    7226:	ff 1f       	adc	r31, r31
    7228:	ba 95       	dec	r27
    722a:	e1 f7       	brne	.-8      	; 0x7224 <menu_parseKnobValue+0x42>
    722c:	e9 0f       	add	r30, r25
    722e:	f1 1d       	adc	r31, r1
    7230:	a4 e0       	ldi	r26, 0x04	; 4
    7232:	ee 0f       	add	r30, r30
    7234:	ff 1f       	adc	r31, r31
    7236:	aa 95       	dec	r26
    7238:	e1 f7       	brne	.-8      	; 0x7232 <menu_parseKnobValue+0x50>
    723a:	e0 51       	subi	r30, 0x10	; 16
    723c:	ff 4f       	sbci	r31, 0xFF	; 255
    723e:	2c 2d       	mov	r18, r12
    7240:	30 e0       	ldi	r19, 0x00	; 0
    7242:	24 0f       	add	r18, r20
    7244:	31 1d       	adc	r19, r1
    7246:	e2 0f       	add	r30, r18
    7248:	f3 1f       	adc	r31, r19
    724a:	d4 90       	lpm	r13, Z+
    724c:	6d 2d       	mov	r22, r13
    724e:	0e 94 44 38 	call	0x7088	; 0x7088 <getDtypeValue>
    7252:	89 83       	std	Y+1, r24	; 0x01
    7254:	ed 2c       	mov	r14, r13
    7256:	ff 24       	eor	r15, r15
    7258:	87 01       	movw	r16, r14
    725a:	00 0f       	add	r16, r16
    725c:	11 1f       	adc	r17, r17
    725e:	05 56       	subi	r16, 0x65	; 101
    7260:	18 4f       	sbci	r17, 0xF8	; 248
    7262:	f8 01       	movw	r30, r16
    7264:	90 81       	ld	r25, Z
    7266:	98 17       	cp	r25, r24
    7268:	71 f4       	brne	.+28     	; 0x7286 <menu_parseKnobValue+0xa4>
    726a:	21 e0       	ldi	r18, 0x01	; 1
    726c:	30 e0       	ldi	r19, 0x00	; 0
    726e:	02 c0       	rjmp	.+4      	; 0x7274 <menu_parseKnobValue+0x92>
    7270:	22 0f       	add	r18, r18
    7272:	33 1f       	adc	r19, r19
    7274:	ca 94       	dec	r12
    7276:	e2 f7       	brpl	.-8      	; 0x7270 <menu_parseKnobValue+0x8e>
    7278:	20 95       	com	r18
    727a:	80 91 ef 01 	lds	r24, 0x01EF
    727e:	82 23       	and	r24, r18
    7280:	80 93 ef 01 	sts	0x01EF, r24
    7284:	5d c0       	rjmp	.+186    	; 0x7340 <menu_parseKnobValue+0x15e>
    7286:	8d 2d       	mov	r24, r13
    7288:	be 01       	movw	r22, r28
    728a:	6f 5f       	subi	r22, 0xFF	; 255
    728c:	7f 4f       	sbci	r23, 0xFF	; 255
    728e:	0e 94 3c 38 	call	0x7078	; 0x7078 <menu_processSpecialCaseValues>
    7292:	20 91 ef 01 	lds	r18, 0x01EF
    7296:	30 e0       	ldi	r19, 0x00	; 0
    7298:	02 c0       	rjmp	.+4      	; 0x729e <menu_parseKnobValue+0xbc>
    729a:	35 95       	asr	r19
    729c:	27 95       	ror	r18
    729e:	ca 94       	dec	r12
    72a0:	e2 f7       	brpl	.-8      	; 0x729a <menu_parseKnobValue+0xb8>
    72a2:	20 fd       	sbrc	r18, 0
    72a4:	4d c0       	rjmp	.+154    	; 0x7340 <menu_parseKnobValue+0x15e>
    72a6:	49 81       	ldd	r20, Y+1	; 0x01
    72a8:	f8 01       	movw	r30, r16
    72aa:	40 83       	st	Z, r20
    72ac:	21 81       	ldd	r18, Z+1	; 0x01
    72ae:	30 e0       	ldi	r19, 0x00	; 0
    72b0:	2f 70       	andi	r18, 0x0F	; 15
    72b2:	30 70       	andi	r19, 0x00	; 0
    72b4:	28 30       	cpi	r18, 0x08	; 8
    72b6:	31 05       	cpc	r19, r1
    72b8:	c1 f0       	breq	.+48     	; 0x72ea <menu_parseKnobValue+0x108>
    72ba:	29 30       	cpi	r18, 0x09	; 9
    72bc:	31 05       	cpc	r19, r1
    72be:	79 f5       	brne	.+94     	; 0x731e <menu_parseKnobValue+0x13c>
    72c0:	6d 2d       	mov	r22, r13
    72c2:	65 59       	subi	r22, 0x95	; 149
    72c4:	84 2f       	mov	r24, r20
    72c6:	0e 94 ca 2a 	call	0x5594	; 0x5594 <getModTargetValue>
    72ca:	68 2f       	mov	r22, r24
    72cc:	66 1f       	adc	r22, r22
    72ce:	66 27       	eor	r22, r22
    72d0:	66 1f       	adc	r22, r22
    72d2:	97 01       	movw	r18, r14
    72d4:	25 59       	subi	r18, 0x95	; 149
    72d6:	30 40       	sbci	r19, 0x00	; 0
    72d8:	2f 73       	andi	r18, 0x3F	; 63
    72da:	30 70       	andi	r19, 0x00	; 0
    72dc:	22 0f       	add	r18, r18
    72de:	33 1f       	adc	r19, r19
    72e0:	62 2b       	or	r22, r18
    72e2:	48 2f       	mov	r20, r24
    72e4:	4f 77       	andi	r20, 0x7F	; 127
    72e6:	88 eb       	ldi	r24, 0xB8	; 184
    72e8:	24 c0       	rjmp	.+72     	; 0x7332 <menu_parseKnobValue+0x150>
    72ea:	f7 01       	movw	r30, r14
    72ec:	ee 0f       	add	r30, r30
    72ee:	ff 1f       	adc	r31, r31
    72f0:	e1 57       	subi	r30, 0x71	; 113
    72f2:	f8 4f       	sbci	r31, 0xF8	; 248
    72f4:	60 81       	ld	r22, Z
    72f6:	61 50       	subi	r22, 0x01	; 1
    72f8:	84 2f       	mov	r24, r20
    72fa:	0e 94 ca 2a 	call	0x5594	; 0x5594 <getModTargetValue>
    72fe:	68 2f       	mov	r22, r24
    7300:	66 1f       	adc	r22, r22
    7302:	66 27       	eor	r22, r22
    7304:	66 1f       	adc	r22, r22
    7306:	97 01       	movw	r18, r14
    7308:	27 5a       	subi	r18, 0xA7	; 167
    730a:	30 40       	sbci	r19, 0x00	; 0
    730c:	2f 73       	andi	r18, 0x3F	; 63
    730e:	30 70       	andi	r19, 0x00	; 0
    7310:	22 0f       	add	r18, r18
    7312:	33 1f       	adc	r19, r19
    7314:	62 2b       	or	r22, r18
    7316:	48 2f       	mov	r20, r24
    7318:	4f 77       	andi	r20, 0x7F	; 127
    731a:	87 eb       	ldi	r24, 0xB7	; 183
    731c:	0a c0       	rjmp	.+20     	; 0x7332 <menu_parseKnobValue+0x150>
    731e:	d7 fc       	sbrc	r13, 7
    7320:	03 c0       	rjmp	.+6      	; 0x7328 <menu_parseKnobValue+0x146>
    7322:	80 eb       	ldi	r24, 0xB0	; 176
    7324:	6d 2d       	mov	r22, r13
    7326:	05 c0       	rjmp	.+10     	; 0x7332 <menu_parseKnobValue+0x150>
    7328:	6d 2d       	mov	r22, r13
    732a:	60 58       	subi	r22, 0x80	; 128
    732c:	6d 35       	cpi	r22, 0x5D	; 93
    732e:	20 f4       	brcc	.+8      	; 0x7338 <menu_parseKnobValue+0x156>
    7330:	86 eb       	ldi	r24, 0xB6	; 182
    7332:	0e 94 90 0d 	call	0x1b20	; 0x1b20 <frontPanel_sendData>
    7336:	04 c0       	rjmp	.+8      	; 0x7340 <menu_parseKnobValue+0x15e>
    7338:	8d 2d       	mov	r24, r13
    733a:	64 2f       	mov	r22, r20
    733c:	0e 94 9e 35 	call	0x6b3c	; 0x6b3c <menu_parseGlobalParam>
    7340:	0f 90       	pop	r0
    7342:	0f 90       	pop	r0
    7344:	cf 91       	pop	r28
    7346:	df 91       	pop	r29
    7348:	1f 91       	pop	r17
    734a:	0f 91       	pop	r16
    734c:	ff 90       	pop	r15
    734e:	ef 90       	pop	r14
    7350:	df 90       	pop	r13
    7352:	cf 90       	pop	r12
    7354:	08 95       	ret

00007356 <menu_getActivePage>:
    7356:	80 91 3b 02 	lds	r24, 0x023B
    735a:	08 95       	ret

0000735c <menu_getActiveVoice>:
    735c:	80 91 3c 02 	lds	r24, 0x023C
    7360:	08 95       	ret

00007362 <menu_setActiveVoice>:
    7362:	80 93 3c 02 	sts	0x023C, r24
    7366:	08 95       	ret

00007368 <screensaver_pseudoRng>:
    7368:	20 91 46 02 	lds	r18, 0x0246
    736c:	30 91 47 02 	lds	r19, 0x0247
    7370:	2f 5f       	subi	r18, 0xFF	; 255
    7372:	3f 4f       	sbci	r19, 0xFF	; 255
    7374:	c9 01       	movw	r24, r18
    7376:	88 0f       	add	r24, r24
    7378:	99 1f       	adc	r25, r25
    737a:	82 0f       	add	r24, r18
    737c:	93 1f       	adc	r25, r19
    737e:	90 93 47 02 	sts	0x0247, r25
    7382:	80 93 46 02 	sts	0x0246, r24
    7386:	96 95       	lsr	r25
    7388:	87 95       	ror	r24
    738a:	96 95       	lsr	r25
    738c:	87 95       	ror	r24
    738e:	08 95       	ret

00007390 <screensaver_touch>:
    7390:	60 91 33 02 	lds	r22, 0x0233
    7394:	70 91 34 02 	lds	r23, 0x0234
    7398:	80 e0       	ldi	r24, 0x00	; 0
    739a:	90 e0       	ldi	r25, 0x00	; 0
    739c:	0e 94 9f 41 	call	0x833e	; 0x833e <__floatunsisf>
    73a0:	24 ea       	ldi	r18, 0xA4	; 164
    73a2:	33 e9       	ldi	r19, 0x93	; 147
    73a4:	46 e5       	ldi	r20, 0x56	; 86
    73a6:	56 e4       	ldi	r21, 0x46	; 70
    73a8:	0e 94 0f 41 	call	0x821e	; 0x821e <__addsf3>
    73ac:	0e 94 73 41 	call	0x82e6	; 0x82e6 <__fixunssfsi>
    73b0:	70 93 03 02 	sts	0x0203, r23
    73b4:	60 93 02 02 	sts	0x0202, r22
    73b8:	20 91 02 02 	lds	r18, 0x0202
    73bc:	30 91 03 02 	lds	r19, 0x0203
    73c0:	80 91 33 02 	lds	r24, 0x0233
    73c4:	90 91 34 02 	lds	r25, 0x0234
    73c8:	28 17       	cp	r18, r24
    73ca:	39 07       	cpc	r19, r25
    73cc:	30 f4       	brcc	.+12     	; 0x73da <screensaver_touch+0x4a>
    73ce:	8f ef       	ldi	r24, 0xFF	; 255
    73d0:	9f ef       	ldi	r25, 0xFF	; 255
    73d2:	90 93 03 02 	sts	0x0203, r25
    73d6:	80 93 02 02 	sts	0x0202, r24
    73da:	80 91 43 02 	lds	r24, 0x0243
    73de:	88 23       	and	r24, r24
    73e0:	21 f0       	breq	.+8      	; 0x73ea <screensaver_touch+0x5a>
    73e2:	10 92 43 02 	sts	0x0243, r1
    73e6:	0e 94 99 32 	call	0x6532	; 0x6532 <menu_repaintAll>
    73ea:	08 95       	ret

000073ec <screensaver_process>:
    73ec:	df 93       	push	r29
    73ee:	cf 93       	push	r28
    73f0:	00 d0       	rcall	.+0      	; 0x73f2 <screensaver_process+0x6>
    73f2:	cd b7       	in	r28, 0x3d	; 61
    73f4:	de b7       	in	r29, 0x3e	; 62
    73f6:	20 91 33 02 	lds	r18, 0x0233
    73fa:	30 91 34 02 	lds	r19, 0x0234
    73fe:	80 91 48 02 	lds	r24, 0x0248
    7402:	90 91 49 02 	lds	r25, 0x0249
    7406:	28 17       	cp	r18, r24
    7408:	39 07       	cpc	r19, r25
    740a:	08 f4       	brcc	.+2      	; 0x740e <screensaver_process+0x22>
    740c:	62 c0       	rjmp	.+196    	; 0x74d2 <screensaver_process+0xe6>
    740e:	60 91 33 02 	lds	r22, 0x0233
    7412:	70 91 34 02 	lds	r23, 0x0234
    7416:	80 e0       	ldi	r24, 0x00	; 0
    7418:	90 e0       	ldi	r25, 0x00	; 0
    741a:	0e 94 9f 41 	call	0x833e	; 0x833e <__floatunsisf>
    741e:	20 e8       	ldi	r18, 0x80	; 128
    7420:	36 e9       	ldi	r19, 0x96	; 150
    7422:	48 e1       	ldi	r20, 0x18	; 24
    7424:	52 e4       	ldi	r21, 0x42	; 66
    7426:	0e 94 0f 41 	call	0x821e	; 0x821e <__addsf3>
    742a:	0e 94 73 41 	call	0x82e6	; 0x82e6 <__fixunssfsi>
    742e:	70 93 49 02 	sts	0x0249, r23
    7432:	60 93 48 02 	sts	0x0248, r22
    7436:	80 91 45 02 	lds	r24, 0x0245
    743a:	88 23       	and	r24, r24
    743c:	29 f4       	brne	.+10     	; 0x7448 <screensaver_process+0x5c>
    743e:	0e 94 b4 39 	call	0x7368	; 0x7368 <screensaver_pseudoRng>
    7442:	8f 71       	andi	r24, 0x1F	; 31
    7444:	80 93 44 02 	sts	0x0244, r24
    7448:	1a 82       	std	Y+2, r1	; 0x02
    744a:	80 91 45 02 	lds	r24, 0x0245
    744e:	82 30       	cpi	r24, 0x02	; 2
    7450:	d1 f0       	breq	.+52     	; 0x7486 <screensaver_process+0x9a>
    7452:	83 30       	cpi	r24, 0x03	; 3
    7454:	61 f1       	breq	.+88     	; 0x74ae <screensaver_process+0xc2>
    7456:	81 30       	cpi	r24, 0x01	; 1
    7458:	21 f0       	breq	.+8      	; 0x7462 <screensaver_process+0x76>
    745a:	0e 94 84 10 	call	0x2108	; 0x2108 <lcd_clear>
    745e:	81 e0       	ldi	r24, 0x01	; 1
    7460:	23 c0       	rjmp	.+70     	; 0x74a8 <screensaver_process+0xbc>
    7462:	80 91 44 02 	lds	r24, 0x0244
    7466:	80 31       	cpi	r24, 0x10	; 16
    7468:	18 f0       	brcs	.+6      	; 0x7470 <screensaver_process+0x84>
    746a:	80 51       	subi	r24, 0x10	; 16
    746c:	62 e0       	ldi	r22, 0x02	; 2
    746e:	01 c0       	rjmp	.+2      	; 0x7472 <screensaver_process+0x86>
    7470:	61 e0       	ldi	r22, 0x01	; 1
    7472:	0e 94 db 10 	call	0x21b6	; 0x21b6 <lcd_setcursor>
    7476:	8f ed       	ldi	r24, 0xDF	; 223
    7478:	89 83       	std	Y+1, r24	; 0x01
    747a:	ce 01       	movw	r24, r28
    747c:	01 96       	adiw	r24, 0x01	; 1
    747e:	0e 94 f1 10 	call	0x21e2	; 0x21e2 <lcd_string>
    7482:	82 e0       	ldi	r24, 0x02	; 2
    7484:	11 c0       	rjmp	.+34     	; 0x74a8 <screensaver_process+0xbc>
    7486:	80 91 44 02 	lds	r24, 0x0244
    748a:	80 31       	cpi	r24, 0x10	; 16
    748c:	18 f0       	brcs	.+6      	; 0x7494 <screensaver_process+0xa8>
    748e:	80 51       	subi	r24, 0x10	; 16
    7490:	62 e0       	ldi	r22, 0x02	; 2
    7492:	01 c0       	rjmp	.+2      	; 0x7496 <screensaver_process+0xaa>
    7494:	61 e0       	ldi	r22, 0x01	; 1
    7496:	0e 94 db 10 	call	0x21b6	; 0x21b6 <lcd_setcursor>
    749a:	8f ee       	ldi	r24, 0xEF	; 239
    749c:	89 83       	std	Y+1, r24	; 0x01
    749e:	ce 01       	movw	r24, r28
    74a0:	01 96       	adiw	r24, 0x01	; 1
    74a2:	0e 94 f1 10 	call	0x21e2	; 0x21e2 <lcd_string>
    74a6:	83 e0       	ldi	r24, 0x03	; 3
    74a8:	80 93 45 02 	sts	0x0245, r24
    74ac:	12 c0       	rjmp	.+36     	; 0x74d2 <screensaver_process+0xe6>
    74ae:	80 91 44 02 	lds	r24, 0x0244
    74b2:	80 31       	cpi	r24, 0x10	; 16
    74b4:	18 f0       	brcs	.+6      	; 0x74bc <screensaver_process+0xd0>
    74b6:	80 51       	subi	r24, 0x10	; 16
    74b8:	62 e0       	ldi	r22, 0x02	; 2
    74ba:	01 c0       	rjmp	.+2      	; 0x74be <screensaver_process+0xd2>
    74bc:	61 e0       	ldi	r22, 0x01	; 1
    74be:	0e 94 db 10 	call	0x21b6	; 0x21b6 <lcd_setcursor>
    74c2:	8e ee       	ldi	r24, 0xEE	; 238
    74c4:	89 83       	std	Y+1, r24	; 0x01
    74c6:	ce 01       	movw	r24, r28
    74c8:	01 96       	adiw	r24, 0x01	; 1
    74ca:	0e 94 f1 10 	call	0x21e2	; 0x21e2 <lcd_string>
    74ce:	10 92 45 02 	sts	0x0245, r1
    74d2:	0f 90       	pop	r0
    74d4:	0f 90       	pop	r0
    74d6:	cf 91       	pop	r28
    74d8:	df 91       	pop	r29
    74da:	08 95       	ret

000074dc <screensaver_check>:
    74dc:	80 91 43 02 	lds	r24, 0x0243
    74e0:	88 23       	and	r24, r24
    74e2:	79 f4       	brne	.+30     	; 0x7502 <screensaver_check+0x26>
    74e4:	20 91 33 02 	lds	r18, 0x0233
    74e8:	30 91 34 02 	lds	r19, 0x0234
    74ec:	80 91 02 02 	lds	r24, 0x0202
    74f0:	90 91 03 02 	lds	r25, 0x0203
    74f4:	28 17       	cp	r18, r24
    74f6:	39 07       	cpc	r19, r25
    74f8:	30 f0       	brcs	.+12     	; 0x7506 <screensaver_check+0x2a>
    74fa:	81 e0       	ldi	r24, 0x01	; 1
    74fc:	80 93 43 02 	sts	0x0243, r24
    7500:	08 95       	ret
    7502:	0e 94 f6 39 	call	0x73ec	; 0x73ec <screensaver_process>
    7506:	08 95       	ret

00007508 <preset_init>:
    7508:	80 e0       	ldi	r24, 0x00	; 0
    750a:	65 e4       	ldi	r22, 0x45	; 69
    750c:	7b e0       	ldi	r23, 0x0B	; 11
    750e:	0e 94 d8 1c 	call	0x39b0	; 0x39b0 <f_mount>
    7512:	08 95       	ret

00007514 <preset_saveDrumset>:
    7514:	ef 92       	push	r14
    7516:	ff 92       	push	r15
    7518:	0f 93       	push	r16
    751a:	1f 93       	push	r17
    751c:	df 93       	push	r29
    751e:	cf 93       	push	r28
    7520:	cd b7       	in	r28, 0x3d	; 61
    7522:	de b7       	in	r29, 0x3e	; 62
    7524:	2f 97       	sbiw	r28, 0x0f	; 15
    7526:	0f b6       	in	r0, 0x3f	; 63
    7528:	f8 94       	cli
    752a:	de bf       	out	0x3e, r29	; 62
    752c:	0f be       	out	0x3f, r0	; 63
    752e:	cd bf       	out	0x3d, r28	; 61
    7530:	00 d0       	rcall	.+0      	; 0x7532 <preset_saveDrumset+0x1e>
    7532:	00 d0       	rcall	.+0      	; 0x7534 <preset_saveDrumset+0x20>
    7534:	00 d0       	rcall	.+0      	; 0x7536 <preset_saveDrumset+0x22>
    7536:	ed b7       	in	r30, 0x3d	; 61
    7538:	fe b7       	in	r31, 0x3e	; 62
    753a:	31 96       	adiw	r30, 0x01	; 1
    753c:	8e 01       	movw	r16, r28
    753e:	0d 5f       	subi	r16, 0xFD	; 253
    7540:	1f 4f       	sbci	r17, 0xFF	; 255
    7542:	ad b7       	in	r26, 0x3d	; 61
    7544:	be b7       	in	r27, 0x3e	; 62
    7546:	12 96       	adiw	r26, 0x02	; 2
    7548:	1c 93       	st	X, r17
    754a:	0e 93       	st	-X, r16
    754c:	11 97       	sbiw	r26, 0x01	; 1
    754e:	24 e0       	ldi	r18, 0x04	; 4
    7550:	32 e0       	ldi	r19, 0x02	; 2
    7552:	33 83       	std	Z+3, r19	; 0x03
    7554:	22 83       	std	Z+2, r18	; 0x02
    7556:	84 83       	std	Z+4, r24	; 0x04
    7558:	15 82       	std	Z+5, r1	; 0x05
    755a:	0e 94 ab 43 	call	0x8756	; 0x8756 <sprintf>
    755e:	8d b7       	in	r24, 0x3d	; 61
    7560:	9e b7       	in	r25, 0x3e	; 62
    7562:	06 96       	adiw	r24, 0x06	; 6
    7564:	0f b6       	in	r0, 0x3f	; 63
    7566:	f8 94       	cli
    7568:	9e bf       	out	0x3e, r25	; 62
    756a:	0f be       	out	0x3f, r0	; 63
    756c:	8d bf       	out	0x3d, r24	; 61
    756e:	83 e7       	ldi	r24, 0x73	; 115
    7570:	9d e0       	ldi	r25, 0x0D	; 13
    7572:	b8 01       	movw	r22, r16
    7574:	4a e0       	ldi	r20, 0x0A	; 10
    7576:	0e 94 ee 1c 	call	0x39dc	; 0x39dc <f_open>
    757a:	83 e7       	ldi	r24, 0x73	; 115
    757c:	9d e0       	ldi	r25, 0x0D	; 13
    757e:	63 e9       	ldi	r22, 0x93	; 147
    7580:	7d e0       	ldi	r23, 0x0D	; 13
    7582:	48 e0       	ldi	r20, 0x08	; 8
    7584:	50 e0       	ldi	r21, 0x00	; 0
    7586:	7e 01       	movw	r14, r28
    7588:	08 94       	sec
    758a:	e1 1c       	adc	r14, r1
    758c:	f1 1c       	adc	r15, r1
    758e:	97 01       	movw	r18, r14
    7590:	0e 94 8f 20 	call	0x411e	; 0x411e <f_write>
    7594:	00 e0       	ldi	r16, 0x00	; 0
    7596:	10 e0       	ldi	r17, 0x00	; 0
    7598:	c7 01       	movw	r24, r14
    759a:	fe 2c       	mov	r15, r14
    759c:	e9 2e       	mov	r14, r25
    759e:	b8 01       	movw	r22, r16
    75a0:	66 0f       	add	r22, r22
    75a2:	77 1f       	adc	r23, r23
    75a4:	65 56       	subi	r22, 0x65	; 101
    75a6:	78 4f       	sbci	r23, 0xF8	; 248
    75a8:	83 e7       	ldi	r24, 0x73	; 115
    75aa:	9d e0       	ldi	r25, 0x0D	; 13
    75ac:	41 e0       	ldi	r20, 0x01	; 1
    75ae:	50 e0       	ldi	r21, 0x00	; 0
    75b0:	2f 2d       	mov	r18, r15
    75b2:	3e 2d       	mov	r19, r14
    75b4:	0e 94 8f 20 	call	0x411e	; 0x411e <f_write>
    75b8:	0f 5f       	subi	r16, 0xFF	; 255
    75ba:	1f 4f       	sbci	r17, 0xFF	; 255
    75bc:	0d 3d       	cpi	r16, 0xDD	; 221
    75be:	11 05       	cpc	r17, r1
    75c0:	71 f7       	brne	.-36     	; 0x759e <preset_saveDrumset+0x8a>
    75c2:	83 e7       	ldi	r24, 0x73	; 115
    75c4:	9d e0       	ldi	r25, 0x0D	; 13
    75c6:	0e 94 fc 22 	call	0x45f8	; 0x45f8 <f_close>
    75ca:	2f 96       	adiw	r28, 0x0f	; 15
    75cc:	0f b6       	in	r0, 0x3f	; 63
    75ce:	f8 94       	cli
    75d0:	de bf       	out	0x3e, r29	; 62
    75d2:	0f be       	out	0x3f, r0	; 63
    75d4:	cd bf       	out	0x3d, r28	; 61
    75d6:	cf 91       	pop	r28
    75d8:	df 91       	pop	r29
    75da:	1f 91       	pop	r17
    75dc:	0f 91       	pop	r16
    75de:	ff 90       	pop	r15
    75e0:	ef 90       	pop	r14
    75e2:	08 95       	ret

000075e4 <preset_saveGlobals>:
    75e4:	ef 92       	push	r14
    75e6:	ff 92       	push	r15
    75e8:	0f 93       	push	r16
    75ea:	1f 93       	push	r17
    75ec:	df 93       	push	r29
    75ee:	cf 93       	push	r28
    75f0:	00 d0       	rcall	.+0      	; 0x75f2 <preset_saveGlobals+0xe>
    75f2:	cd b7       	in	r28, 0x3d	; 61
    75f4:	de b7       	in	r29, 0x3e	; 62
    75f6:	83 e7       	ldi	r24, 0x73	; 115
    75f8:	9d e0       	ldi	r25, 0x0D	; 13
    75fa:	6e e0       	ldi	r22, 0x0E	; 14
    75fc:	72 e0       	ldi	r23, 0x02	; 2
    75fe:	4a e0       	ldi	r20, 0x0A	; 10
    7600:	0e 94 ee 1c 	call	0x39dc	; 0x39dc <f_open>
    7604:	0d ee       	ldi	r16, 0xED	; 237
    7606:	10 e0       	ldi	r17, 0x00	; 0
    7608:	7e 01       	movw	r14, r28
    760a:	08 94       	sec
    760c:	e1 1c       	adc	r14, r1
    760e:	f1 1c       	adc	r15, r1
    7610:	b8 01       	movw	r22, r16
    7612:	66 0f       	add	r22, r22
    7614:	77 1f       	adc	r23, r23
    7616:	65 56       	subi	r22, 0x65	; 101
    7618:	78 4f       	sbci	r23, 0xF8	; 248
    761a:	83 e7       	ldi	r24, 0x73	; 115
    761c:	9d e0       	ldi	r25, 0x0D	; 13
    761e:	41 e0       	ldi	r20, 0x01	; 1
    7620:	50 e0       	ldi	r21, 0x00	; 0
    7622:	97 01       	movw	r18, r14
    7624:	0e 94 8f 20 	call	0x411e	; 0x411e <f_write>
    7628:	0f 5f       	subi	r16, 0xFF	; 255
    762a:	1f 4f       	sbci	r17, 0xFF	; 255
    762c:	08 3f       	cpi	r16, 0xF8	; 248
    762e:	11 05       	cpc	r17, r1
    7630:	79 f7       	brne	.-34     	; 0x7610 <preset_saveGlobals+0x2c>
    7632:	83 e7       	ldi	r24, 0x73	; 115
    7634:	9d e0       	ldi	r25, 0x0D	; 13
    7636:	0e 94 fc 22 	call	0x45f8	; 0x45f8 <f_close>
    763a:	0f 90       	pop	r0
    763c:	0f 90       	pop	r0
    763e:	cf 91       	pop	r28
    7640:	df 91       	pop	r29
    7642:	1f 91       	pop	r17
    7644:	0f 91       	pop	r16
    7646:	ff 90       	pop	r15
    7648:	ef 90       	pop	r14
    764a:	08 95       	ret

0000764c <preset_loadGlobals>:
    764c:	ef 92       	push	r14
    764e:	ff 92       	push	r15
    7650:	0f 93       	push	r16
    7652:	1f 93       	push	r17
    7654:	df 93       	push	r29
    7656:	cf 93       	push	r28
    7658:	00 d0       	rcall	.+0      	; 0x765a <preset_loadGlobals+0xe>
    765a:	cd b7       	in	r28, 0x3d	; 61
    765c:	de b7       	in	r29, 0x3e	; 62
    765e:	83 e7       	ldi	r24, 0x73	; 115
    7660:	9d e0       	ldi	r25, 0x0D	; 13
    7662:	6e e0       	ldi	r22, 0x0E	; 14
    7664:	72 e0       	ldi	r23, 0x02	; 2
    7666:	41 e0       	ldi	r20, 0x01	; 1
    7668:	0e 94 ee 1c 	call	0x39dc	; 0x39dc <f_open>
    766c:	88 23       	and	r24, r24
    766e:	21 f5       	brne	.+72     	; 0x76b8 <preset_loadGlobals+0x6c>
    7670:	0d ee       	ldi	r16, 0xED	; 237
    7672:	10 e0       	ldi	r17, 0x00	; 0
    7674:	7e 01       	movw	r14, r28
    7676:	08 94       	sec
    7678:	e1 1c       	adc	r14, r1
    767a:	f1 1c       	adc	r15, r1
    767c:	11 c0       	rjmp	.+34     	; 0x76a0 <preset_loadGlobals+0x54>
    767e:	b8 01       	movw	r22, r16
    7680:	66 0f       	add	r22, r22
    7682:	77 1f       	adc	r23, r23
    7684:	65 56       	subi	r22, 0x65	; 101
    7686:	78 4f       	sbci	r23, 0xF8	; 248
    7688:	83 e7       	ldi	r24, 0x73	; 115
    768a:	9d e0       	ldi	r25, 0x0D	; 13
    768c:	41 e0       	ldi	r20, 0x01	; 1
    768e:	50 e0       	ldi	r21, 0x00	; 0
    7690:	97 01       	movw	r18, r14
    7692:	0e 94 09 1f 	call	0x3e12	; 0x3e12 <f_read>
    7696:	0f 5f       	subi	r16, 0xFF	; 255
    7698:	1f 4f       	sbci	r17, 0xFF	; 255
    769a:	08 3f       	cpi	r16, 0xF8	; 248
    769c:	11 05       	cpc	r17, r1
    769e:	21 f0       	breq	.+8      	; 0x76a8 <preset_loadGlobals+0x5c>
    76a0:	89 81       	ldd	r24, Y+1	; 0x01
    76a2:	9a 81       	ldd	r25, Y+2	; 0x02
    76a4:	00 97       	sbiw	r24, 0x00	; 0
    76a6:	59 f7       	brne	.-42     	; 0x767e <preset_loadGlobals+0x32>
    76a8:	0e 94 8b 36 	call	0x6d16	; 0x6d16 <menu_sendAllGlobals>
    76ac:	83 e7       	ldi	r24, 0x73	; 115
    76ae:	9d e0       	ldi	r25, 0x0D	; 13
    76b0:	0e 94 fc 22 	call	0x45f8	; 0x45f8 <f_close>
    76b4:	0e 94 99 32 	call	0x6532	; 0x6532 <menu_repaintAll>
    76b8:	0f 90       	pop	r0
    76ba:	0f 90       	pop	r0
    76bc:	cf 91       	pop	r28
    76be:	df 91       	pop	r29
    76c0:	1f 91       	pop	r17
    76c2:	0f 91       	pop	r16
    76c4:	ff 90       	pop	r15
    76c6:	ef 90       	pop	r14
    76c8:	08 95       	ret

000076ca <preset_getPatternName>:
    76ca:	0f 93       	push	r16
    76cc:	1f 93       	push	r17
    76ce:	df 93       	push	r29
    76d0:	cf 93       	push	r28
    76d2:	cd b7       	in	r28, 0x3d	; 61
    76d4:	de b7       	in	r29, 0x3e	; 62
    76d6:	2f 97       	sbiw	r28, 0x0f	; 15
    76d8:	0f b6       	in	r0, 0x3f	; 63
    76da:	f8 94       	cli
    76dc:	de bf       	out	0x3e, r29	; 62
    76de:	0f be       	out	0x3f, r0	; 63
    76e0:	cd bf       	out	0x3d, r28	; 61
    76e2:	00 d0       	rcall	.+0      	; 0x76e4 <preset_getPatternName+0x1a>
    76e4:	00 d0       	rcall	.+0      	; 0x76e6 <preset_getPatternName+0x1c>
    76e6:	00 d0       	rcall	.+0      	; 0x76e8 <preset_getPatternName+0x1e>
    76e8:	ed b7       	in	r30, 0x3d	; 61
    76ea:	fe b7       	in	r31, 0x3e	; 62
    76ec:	31 96       	adiw	r30, 0x01	; 1
    76ee:	8e 01       	movw	r16, r28
    76f0:	0d 5f       	subi	r16, 0xFD	; 253
    76f2:	1f 4f       	sbci	r17, 0xFF	; 255
    76f4:	ad b7       	in	r26, 0x3d	; 61
    76f6:	be b7       	in	r27, 0x3e	; 62
    76f8:	12 96       	adiw	r26, 0x02	; 2
    76fa:	1c 93       	st	X, r17
    76fc:	0e 93       	st	-X, r16
    76fe:	11 97       	sbiw	r26, 0x01	; 1
    7700:	26 e1       	ldi	r18, 0x16	; 22
    7702:	32 e0       	ldi	r19, 0x02	; 2
    7704:	33 83       	std	Z+3, r19	; 0x03
    7706:	22 83       	std	Z+2, r18	; 0x02
    7708:	84 83       	std	Z+4, r24	; 0x04
    770a:	15 82       	std	Z+5, r1	; 0x05
    770c:	0e 94 ab 43 	call	0x8756	; 0x8756 <sprintf>
    7710:	8d b7       	in	r24, 0x3d	; 61
    7712:	9e b7       	in	r25, 0x3e	; 62
    7714:	06 96       	adiw	r24, 0x06	; 6
    7716:	0f b6       	in	r0, 0x3f	; 63
    7718:	f8 94       	cli
    771a:	9e bf       	out	0x3e, r25	; 62
    771c:	0f be       	out	0x3f, r0	; 63
    771e:	8d bf       	out	0x3d, r24	; 61
    7720:	83 e9       	ldi	r24, 0x93	; 147
    7722:	9d e0       	ldi	r25, 0x0D	; 13
    7724:	67 e4       	ldi	r22, 0x47	; 71
    7726:	70 e1       	ldi	r23, 0x10	; 16
    7728:	48 e0       	ldi	r20, 0x08	; 8
    772a:	50 e0       	ldi	r21, 0x00	; 0
    772c:	0e 94 39 43 	call	0x8672	; 0x8672 <memcpy_P>
    7730:	83 e7       	ldi	r24, 0x73	; 115
    7732:	9d e0       	ldi	r25, 0x0D	; 13
    7734:	b8 01       	movw	r22, r16
    7736:	41 e0       	ldi	r20, 0x01	; 1
    7738:	0e 94 ee 1c 	call	0x39dc	; 0x39dc <f_open>
    773c:	88 23       	and	r24, r24
    773e:	91 f4       	brne	.+36     	; 0x7764 <preset_getPatternName+0x9a>
    7740:	83 e7       	ldi	r24, 0x73	; 115
    7742:	9d e0       	ldi	r25, 0x0D	; 13
    7744:	63 e9       	ldi	r22, 0x93	; 147
    7746:	7d e0       	ldi	r23, 0x0D	; 13
    7748:	48 e0       	ldi	r20, 0x08	; 8
    774a:	50 e0       	ldi	r21, 0x00	; 0
    774c:	9e 01       	movw	r18, r28
    774e:	2f 5f       	subi	r18, 0xFF	; 255
    7750:	3f 4f       	sbci	r19, 0xFF	; 255
    7752:	0e 94 09 1f 	call	0x3e12	; 0x3e12 <f_read>
    7756:	83 e7       	ldi	r24, 0x73	; 115
    7758:	9d e0       	ldi	r25, 0x0D	; 13
    775a:	0e 94 fc 22 	call	0x45f8	; 0x45f8 <f_close>
    775e:	23 e9       	ldi	r18, 0x93	; 147
    7760:	3d e0       	ldi	r19, 0x0D	; 13
    7762:	02 c0       	rjmp	.+4      	; 0x7768 <preset_getPatternName+0x9e>
    7764:	20 e0       	ldi	r18, 0x00	; 0
    7766:	30 e0       	ldi	r19, 0x00	; 0
    7768:	c9 01       	movw	r24, r18
    776a:	2f 96       	adiw	r28, 0x0f	; 15
    776c:	0f b6       	in	r0, 0x3f	; 63
    776e:	f8 94       	cli
    7770:	de bf       	out	0x3e, r29	; 62
    7772:	0f be       	out	0x3f, r0	; 63
    7774:	cd bf       	out	0x3d, r28	; 61
    7776:	cf 91       	pop	r28
    7778:	df 91       	pop	r29
    777a:	1f 91       	pop	r17
    777c:	0f 91       	pop	r16
    777e:	08 95       	ret

00007780 <preset_getDrumsetName>:
    7780:	0f 93       	push	r16
    7782:	1f 93       	push	r17
    7784:	df 93       	push	r29
    7786:	cf 93       	push	r28
    7788:	cd b7       	in	r28, 0x3d	; 61
    778a:	de b7       	in	r29, 0x3e	; 62
    778c:	2f 97       	sbiw	r28, 0x0f	; 15
    778e:	0f b6       	in	r0, 0x3f	; 63
    7790:	f8 94       	cli
    7792:	de bf       	out	0x3e, r29	; 62
    7794:	0f be       	out	0x3f, r0	; 63
    7796:	cd bf       	out	0x3d, r28	; 61
    7798:	00 d0       	rcall	.+0      	; 0x779a <preset_getDrumsetName+0x1a>
    779a:	00 d0       	rcall	.+0      	; 0x779c <preset_getDrumsetName+0x1c>
    779c:	00 d0       	rcall	.+0      	; 0x779e <preset_getDrumsetName+0x1e>
    779e:	ed b7       	in	r30, 0x3d	; 61
    77a0:	fe b7       	in	r31, 0x3e	; 62
    77a2:	31 96       	adiw	r30, 0x01	; 1
    77a4:	8e 01       	movw	r16, r28
    77a6:	0d 5f       	subi	r16, 0xFD	; 253
    77a8:	1f 4f       	sbci	r17, 0xFF	; 255
    77aa:	ad b7       	in	r26, 0x3d	; 61
    77ac:	be b7       	in	r27, 0x3e	; 62
    77ae:	12 96       	adiw	r26, 0x02	; 2
    77b0:	1c 93       	st	X, r17
    77b2:	0e 93       	st	-X, r16
    77b4:	11 97       	sbiw	r26, 0x01	; 1
    77b6:	24 e0       	ldi	r18, 0x04	; 4
    77b8:	32 e0       	ldi	r19, 0x02	; 2
    77ba:	33 83       	std	Z+3, r19	; 0x03
    77bc:	22 83       	std	Z+2, r18	; 0x02
    77be:	84 83       	std	Z+4, r24	; 0x04
    77c0:	15 82       	std	Z+5, r1	; 0x05
    77c2:	0e 94 ab 43 	call	0x8756	; 0x8756 <sprintf>
    77c6:	8d b7       	in	r24, 0x3d	; 61
    77c8:	9e b7       	in	r25, 0x3e	; 62
    77ca:	06 96       	adiw	r24, 0x06	; 6
    77cc:	0f b6       	in	r0, 0x3f	; 63
    77ce:	f8 94       	cli
    77d0:	9e bf       	out	0x3e, r25	; 62
    77d2:	0f be       	out	0x3f, r0	; 63
    77d4:	8d bf       	out	0x3d, r24	; 61
    77d6:	83 e7       	ldi	r24, 0x73	; 115
    77d8:	9d e0       	ldi	r25, 0x0D	; 13
    77da:	b8 01       	movw	r22, r16
    77dc:	41 e0       	ldi	r20, 0x01	; 1
    77de:	0e 94 ee 1c 	call	0x39dc	; 0x39dc <f_open>
    77e2:	88 23       	and	r24, r24
    77e4:	59 f0       	breq	.+22     	; 0x77fc <preset_getDrumsetName+0x7c>
    77e6:	83 e9       	ldi	r24, 0x93	; 147
    77e8:	9d e0       	ldi	r25, 0x0D	; 13
    77ea:	6e e3       	ldi	r22, 0x3E	; 62
    77ec:	70 e1       	ldi	r23, 0x10	; 16
    77ee:	48 e0       	ldi	r20, 0x08	; 8
    77f0:	50 e0       	ldi	r21, 0x00	; 0
    77f2:	0e 94 39 43 	call	0x8672	; 0x8672 <memcpy_P>
    77f6:	20 e0       	ldi	r18, 0x00	; 0
    77f8:	30 e0       	ldi	r19, 0x00	; 0
    77fa:	11 c0       	rjmp	.+34     	; 0x781e <preset_getDrumsetName+0x9e>
    77fc:	83 e7       	ldi	r24, 0x73	; 115
    77fe:	9d e0       	ldi	r25, 0x0D	; 13
    7800:	63 e9       	ldi	r22, 0x93	; 147
    7802:	7d e0       	ldi	r23, 0x0D	; 13
    7804:	48 e0       	ldi	r20, 0x08	; 8
    7806:	50 e0       	ldi	r21, 0x00	; 0
    7808:	9e 01       	movw	r18, r28
    780a:	2f 5f       	subi	r18, 0xFF	; 255
    780c:	3f 4f       	sbci	r19, 0xFF	; 255
    780e:	0e 94 09 1f 	call	0x3e12	; 0x3e12 <f_read>
    7812:	83 e7       	ldi	r24, 0x73	; 115
    7814:	9d e0       	ldi	r25, 0x0D	; 13
    7816:	0e 94 fc 22 	call	0x45f8	; 0x45f8 <f_close>
    781a:	23 e9       	ldi	r18, 0x93	; 147
    781c:	3d e0       	ldi	r19, 0x0D	; 13
    781e:	c9 01       	movw	r24, r18
    7820:	2f 96       	adiw	r28, 0x0f	; 15
    7822:	0f b6       	in	r0, 0x3f	; 63
    7824:	f8 94       	cli
    7826:	de bf       	out	0x3e, r29	; 62
    7828:	0f be       	out	0x3f, r0	; 63
    782a:	cd bf       	out	0x3d, r28	; 61
    782c:	cf 91       	pop	r28
    782e:	df 91       	pop	r29
    7830:	1f 91       	pop	r17
    7832:	0f 91       	pop	r16
    7834:	08 95       	ret

00007836 <preset_loadName>:
    7836:	61 30       	cpi	r22, 0x01	; 1
    7838:	19 f4       	brne	.+6      	; 0x7840 <preset_loadName+0xa>
    783a:	0e 94 65 3b 	call	0x76ca	; 0x76ca <preset_getPatternName>
    783e:	08 95       	ret
    7840:	0e 94 c0 3b 	call	0x7780	; 0x7780 <preset_getDrumsetName>
    7844:	08 95       	ret

00007846 <preset_queryStepDataFromSeq>:
    7846:	ff 92       	push	r15
    7848:	0f 93       	push	r16
    784a:	1f 93       	push	r17
    784c:	cf 93       	push	r28
    784e:	df 93       	push	r29
    7850:	ec 01       	movw	r28, r24
    7852:	10 92 29 02 	sts	0x0229, r1
    7856:	88 0f       	add	r24, r24
    7858:	89 2f       	mov	r24, r25
    785a:	88 1f       	adc	r24, r24
    785c:	99 0b       	sbc	r25, r25
    785e:	91 95       	neg	r25
    7860:	08 2f       	mov	r16, r24
    7862:	0f 77       	andi	r16, 0x7F	; 127
    7864:	80 2f       	mov	r24, r16
    7866:	0e 94 45 10 	call	0x208a	; 0x208a <frontPanel_sendByte>
    786a:	ce 01       	movw	r24, r28
    786c:	8f 77       	andi	r24, 0x7F	; 127
    786e:	18 2f       	mov	r17, r24
    7870:	0e 94 45 10 	call	0x208a	; 0x208a <frontPanel_sendByte>
    7874:	c0 91 33 02 	lds	r28, 0x0233
    7878:	d0 91 34 02 	lds	r29, 0x0234
    787c:	0e 94 ad 26 	call	0x4d5a	; 0x4d5a <uart_checkAndParse>
    7880:	f0 90 29 02 	lds	r15, 0x0229
    7884:	20 91 33 02 	lds	r18, 0x0233
    7888:	30 91 34 02 	lds	r19, 0x0234
    788c:	2c 1b       	sub	r18, r28
    788e:	3d 0b       	sbc	r19, r29
    7890:	2f 31       	cpi	r18, 0x1F	; 31
    7892:	31 05       	cpc	r19, r1
    7894:	50 f0       	brcs	.+20     	; 0x78aa <preset_queryStepDataFromSeq+0x64>
    7896:	c0 91 33 02 	lds	r28, 0x0233
    789a:	d0 91 34 02 	lds	r29, 0x0234
    789e:	80 2f       	mov	r24, r16
    78a0:	0e 94 45 10 	call	0x208a	; 0x208a <frontPanel_sendByte>
    78a4:	81 2f       	mov	r24, r17
    78a6:	0e 94 45 10 	call	0x208a	; 0x208a <frontPanel_sendByte>
    78aa:	ff 20       	and	r15, r15
    78ac:	39 f3       	breq	.-50     	; 0x787c <preset_queryStepDataFromSeq+0x36>
    78ae:	df 91       	pop	r29
    78b0:	cf 91       	pop	r28
    78b2:	1f 91       	pop	r17
    78b4:	0f 91       	pop	r16
    78b6:	ff 90       	pop	r15
    78b8:	08 95       	ret

000078ba <preset_sendMainStepDataToSeq>:
    78ba:	ef 92       	push	r14
    78bc:	ff 92       	push	r15
    78be:	cf 93       	push	r28
    78c0:	df 93       	push	r29
    78c2:	eb 01       	movw	r28, r22
    78c4:	9b 01       	movw	r18, r22
    78c6:	2f 77       	andi	r18, 0x7F	; 127
    78c8:	82 2f       	mov	r24, r18
    78ca:	0e 94 45 10 	call	0x208a	; 0x208a <frontPanel_sendByte>
    78ce:	ce 01       	movw	r24, r28
    78d0:	88 0f       	add	r24, r24
    78d2:	89 2f       	mov	r24, r25
    78d4:	88 1f       	adc	r24, r24
    78d6:	99 0b       	sbc	r25, r25
    78d8:	91 95       	neg	r25
    78da:	8f 77       	andi	r24, 0x7F	; 127
    78dc:	0e 94 45 10 	call	0x208a	; 0x208a <frontPanel_sendByte>
    78e0:	7e 01       	movw	r14, r28
    78e2:	8f 2d       	mov	r24, r15
    78e4:	82 95       	swap	r24
    78e6:	86 95       	lsr	r24
    78e8:	86 95       	lsr	r24
    78ea:	83 70       	andi	r24, 0x03	; 3
    78ec:	0e 94 45 10 	call	0x208a	; 0x208a <frontPanel_sendByte>
    78f0:	df 91       	pop	r29
    78f2:	cf 91       	pop	r28
    78f4:	ff 90       	pop	r15
    78f6:	ef 90       	pop	r14
    78f8:	08 95       	ret

000078fa <preset_sendStepDataToSeq>:
    78fa:	80 91 57 02 	lds	r24, 0x0257
    78fe:	8f 77       	andi	r24, 0x7F	; 127
    7900:	0e 94 45 10 	call	0x208a	; 0x208a <frontPanel_sendByte>
    7904:	80 91 58 02 	lds	r24, 0x0258
    7908:	8f 77       	andi	r24, 0x7F	; 127
    790a:	0e 94 45 10 	call	0x208a	; 0x208a <frontPanel_sendByte>
    790e:	80 91 59 02 	lds	r24, 0x0259
    7912:	8f 77       	andi	r24, 0x7F	; 127
    7914:	0e 94 45 10 	call	0x208a	; 0x208a <frontPanel_sendByte>
    7918:	80 91 5a 02 	lds	r24, 0x025A
    791c:	8f 77       	andi	r24, 0x7F	; 127
    791e:	0e 94 45 10 	call	0x208a	; 0x208a <frontPanel_sendByte>
    7922:	80 91 5b 02 	lds	r24, 0x025B
    7926:	8f 77       	andi	r24, 0x7F	; 127
    7928:	0e 94 45 10 	call	0x208a	; 0x208a <frontPanel_sendByte>
    792c:	80 91 5c 02 	lds	r24, 0x025C
    7930:	8f 77       	andi	r24, 0x7F	; 127
    7932:	0e 94 45 10 	call	0x208a	; 0x208a <frontPanel_sendByte>
    7936:	80 91 5d 02 	lds	r24, 0x025D
    793a:	8f 77       	andi	r24, 0x7F	; 127
    793c:	0e 94 45 10 	call	0x208a	; 0x208a <frontPanel_sendByte>
    7940:	30 91 57 02 	lds	r19, 0x0257
    7944:	a0 91 58 02 	lds	r26, 0x0258
    7948:	80 91 59 02 	lds	r24, 0x0259
    794c:	e0 91 5a 02 	lds	r30, 0x025A
    7950:	60 91 5b 02 	lds	r22, 0x025B
    7954:	40 91 5c 02 	lds	r20, 0x025C
    7958:	20 91 5d 02 	lds	r18, 0x025D
    795c:	b0 e0       	ldi	r27, 0x00	; 0
    795e:	a0 78       	andi	r26, 0x80	; 128
    7960:	b0 70       	andi	r27, 0x00	; 0
    7962:	96 e0       	ldi	r25, 0x06	; 6
    7964:	b5 95       	asr	r27
    7966:	a7 95       	ror	r26
    7968:	9a 95       	dec	r25
    796a:	e1 f7       	brne	.-8      	; 0x7964 <preset_sendStepDataToSeq+0x6a>
    796c:	90 e0       	ldi	r25, 0x00	; 0
    796e:	80 78       	andi	r24, 0x80	; 128
    7970:	90 70       	andi	r25, 0x00	; 0
    7972:	b5 e0       	ldi	r27, 0x05	; 5
    7974:	95 95       	asr	r25
    7976:	87 95       	ror	r24
    7978:	ba 95       	dec	r27
    797a:	e1 f7       	brne	.-8      	; 0x7974 <preset_sendStepDataToSeq+0x7a>
    797c:	8a 2b       	or	r24, r26
    797e:	33 1f       	adc	r19, r19
    7980:	33 27       	eor	r19, r19
    7982:	33 1f       	adc	r19, r19
    7984:	83 2b       	or	r24, r19
    7986:	f0 e0       	ldi	r31, 0x00	; 0
    7988:	e0 78       	andi	r30, 0x80	; 128
    798a:	f0 70       	andi	r31, 0x00	; 0
    798c:	a4 e0       	ldi	r26, 0x04	; 4
    798e:	f5 95       	asr	r31
    7990:	e7 95       	ror	r30
    7992:	aa 95       	dec	r26
    7994:	e1 f7       	brne	.-8      	; 0x798e <preset_sendStepDataToSeq+0x94>
    7996:	8e 2b       	or	r24, r30
    7998:	70 e0       	ldi	r23, 0x00	; 0
    799a:	60 78       	andi	r22, 0x80	; 128
    799c:	70 70       	andi	r23, 0x00	; 0
    799e:	e3 e0       	ldi	r30, 0x03	; 3
    79a0:	75 95       	asr	r23
    79a2:	67 95       	ror	r22
    79a4:	ea 95       	dec	r30
    79a6:	e1 f7       	brne	.-8      	; 0x79a0 <preset_sendStepDataToSeq+0xa6>
    79a8:	86 2b       	or	r24, r22
    79aa:	50 e0       	ldi	r21, 0x00	; 0
    79ac:	40 78       	andi	r20, 0x80	; 128
    79ae:	50 70       	andi	r21, 0x00	; 0
    79b0:	55 95       	asr	r21
    79b2:	47 95       	ror	r20
    79b4:	55 95       	asr	r21
    79b6:	47 95       	ror	r20
    79b8:	84 2b       	or	r24, r20
    79ba:	30 e0       	ldi	r19, 0x00	; 0
    79bc:	20 78       	andi	r18, 0x80	; 128
    79be:	30 70       	andi	r19, 0x00	; 0
    79c0:	35 95       	asr	r19
    79c2:	27 95       	ror	r18
    79c4:	82 2b       	or	r24, r18
    79c6:	0e 94 45 10 	call	0x208a	; 0x208a <frontPanel_sendByte>
    79ca:	08 95       	ret

000079cc <preset_queryPatternInfoFromSeq>:
    79cc:	cf 92       	push	r12
    79ce:	df 92       	push	r13
    79d0:	ef 92       	push	r14
    79d2:	ff 92       	push	r15
    79d4:	0f 93       	push	r16
    79d6:	1f 93       	push	r17
    79d8:	cf 93       	push	r28
    79da:	df 93       	push	r29
    79dc:	d8 2e       	mov	r13, r24
    79de:	eb 01       	movw	r28, r22
    79e0:	7a 01       	movw	r14, r20
    79e2:	10 92 29 02 	sts	0x0229, r1
    79e6:	0e 94 45 10 	call	0x208a	; 0x208a <frontPanel_sendByte>
    79ea:	00 91 33 02 	lds	r16, 0x0233
    79ee:	10 91 34 02 	lds	r17, 0x0234
    79f2:	0e 94 ad 26 	call	0x4d5a	; 0x4d5a <uart_checkAndParse>
    79f6:	c0 90 29 02 	lds	r12, 0x0229
    79fa:	20 91 33 02 	lds	r18, 0x0233
    79fe:	30 91 34 02 	lds	r19, 0x0234
    7a02:	20 1b       	sub	r18, r16
    7a04:	31 0b       	sbc	r19, r17
    7a06:	2f 31       	cpi	r18, 0x1F	; 31
    7a08:	31 05       	cpc	r19, r1
    7a0a:	38 f0       	brcs	.+14     	; 0x7a1a <preset_queryPatternInfoFromSeq+0x4e>
    7a0c:	00 91 33 02 	lds	r16, 0x0233
    7a10:	10 91 34 02 	lds	r17, 0x0234
    7a14:	8d 2d       	mov	r24, r13
    7a16:	0e 94 45 10 	call	0x208a	; 0x208a <frontPanel_sendByte>
    7a1a:	cc 20       	and	r12, r12
    7a1c:	51 f3       	breq	.-44     	; 0x79f2 <preset_queryPatternInfoFromSeq+0x26>
    7a1e:	80 91 57 02 	lds	r24, 0x0257
    7a22:	88 83       	st	Y, r24
    7a24:	80 91 58 02 	lds	r24, 0x0258
    7a28:	f7 01       	movw	r30, r14
    7a2a:	80 83       	st	Z, r24
    7a2c:	df 91       	pop	r29
    7a2e:	cf 91       	pop	r28
    7a30:	1f 91       	pop	r17
    7a32:	0f 91       	pop	r16
    7a34:	ff 90       	pop	r15
    7a36:	ef 90       	pop	r14
    7a38:	df 90       	pop	r13
    7a3a:	cf 90       	pop	r12
    7a3c:	08 95       	ret

00007a3e <preset_queryMainStepDataFromSeq>:
    7a3e:	bf 92       	push	r11
    7a40:	cf 92       	push	r12
    7a42:	df 92       	push	r13
    7a44:	ef 92       	push	r14
    7a46:	ff 92       	push	r15
    7a48:	0f 93       	push	r16
    7a4a:	1f 93       	push	r17
    7a4c:	cf 93       	push	r28
    7a4e:	df 93       	push	r29
    7a50:	ec 01       	movw	r28, r24
    7a52:	7b 01       	movw	r14, r22
    7a54:	10 92 29 02 	sts	0x0229, r1
    7a58:	88 0f       	add	r24, r24
    7a5a:	89 2f       	mov	r24, r25
    7a5c:	88 1f       	adc	r24, r24
    7a5e:	99 0b       	sbc	r25, r25
    7a60:	91 95       	neg	r25
    7a62:	2f e7       	ldi	r18, 0x7F	; 127
    7a64:	c2 2e       	mov	r12, r18
    7a66:	c8 22       	and	r12, r24
    7a68:	8c 2d       	mov	r24, r12
    7a6a:	0e 94 45 10 	call	0x208a	; 0x208a <frontPanel_sendByte>
    7a6e:	ce 01       	movw	r24, r28
    7a70:	ef e7       	ldi	r30, 0x7F	; 127
    7a72:	8e 23       	and	r24, r30
    7a74:	d8 2e       	mov	r13, r24
    7a76:	0e 94 45 10 	call	0x208a	; 0x208a <frontPanel_sendByte>
    7a7a:	00 91 33 02 	lds	r16, 0x0233
    7a7e:	10 91 34 02 	lds	r17, 0x0234
    7a82:	0e 94 ad 26 	call	0x4d5a	; 0x4d5a <uart_checkAndParse>
    7a86:	b0 90 29 02 	lds	r11, 0x0229
    7a8a:	20 91 33 02 	lds	r18, 0x0233
    7a8e:	30 91 34 02 	lds	r19, 0x0234
    7a92:	20 1b       	sub	r18, r16
    7a94:	31 0b       	sbc	r19, r17
    7a96:	2f 31       	cpi	r18, 0x1F	; 31
    7a98:	31 05       	cpc	r19, r1
    7a9a:	50 f0       	brcs	.+20     	; 0x7ab0 <preset_queryMainStepDataFromSeq+0x72>
    7a9c:	00 91 33 02 	lds	r16, 0x0233
    7aa0:	10 91 34 02 	lds	r17, 0x0234
    7aa4:	8c 2d       	mov	r24, r12
    7aa6:	0e 94 45 10 	call	0x208a	; 0x208a <frontPanel_sendByte>
    7aaa:	8d 2d       	mov	r24, r13
    7aac:	0e 94 45 10 	call	0x208a	; 0x208a <frontPanel_sendByte>
    7ab0:	bb 20       	and	r11, r11
    7ab2:	39 f3       	breq	.-50     	; 0x7a82 <preset_queryMainStepDataFromSeq+0x44>
    7ab4:	90 91 57 02 	lds	r25, 0x0257
    7ab8:	80 91 58 02 	lds	r24, 0x0258
    7abc:	39 2f       	mov	r19, r25
    7abe:	20 e0       	ldi	r18, 0x00	; 0
    7ac0:	90 e0       	ldi	r25, 0x00	; 0
    7ac2:	82 2b       	or	r24, r18
    7ac4:	93 2b       	or	r25, r19
    7ac6:	f7 01       	movw	r30, r14
    7ac8:	91 83       	std	Z+1, r25	; 0x01
    7aca:	80 83       	st	Z, r24
    7acc:	df 91       	pop	r29
    7ace:	cf 91       	pop	r28
    7ad0:	1f 91       	pop	r17
    7ad2:	0f 91       	pop	r16
    7ad4:	ff 90       	pop	r15
    7ad6:	ef 90       	pop	r14
    7ad8:	df 90       	pop	r13
    7ada:	cf 90       	pop	r12
    7adc:	bf 90       	pop	r11
    7ade:	08 95       	ret

00007ae0 <preset_savePattern>:
    7ae0:	af 92       	push	r10
    7ae2:	bf 92       	push	r11
    7ae4:	cf 92       	push	r12
    7ae6:	df 92       	push	r13
    7ae8:	ef 92       	push	r14
    7aea:	ff 92       	push	r15
    7aec:	0f 93       	push	r16
    7aee:	1f 93       	push	r17
    7af0:	df 93       	push	r29
    7af2:	cf 93       	push	r28
    7af4:	cd b7       	in	r28, 0x3d	; 61
    7af6:	de b7       	in	r29, 0x3e	; 62
    7af8:	68 97       	sbiw	r28, 0x18	; 24
    7afa:	0f b6       	in	r0, 0x3f	; 63
    7afc:	f8 94       	cli
    7afe:	de bf       	out	0x3e, r29	; 62
    7b00:	0f be       	out	0x3f, r0	; 63
    7b02:	cd bf       	out	0x3d, r28	; 61
    7b04:	e8 2e       	mov	r14, r24
    7b06:	0e 94 84 10 	call	0x2108	; 0x2108 <lcd_clear>
    7b0a:	0e 94 d1 10 	call	0x21a2	; 0x21a2 <lcd_home>
    7b0e:	8f e2       	ldi	r24, 0x2F	; 47
    7b10:	90 e1       	ldi	r25, 0x10	; 16
    7b12:	0e 94 05 11 	call	0x220a	; 0x220a <lcd_string_F>
    7b16:	00 d0       	rcall	.+0      	; 0x7b18 <preset_savePattern+0x38>
    7b18:	00 d0       	rcall	.+0      	; 0x7b1a <preset_savePattern+0x3a>
    7b1a:	00 d0       	rcall	.+0      	; 0x7b1c <preset_savePattern+0x3c>
    7b1c:	ed b7       	in	r30, 0x3d	; 61
    7b1e:	fe b7       	in	r31, 0x3e	; 62
    7b20:	31 96       	adiw	r30, 0x01	; 1
    7b22:	8e 01       	movw	r16, r28
    7b24:	04 5f       	subi	r16, 0xF4	; 244
    7b26:	1f 4f       	sbci	r17, 0xFF	; 255
    7b28:	ad b7       	in	r26, 0x3d	; 61
    7b2a:	be b7       	in	r27, 0x3e	; 62
    7b2c:	12 96       	adiw	r26, 0x02	; 2
    7b2e:	1c 93       	st	X, r17
    7b30:	0e 93       	st	-X, r16
    7b32:	11 97       	sbiw	r26, 0x01	; 1
    7b34:	26 e1       	ldi	r18, 0x16	; 22
    7b36:	32 e0       	ldi	r19, 0x02	; 2
    7b38:	33 83       	std	Z+3, r19	; 0x03
    7b3a:	22 83       	std	Z+2, r18	; 0x02
    7b3c:	e4 82       	std	Z+4, r14	; 0x04
    7b3e:	15 82       	std	Z+5, r1	; 0x05
    7b40:	0e 94 ab 43 	call	0x8756	; 0x8756 <sprintf>
    7b44:	8d b7       	in	r24, 0x3d	; 61
    7b46:	9e b7       	in	r25, 0x3e	; 62
    7b48:	06 96       	adiw	r24, 0x06	; 6
    7b4a:	0f b6       	in	r0, 0x3f	; 63
    7b4c:	f8 94       	cli
    7b4e:	9e bf       	out	0x3e, r25	; 62
    7b50:	0f be       	out	0x3f, r0	; 63
    7b52:	8d bf       	out	0x3d, r24	; 61
    7b54:	83 e7       	ldi	r24, 0x73	; 115
    7b56:	9d e0       	ldi	r25, 0x0D	; 13
    7b58:	b8 01       	movw	r22, r16
    7b5a:	4a e0       	ldi	r20, 0x0A	; 10
    7b5c:	0e 94 ee 1c 	call	0x39dc	; 0x39dc <f_open>
    7b60:	83 e7       	ldi	r24, 0x73	; 115
    7b62:	9d e0       	ldi	r25, 0x0D	; 13
    7b64:	63 e9       	ldi	r22, 0x93	; 147
    7b66:	7d e0       	ldi	r23, 0x0D	; 13
    7b68:	48 e0       	ldi	r20, 0x08	; 8
    7b6a:	50 e0       	ldi	r21, 0x00	; 0
    7b6c:	9e 01       	movw	r18, r28
    7b6e:	2d 5f       	subi	r18, 0xFD	; 253
    7b70:	3f 4f       	sbci	r19, 0xFF	; 255
    7b72:	0e 94 8f 20 	call	0x411e	; 0x411e <f_write>
    7b76:	05 c0       	rjmp	.+10     	; 0x7b82 <preset_savePattern+0xa2>
    7b78:	80 ef       	ldi	r24, 0xF0	; 240
    7b7a:	0e 94 45 10 	call	0x208a	; 0x208a <frontPanel_sendByte>
    7b7e:	0e 94 ad 26 	call	0x4d5a	; 0x4d5a <uart_checkAndParse>
    7b82:	80 91 4d 02 	lds	r24, 0x024D
    7b86:	80 3f       	cpi	r24, 0xF0	; 240
    7b88:	b9 f7       	brne	.-18     	; 0x7b78 <preset_savePattern+0x98>
    7b8a:	af e4       	ldi	r26, 0x4F	; 79
    7b8c:	b3 ec       	ldi	r27, 0xC3	; 195
    7b8e:	11 97       	sbiw	r26, 0x01	; 1
    7b90:	f1 f7       	brne	.-4      	; 0x7b8e <preset_savePattern+0xae>
    7b92:	00 c0       	rjmp	.+0      	; 0x7b94 <preset_savePattern+0xb4>
    7b94:	00 00       	nop
    7b96:	81 e0       	ldi	r24, 0x01	; 1
    7b98:	0e 94 45 10 	call	0x208a	; 0x208a <frontPanel_sendByte>
    7b9c:	81 e0       	ldi	r24, 0x01	; 1
    7b9e:	80 93 28 02 	sts	0x0228, r24
    7ba2:	00 e0       	ldi	r16, 0x00	; 0
    7ba4:	10 e0       	ldi	r17, 0x00	; 0
    7ba6:	f7 e0       	ldi	r31, 0x07	; 7
    7ba8:	ef 2e       	mov	r14, r31
    7baa:	f1 2c       	mov	r15, r1
    7bac:	ec 0e       	add	r14, r28
    7bae:	fd 1e       	adc	r15, r29
    7bb0:	e3 e0       	ldi	r30, 0x03	; 3
    7bb2:	ce 2e       	mov	r12, r30
    7bb4:	d1 2c       	mov	r13, r1
    7bb6:	cc 0e       	add	r12, r28
    7bb8:	dd 1e       	adc	r13, r29
    7bba:	07 fd       	sbrc	r16, 7
    7bbc:	1b c0       	rjmp	.+54     	; 0x7bf4 <preset_savePattern+0x114>
    7bbe:	80 e0       	ldi	r24, 0x00	; 0
    7bc0:	62 e0       	ldi	r22, 0x02	; 2
    7bc2:	0e 94 db 10 	call	0x21b6	; 0x21b6 <lcd_setcursor>
    7bc6:	b8 01       	movw	r22, r16
    7bc8:	80 e0       	ldi	r24, 0x00	; 0
    7bca:	90 e0       	ldi	r25, 0x00	; 0
    7bcc:	0e 94 9f 41 	call	0x833e	; 0x833e <__floatunsisf>
    7bd0:	29 e4       	ldi	r18, 0x49	; 73
    7bd2:	32 e9       	ldi	r19, 0x92	; 146
    7bd4:	44 e6       	ldi	r20, 0x64	; 100
    7bd6:	5c e3       	ldi	r21, 0x3C	; 60
    7bd8:	0e 94 31 42 	call	0x8462	; 0x8462 <__mulsf3>
    7bdc:	0e 94 73 41 	call	0x82e6	; 0x82e6 <__fixunssfsi>
    7be0:	86 2f       	mov	r24, r22
    7be2:	90 e0       	ldi	r25, 0x00	; 0
    7be4:	b7 01       	movw	r22, r14
    7be6:	4a e0       	ldi	r20, 0x0A	; 10
    7be8:	50 e0       	ldi	r21, 0x00	; 0
    7bea:	0e 94 8a 43 	call	0x8714	; 0x8714 <itoa>
    7bee:	c7 01       	movw	r24, r14
    7bf0:	0e 94 f1 10 	call	0x21e2	; 0x21e2 <lcd_string>
    7bf4:	c8 01       	movw	r24, r16
    7bf6:	0e 94 23 3c 	call	0x7846	; 0x7846 <preset_queryStepDataFromSeq>
    7bfa:	83 e7       	ldi	r24, 0x73	; 115
    7bfc:	9d e0       	ldi	r25, 0x0D	; 13
    7bfe:	67 e5       	ldi	r22, 0x57	; 87
    7c00:	72 e0       	ldi	r23, 0x02	; 2
    7c02:	47 e0       	ldi	r20, 0x07	; 7
    7c04:	50 e0       	ldi	r21, 0x00	; 0
    7c06:	96 01       	movw	r18, r12
    7c08:	0e 94 8f 20 	call	0x411e	; 0x411e <f_write>
    7c0c:	0f 5f       	subi	r16, 0xFF	; 255
    7c0e:	1f 4f       	sbci	r17, 0xFF	; 255
    7c10:	bc e1       	ldi	r27, 0x1C	; 28
    7c12:	00 30       	cpi	r16, 0x00	; 0
    7c14:	1b 07       	cpc	r17, r27
    7c16:	89 f6       	brne	.-94     	; 0x7bba <preset_savePattern+0xda>
    7c18:	87 ef       	ldi	r24, 0xF7	; 247
    7c1a:	0e 94 45 10 	call	0x208a	; 0x208a <frontPanel_sendByte>
    7c1e:	10 92 4d 02 	sts	0x024D, r1
    7c22:	05 c0       	rjmp	.+10     	; 0x7c2e <preset_savePattern+0x14e>
    7c24:	80 ef       	ldi	r24, 0xF0	; 240
    7c26:	0e 94 45 10 	call	0x208a	; 0x208a <frontPanel_sendByte>
    7c2a:	0e 94 ad 26 	call	0x4d5a	; 0x4d5a <uart_checkAndParse>
    7c2e:	80 91 4d 02 	lds	r24, 0x024D
    7c32:	80 3f       	cpi	r24, 0xF0	; 240
    7c34:	b9 f7       	brne	.-18     	; 0x7c24 <preset_savePattern+0x144>
    7c36:	8f e3       	ldi	r24, 0x3F	; 63
    7c38:	9d e0       	ldi	r25, 0x0D	; 13
    7c3a:	a3 e0       	ldi	r26, 0x03	; 3
    7c3c:	81 50       	subi	r24, 0x01	; 1
    7c3e:	90 40       	sbci	r25, 0x00	; 0
    7c40:	a0 40       	sbci	r26, 0x00	; 0
    7c42:	e1 f7       	brne	.-8      	; 0x7c3c <preset_savePattern+0x15c>
    7c44:	00 c0       	rjmp	.+0      	; 0x7c46 <preset_savePattern+0x166>
    7c46:	00 00       	nop
    7c48:	83 e0       	ldi	r24, 0x03	; 3
    7c4a:	0e 94 45 10 	call	0x208a	; 0x208a <frontPanel_sendByte>
    7c4e:	83 e0       	ldi	r24, 0x03	; 3
    7c50:	80 93 28 02 	sts	0x0228, r24
    7c54:	00 e0       	ldi	r16, 0x00	; 0
    7c56:	10 e0       	ldi	r17, 0x00	; 0
    7c58:	75 e0       	ldi	r23, 0x05	; 5
    7c5a:	e7 2e       	mov	r14, r23
    7c5c:	f1 2c       	mov	r15, r1
    7c5e:	ec 0e       	add	r14, r28
    7c60:	fd 1e       	adc	r15, r29
    7c62:	63 e0       	ldi	r22, 0x03	; 3
    7c64:	c6 2e       	mov	r12, r22
    7c66:	d1 2c       	mov	r13, r1
    7c68:	cc 0e       	add	r12, r28
    7c6a:	dd 1e       	adc	r13, r29
    7c6c:	c8 01       	movw	r24, r16
    7c6e:	b7 01       	movw	r22, r14
    7c70:	0e 94 1f 3d 	call	0x7a3e	; 0x7a3e <preset_queryMainStepDataFromSeq>
    7c74:	83 e7       	ldi	r24, 0x73	; 115
    7c76:	9d e0       	ldi	r25, 0x0D	; 13
    7c78:	b7 01       	movw	r22, r14
    7c7a:	42 e0       	ldi	r20, 0x02	; 2
    7c7c:	50 e0       	ldi	r21, 0x00	; 0
    7c7e:	96 01       	movw	r18, r12
    7c80:	0e 94 8f 20 	call	0x411e	; 0x411e <f_write>
    7c84:	0f 5f       	subi	r16, 0xFF	; 255
    7c86:	1f 4f       	sbci	r17, 0xFF	; 255
    7c88:	08 33       	cpi	r16, 0x38	; 56
    7c8a:	11 05       	cpc	r17, r1
    7c8c:	79 f7       	brne	.-34     	; 0x7c6c <preset_savePattern+0x18c>
    7c8e:	87 ef       	ldi	r24, 0xF7	; 247
    7c90:	0e 94 45 10 	call	0x208a	; 0x208a <frontPanel_sendByte>
    7c94:	10 92 4d 02 	sts	0x024D, r1
    7c98:	05 c0       	rjmp	.+10     	; 0x7ca4 <preset_savePattern+0x1c4>
    7c9a:	80 ef       	ldi	r24, 0xF0	; 240
    7c9c:	0e 94 45 10 	call	0x208a	; 0x208a <frontPanel_sendByte>
    7ca0:	0e 94 ad 26 	call	0x4d5a	; 0x4d5a <uart_checkAndParse>
    7ca4:	80 91 4d 02 	lds	r24, 0x024D
    7ca8:	80 3f       	cpi	r24, 0xF0	; 240
    7caa:	b9 f7       	brne	.-18     	; 0x7c9a <preset_savePattern+0x1ba>
    7cac:	8f e3       	ldi	r24, 0x3F	; 63
    7cae:	9d e0       	ldi	r25, 0x0D	; 13
    7cb0:	a3 e0       	ldi	r26, 0x03	; 3
    7cb2:	81 50       	subi	r24, 0x01	; 1
    7cb4:	90 40       	sbci	r25, 0x00	; 0
    7cb6:	a0 40       	sbci	r26, 0x00	; 0
    7cb8:	e1 f7       	brne	.-8      	; 0x7cb2 <preset_savePattern+0x1d2>
    7cba:	00 c0       	rjmp	.+0      	; 0x7cbc <preset_savePattern+0x1dc>
    7cbc:	00 00       	nop
    7cbe:	85 e0       	ldi	r24, 0x05	; 5
    7cc0:	0e 94 45 10 	call	0x208a	; 0x208a <frontPanel_sendByte>
    7cc4:	85 e0       	ldi	r24, 0x05	; 5
    7cc6:	80 93 28 02 	sts	0x0228, r24
    7cca:	00 e0       	ldi	r16, 0x00	; 0
    7ccc:	10 e0       	ldi	r17, 0x00	; 0
    7cce:	52 e0       	ldi	r21, 0x02	; 2
    7cd0:	a5 2e       	mov	r10, r21
    7cd2:	b1 2c       	mov	r11, r1
    7cd4:	ac 0e       	add	r10, r28
    7cd6:	bd 1e       	adc	r11, r29
    7cd8:	6e 01       	movw	r12, r28
    7cda:	08 94       	sec
    7cdc:	c1 1c       	adc	r12, r1
    7cde:	d1 1c       	adc	r13, r1
    7ce0:	43 e0       	ldi	r20, 0x03	; 3
    7ce2:	e4 2e       	mov	r14, r20
    7ce4:	f1 2c       	mov	r15, r1
    7ce6:	ec 0e       	add	r14, r28
    7ce8:	fd 1e       	adc	r15, r29
    7cea:	80 2f       	mov	r24, r16
    7cec:	b6 01       	movw	r22, r12
    7cee:	a5 01       	movw	r20, r10
    7cf0:	0e 94 e6 3c 	call	0x79cc	; 0x79cc <preset_queryPatternInfoFromSeq>
    7cf4:	83 e7       	ldi	r24, 0x73	; 115
    7cf6:	9d e0       	ldi	r25, 0x0D	; 13
    7cf8:	b6 01       	movw	r22, r12
    7cfa:	41 e0       	ldi	r20, 0x01	; 1
    7cfc:	50 e0       	ldi	r21, 0x00	; 0
    7cfe:	97 01       	movw	r18, r14
    7d00:	0e 94 8f 20 	call	0x411e	; 0x411e <f_write>
    7d04:	83 e7       	ldi	r24, 0x73	; 115
    7d06:	9d e0       	ldi	r25, 0x0D	; 13
    7d08:	b5 01       	movw	r22, r10
    7d0a:	41 e0       	ldi	r20, 0x01	; 1
    7d0c:	50 e0       	ldi	r21, 0x00	; 0
    7d0e:	97 01       	movw	r18, r14
    7d10:	0e 94 8f 20 	call	0x411e	; 0x411e <f_write>
    7d14:	0f 5f       	subi	r16, 0xFF	; 255
    7d16:	1f 4f       	sbci	r17, 0xFF	; 255
    7d18:	08 30       	cpi	r16, 0x08	; 8
    7d1a:	11 05       	cpc	r17, r1
    7d1c:	31 f7       	brne	.-52     	; 0x7cea <preset_savePattern+0x20a>
    7d1e:	87 ef       	ldi	r24, 0xF7	; 247
    7d20:	0e 94 45 10 	call	0x208a	; 0x208a <frontPanel_sendByte>
    7d24:	10 92 4d 02 	sts	0x024D, r1
    7d28:	83 e7       	ldi	r24, 0x73	; 115
    7d2a:	9d e0       	ldi	r25, 0x0D	; 13
    7d2c:	6f e6       	ldi	r22, 0x6F	; 111
    7d2e:	79 e0       	ldi	r23, 0x09	; 9
    7d30:	41 e0       	ldi	r20, 0x01	; 1
    7d32:	50 e0       	ldi	r21, 0x00	; 0
    7d34:	97 01       	movw	r18, r14
    7d36:	0e 94 8f 20 	call	0x411e	; 0x411e <f_write>
    7d3a:	83 e7       	ldi	r24, 0x73	; 115
    7d3c:	9d e0       	ldi	r25, 0x0D	; 13
    7d3e:	0e 94 fc 22 	call	0x45f8	; 0x45f8 <f_close>
    7d42:	0e 94 99 32 	call	0x6532	; 0x6532 <menu_repaintAll>
    7d46:	68 96       	adiw	r28, 0x18	; 24
    7d48:	0f b6       	in	r0, 0x3f	; 63
    7d4a:	f8 94       	cli
    7d4c:	de bf       	out	0x3e, r29	; 62
    7d4e:	0f be       	out	0x3f, r0	; 63
    7d50:	cd bf       	out	0x3d, r28	; 61
    7d52:	cf 91       	pop	r28
    7d54:	df 91       	pop	r29
    7d56:	1f 91       	pop	r17
    7d58:	0f 91       	pop	r16
    7d5a:	ff 90       	pop	r15
    7d5c:	ef 90       	pop	r14
    7d5e:	df 90       	pop	r13
    7d60:	cf 90       	pop	r12
    7d62:	bf 90       	pop	r11
    7d64:	af 90       	pop	r10
    7d66:	08 95       	ret

00007d68 <preset_loadPattern>:
    7d68:	af 92       	push	r10
    7d6a:	bf 92       	push	r11
    7d6c:	cf 92       	push	r12
    7d6e:	df 92       	push	r13
    7d70:	ef 92       	push	r14
    7d72:	ff 92       	push	r15
    7d74:	0f 93       	push	r16
    7d76:	1f 93       	push	r17
    7d78:	df 93       	push	r29
    7d7a:	cf 93       	push	r28
    7d7c:	cd b7       	in	r28, 0x3d	; 61
    7d7e:	de b7       	in	r29, 0x3e	; 62
    7d80:	63 97       	sbiw	r28, 0x13	; 19
    7d82:	0f b6       	in	r0, 0x3f	; 63
    7d84:	f8 94       	cli
    7d86:	de bf       	out	0x3e, r29	; 62
    7d88:	0f be       	out	0x3f, r0	; 63
    7d8a:	cd bf       	out	0x3d, r28	; 61
    7d8c:	00 d0       	rcall	.+0      	; 0x7d8e <preset_loadPattern+0x26>
    7d8e:	00 d0       	rcall	.+0      	; 0x7d90 <preset_loadPattern+0x28>
    7d90:	00 d0       	rcall	.+0      	; 0x7d92 <preset_loadPattern+0x2a>
    7d92:	ed b7       	in	r30, 0x3d	; 61
    7d94:	fe b7       	in	r31, 0x3e	; 62
    7d96:	31 96       	adiw	r30, 0x01	; 1
    7d98:	8e 01       	movw	r16, r28
    7d9a:	09 5f       	subi	r16, 0xF9	; 249
    7d9c:	1f 4f       	sbci	r17, 0xFF	; 255
    7d9e:	ad b7       	in	r26, 0x3d	; 61
    7da0:	be b7       	in	r27, 0x3e	; 62
    7da2:	12 96       	adiw	r26, 0x02	; 2
    7da4:	1c 93       	st	X, r17
    7da6:	0e 93       	st	-X, r16
    7da8:	11 97       	sbiw	r26, 0x01	; 1
    7daa:	26 e1       	ldi	r18, 0x16	; 22
    7dac:	32 e0       	ldi	r19, 0x02	; 2
    7dae:	33 83       	std	Z+3, r19	; 0x03
    7db0:	22 83       	std	Z+2, r18	; 0x02
    7db2:	84 83       	std	Z+4, r24	; 0x04
    7db4:	15 82       	std	Z+5, r1	; 0x05
    7db6:	0e 94 ab 43 	call	0x8756	; 0x8756 <sprintf>
    7dba:	8d b7       	in	r24, 0x3d	; 61
    7dbc:	9e b7       	in	r25, 0x3e	; 62
    7dbe:	06 96       	adiw	r24, 0x06	; 6
    7dc0:	0f b6       	in	r0, 0x3f	; 63
    7dc2:	f8 94       	cli
    7dc4:	9e bf       	out	0x3e, r25	; 62
    7dc6:	0f be       	out	0x3f, r0	; 63
    7dc8:	8d bf       	out	0x3d, r24	; 61
    7dca:	83 e7       	ldi	r24, 0x73	; 115
    7dcc:	9d e0       	ldi	r25, 0x0D	; 13
    7dce:	b8 01       	movw	r22, r16
    7dd0:	41 e0       	ldi	r20, 0x01	; 1
    7dd2:	0e 94 ee 1c 	call	0x39dc	; 0x39dc <f_open>
    7dd6:	88 23       	and	r24, r24
    7dd8:	09 f0       	breq	.+2      	; 0x7ddc <preset_loadPattern+0x74>
    7dda:	e4 c0       	rjmp	.+456    	; 0x7fa4 <preset_loadPattern+0x23c>
    7ddc:	0e 94 84 10 	call	0x2108	; 0x2108 <lcd_clear>
    7de0:	0e 94 d1 10 	call	0x21a2	; 0x21a2 <lcd_home>
    7de4:	8f e1       	ldi	r24, 0x1F	; 31
    7de6:	90 e1       	ldi	r25, 0x10	; 16
    7de8:	0e 94 05 11 	call	0x220a	; 0x220a <lcd_string_F>
    7dec:	83 e7       	ldi	r24, 0x73	; 115
    7dee:	9d e0       	ldi	r25, 0x0D	; 13
    7df0:	63 e9       	ldi	r22, 0x93	; 147
    7df2:	7d e0       	ldi	r23, 0x0D	; 13
    7df4:	48 e0       	ldi	r20, 0x08	; 8
    7df6:	50 e0       	ldi	r21, 0x00	; 0
    7df8:	9e 01       	movw	r18, r28
    7dfa:	2d 5f       	subi	r18, 0xFD	; 253
    7dfc:	3f 4f       	sbci	r19, 0xFF	; 255
    7dfe:	0e 94 09 1f 	call	0x3e12	; 0x3e12 <f_read>
    7e02:	05 c0       	rjmp	.+10     	; 0x7e0e <preset_loadPattern+0xa6>
    7e04:	80 ef       	ldi	r24, 0xF0	; 240
    7e06:	0e 94 45 10 	call	0x208a	; 0x208a <frontPanel_sendByte>
    7e0a:	0e 94 ad 26 	call	0x4d5a	; 0x4d5a <uart_checkAndParse>
    7e0e:	80 91 4d 02 	lds	r24, 0x024D
    7e12:	80 3f       	cpi	r24, 0xF0	; 240
    7e14:	b9 f7       	brne	.-18     	; 0x7e04 <preset_loadPattern+0x9c>
    7e16:	af e4       	ldi	r26, 0x4F	; 79
    7e18:	b3 ec       	ldi	r27, 0xC3	; 195
    7e1a:	11 97       	sbiw	r26, 0x01	; 1
    7e1c:	f1 f7       	brne	.-4      	; 0x7e1a <preset_loadPattern+0xb2>
    7e1e:	00 c0       	rjmp	.+0      	; 0x7e20 <preset_loadPattern+0xb8>
    7e20:	00 00       	nop
    7e22:	82 e0       	ldi	r24, 0x02	; 2
    7e24:	0e 94 45 10 	call	0x208a	; 0x208a <frontPanel_sendByte>
    7e28:	82 e0       	ldi	r24, 0x02	; 2
    7e2a:	80 93 28 02 	sts	0x0228, r24
    7e2e:	00 e0       	ldi	r16, 0x00	; 0
    7e30:	10 e0       	ldi	r17, 0x00	; 0
    7e32:	23 e0       	ldi	r18, 0x03	; 3
    7e34:	e2 2e       	mov	r14, r18
    7e36:	f1 2c       	mov	r15, r1
    7e38:	ec 0e       	add	r14, r28
    7e3a:	fd 1e       	adc	r15, r29
    7e3c:	83 e7       	ldi	r24, 0x73	; 115
    7e3e:	9d e0       	ldi	r25, 0x0D	; 13
    7e40:	67 e5       	ldi	r22, 0x57	; 87
    7e42:	72 e0       	ldi	r23, 0x02	; 2
    7e44:	47 e0       	ldi	r20, 0x07	; 7
    7e46:	50 e0       	ldi	r21, 0x00	; 0
    7e48:	97 01       	movw	r18, r14
    7e4a:	0e 94 09 1f 	call	0x3e12	; 0x3e12 <f_read>
    7e4e:	c8 01       	movw	r24, r16
    7e50:	0e 94 7d 3c 	call	0x78fa	; 0x78fa <preset_sendStepDataToSeq>
    7e54:	87 ee       	ldi	r24, 0xE7	; 231
    7e56:	93 e0       	ldi	r25, 0x03	; 3
    7e58:	01 97       	sbiw	r24, 0x01	; 1
    7e5a:	f1 f7       	brne	.-4      	; 0x7e58 <preset_loadPattern+0xf0>
    7e5c:	00 c0       	rjmp	.+0      	; 0x7e5e <preset_loadPattern+0xf6>
    7e5e:	00 00       	nop
    7e60:	0f 5f       	subi	r16, 0xFF	; 255
    7e62:	1f 4f       	sbci	r17, 0xFF	; 255
    7e64:	9c e1       	ldi	r25, 0x1C	; 28
    7e66:	00 30       	cpi	r16, 0x00	; 0
    7e68:	19 07       	cpc	r17, r25
    7e6a:	41 f7       	brne	.-48     	; 0x7e3c <preset_loadPattern+0xd4>
    7e6c:	87 ef       	ldi	r24, 0xF7	; 247
    7e6e:	0e 94 45 10 	call	0x208a	; 0x208a <frontPanel_sendByte>
    7e72:	10 92 4d 02 	sts	0x024D, r1
    7e76:	05 c0       	rjmp	.+10     	; 0x7e82 <preset_loadPattern+0x11a>
    7e78:	80 ef       	ldi	r24, 0xF0	; 240
    7e7a:	0e 94 45 10 	call	0x208a	; 0x208a <frontPanel_sendByte>
    7e7e:	0e 94 ad 26 	call	0x4d5a	; 0x4d5a <uart_checkAndParse>
    7e82:	80 91 4d 02 	lds	r24, 0x024D
    7e86:	80 3f       	cpi	r24, 0xF0	; 240
    7e88:	b9 f7       	brne	.-18     	; 0x7e78 <preset_loadPattern+0x110>
    7e8a:	8f e3       	ldi	r24, 0x3F	; 63
    7e8c:	9d e0       	ldi	r25, 0x0D	; 13
    7e8e:	a3 e0       	ldi	r26, 0x03	; 3
    7e90:	81 50       	subi	r24, 0x01	; 1
    7e92:	90 40       	sbci	r25, 0x00	; 0
    7e94:	a0 40       	sbci	r26, 0x00	; 0
    7e96:	e1 f7       	brne	.-8      	; 0x7e90 <preset_loadPattern+0x128>
    7e98:	00 c0       	rjmp	.+0      	; 0x7e9a <preset_loadPattern+0x132>
    7e9a:	00 00       	nop
    7e9c:	84 e0       	ldi	r24, 0x04	; 4
    7e9e:	0e 94 45 10 	call	0x208a	; 0x208a <frontPanel_sendByte>
    7ea2:	84 e0       	ldi	r24, 0x04	; 4
    7ea4:	80 93 28 02 	sts	0x0228, r24
    7ea8:	00 e0       	ldi	r16, 0x00	; 0
    7eaa:	10 e0       	ldi	r17, 0x00	; 0
    7eac:	95 e0       	ldi	r25, 0x05	; 5
    7eae:	e9 2e       	mov	r14, r25
    7eb0:	f1 2c       	mov	r15, r1
    7eb2:	ec 0e       	add	r14, r28
    7eb4:	fd 1e       	adc	r15, r29
    7eb6:	83 e0       	ldi	r24, 0x03	; 3
    7eb8:	c8 2e       	mov	r12, r24
    7eba:	d1 2c       	mov	r13, r1
    7ebc:	cc 0e       	add	r12, r28
    7ebe:	dd 1e       	adc	r13, r29
    7ec0:	83 e7       	ldi	r24, 0x73	; 115
    7ec2:	9d e0       	ldi	r25, 0x0D	; 13
    7ec4:	b7 01       	movw	r22, r14
    7ec6:	42 e0       	ldi	r20, 0x02	; 2
    7ec8:	50 e0       	ldi	r21, 0x00	; 0
    7eca:	96 01       	movw	r18, r12
    7ecc:	0e 94 09 1f 	call	0x3e12	; 0x3e12 <f_read>
    7ed0:	6d 81       	ldd	r22, Y+5	; 0x05
    7ed2:	7e 81       	ldd	r23, Y+6	; 0x06
    7ed4:	c8 01       	movw	r24, r16
    7ed6:	0e 94 5d 3c 	call	0x78ba	; 0x78ba <preset_sendMainStepDataToSeq>
    7eda:	a7 ee       	ldi	r26, 0xE7	; 231
    7edc:	b3 e0       	ldi	r27, 0x03	; 3
    7ede:	11 97       	sbiw	r26, 0x01	; 1
    7ee0:	f1 f7       	brne	.-4      	; 0x7ede <preset_loadPattern+0x176>
    7ee2:	00 c0       	rjmp	.+0      	; 0x7ee4 <preset_loadPattern+0x17c>
    7ee4:	00 00       	nop
    7ee6:	0f 5f       	subi	r16, 0xFF	; 255
    7ee8:	1f 4f       	sbci	r17, 0xFF	; 255
    7eea:	08 33       	cpi	r16, 0x38	; 56
    7eec:	11 05       	cpc	r17, r1
    7eee:	41 f7       	brne	.-48     	; 0x7ec0 <preset_loadPattern+0x158>
    7ef0:	87 ef       	ldi	r24, 0xF7	; 247
    7ef2:	0e 94 45 10 	call	0x208a	; 0x208a <frontPanel_sendByte>
    7ef6:	00 e0       	ldi	r16, 0x00	; 0
    7ef8:	10 e0       	ldi	r17, 0x00	; 0
    7efa:	b2 e0       	ldi	r27, 0x02	; 2
    7efc:	ab 2e       	mov	r10, r27
    7efe:	b1 2c       	mov	r11, r1
    7f00:	ac 0e       	add	r10, r28
    7f02:	bd 1e       	adc	r11, r29
    7f04:	a3 e0       	ldi	r26, 0x03	; 3
    7f06:	ea 2e       	mov	r14, r26
    7f08:	f1 2c       	mov	r15, r1
    7f0a:	ec 0e       	add	r14, r28
    7f0c:	fd 1e       	adc	r15, r29
    7f0e:	6e 01       	movw	r12, r28
    7f10:	08 94       	sec
    7f12:	c1 1c       	adc	r12, r1
    7f14:	d1 1c       	adc	r13, r1
    7f16:	83 e7       	ldi	r24, 0x73	; 115
    7f18:	9d e0       	ldi	r25, 0x0D	; 13
    7f1a:	b5 01       	movw	r22, r10
    7f1c:	41 e0       	ldi	r20, 0x01	; 1
    7f1e:	50 e0       	ldi	r21, 0x00	; 0
    7f20:	97 01       	movw	r18, r14
    7f22:	0e 94 09 1f 	call	0x3e12	; 0x3e12 <f_read>
    7f26:	83 e7       	ldi	r24, 0x73	; 115
    7f28:	9d e0       	ldi	r25, 0x0D	; 13
    7f2a:	b6 01       	movw	r22, r12
    7f2c:	41 e0       	ldi	r20, 0x01	; 1
    7f2e:	50 e0       	ldi	r21, 0x00	; 0
    7f30:	97 01       	movw	r18, r14
    7f32:	0e 94 09 1f 	call	0x3e12	; 0x3e12 <f_read>
    7f36:	82 eb       	ldi	r24, 0xB2	; 178
    7f38:	6a e1       	ldi	r22, 0x1A	; 26
    7f3a:	40 2f       	mov	r20, r16
    7f3c:	0e 94 90 0d 	call	0x1b20	; 0x1b20 <frontPanel_sendData>
    7f40:	82 eb       	ldi	r24, 0xB2	; 178
    7f42:	6d e1       	ldi	r22, 0x1D	; 29
    7f44:	49 81       	ldd	r20, Y+1	; 0x01
    7f46:	0e 94 90 0d 	call	0x1b20	; 0x1b20 <frontPanel_sendData>
    7f4a:	82 eb       	ldi	r24, 0xB2	; 178
    7f4c:	6e e1       	ldi	r22, 0x1E	; 30
    7f4e:	4a 81       	ldd	r20, Y+2	; 0x02
    7f50:	0e 94 90 0d 	call	0x1b20	; 0x1b20 <frontPanel_sendData>
    7f54:	87 ee       	ldi	r24, 0xE7	; 231
    7f56:	93 e0       	ldi	r25, 0x03	; 3
    7f58:	01 97       	sbiw	r24, 0x01	; 1
    7f5a:	f1 f7       	brne	.-4      	; 0x7f58 <preset_loadPattern+0x1f0>
    7f5c:	00 c0       	rjmp	.+0      	; 0x7f5e <preset_loadPattern+0x1f6>
    7f5e:	00 00       	nop
    7f60:	0f 5f       	subi	r16, 0xFF	; 255
    7f62:	1f 4f       	sbci	r17, 0xFF	; 255
    7f64:	08 30       	cpi	r16, 0x08	; 8
    7f66:	11 05       	cpc	r17, r1
    7f68:	b1 f6       	brne	.-84     	; 0x7f16 <preset_loadPattern+0x1ae>
    7f6a:	82 eb       	ldi	r24, 0xB2	; 178
    7f6c:	6a e1       	ldi	r22, 0x1A	; 26
    7f6e:	40 91 3a 02 	lds	r20, 0x023A
    7f72:	0e 94 90 0d 	call	0x1b20	; 0x1b20 <frontPanel_sendData>
    7f76:	83 e7       	ldi	r24, 0x73	; 115
    7f78:	9d e0       	ldi	r25, 0x0D	; 13
    7f7a:	6f e6       	ldi	r22, 0x6F	; 111
    7f7c:	79 e0       	ldi	r23, 0x09	; 9
    7f7e:	41 e0       	ldi	r20, 0x01	; 1
    7f80:	50 e0       	ldi	r21, 0x00	; 0
    7f82:	97 01       	movw	r18, r14
    7f84:	0e 94 09 1f 	call	0x3e12	; 0x3e12 <f_read>
    7f88:	82 eb       	ldi	r24, 0xB2	; 178
    7f8a:	65 e2       	ldi	r22, 0x25	; 37
    7f8c:	40 91 6f 09 	lds	r20, 0x096F
    7f90:	0e 94 90 0d 	call	0x1b20	; 0x1b20 <frontPanel_sendData>
    7f94:	83 e7       	ldi	r24, 0x73	; 115
    7f96:	9d e0       	ldi	r25, 0x0D	; 13
    7f98:	0e 94 fc 22 	call	0x45f8	; 0x45f8 <f_close>
    7f9c:	0e 94 99 32 	call	0x6532	; 0x6532 <menu_repaintAll>
    7fa0:	81 e0       	ldi	r24, 0x01	; 1
    7fa2:	01 c0       	rjmp	.+2      	; 0x7fa6 <preset_loadPattern+0x23e>
    7fa4:	80 e0       	ldi	r24, 0x00	; 0
    7fa6:	63 96       	adiw	r28, 0x13	; 19
    7fa8:	0f b6       	in	r0, 0x3f	; 63
    7faa:	f8 94       	cli
    7fac:	de bf       	out	0x3e, r29	; 62
    7fae:	0f be       	out	0x3f, r0	; 63
    7fb0:	cd bf       	out	0x3d, r28	; 61
    7fb2:	cf 91       	pop	r28
    7fb4:	df 91       	pop	r29
    7fb6:	1f 91       	pop	r17
    7fb8:	0f 91       	pop	r16
    7fba:	ff 90       	pop	r15
    7fbc:	ef 90       	pop	r14
    7fbe:	df 90       	pop	r13
    7fc0:	cf 90       	pop	r12
    7fc2:	bf 90       	pop	r11
    7fc4:	af 90       	pop	r10
    7fc6:	08 95       	ret

00007fc8 <preset_morph>:
    7fc8:	af 92       	push	r10
    7fca:	bf 92       	push	r11
    7fcc:	cf 92       	push	r12
    7fce:	df 92       	push	r13
    7fd0:	ef 92       	push	r14
    7fd2:	ff 92       	push	r15
    7fd4:	0f 93       	push	r16
    7fd6:	1f 93       	push	r17
    7fd8:	cf 93       	push	r28
    7fda:	df 93       	push	r29
    7fdc:	0b e9       	ldi	r16, 0x9B	; 155
    7fde:	17 e0       	ldi	r17, 0x07	; 7
    7fe0:	4b e8       	ldi	r20, 0x8B	; 139
    7fe2:	e4 2e       	mov	r14, r20
    7fe4:	49 e0       	ldi	r20, 0x09	; 9
    7fe6:	f4 2e       	mov	r15, r20
    7fe8:	c0 e0       	ldi	r28, 0x00	; 0
    7fea:	d0 e0       	ldi	r29, 0x00	; 0
    7fec:	a8 2e       	mov	r10, r24
    7fee:	bb 24       	eor	r11, r11
    7ff0:	3f ef       	ldi	r19, 0xFF	; 255
    7ff2:	c3 2e       	mov	r12, r19
    7ff4:	d1 2c       	mov	r13, r1
    7ff6:	f8 01       	movw	r30, r16
    7ff8:	40 81       	ld	r20, Z
    7ffa:	50 e0       	ldi	r21, 0x00	; 0
    7ffc:	f7 01       	movw	r30, r14
    7ffe:	20 81       	ld	r18, Z
    8000:	30 e0       	ldi	r19, 0x00	; 0
    8002:	24 1b       	sub	r18, r20
    8004:	35 0b       	sbc	r19, r21
    8006:	a2 9e       	mul	r10, r18
    8008:	c0 01       	movw	r24, r0
    800a:	a3 9e       	mul	r10, r19
    800c:	90 0d       	add	r25, r0
    800e:	b2 9e       	mul	r11, r18
    8010:	90 0d       	add	r25, r0
    8012:	11 24       	eor	r1, r1
    8014:	4c 9d       	mul	r20, r12
    8016:	90 01       	movw	r18, r0
    8018:	4d 9d       	mul	r20, r13
    801a:	30 0d       	add	r19, r0
    801c:	5c 9d       	mul	r21, r12
    801e:	30 0d       	add	r19, r0
    8020:	11 24       	eor	r1, r1
    8022:	82 0f       	add	r24, r18
    8024:	93 1f       	adc	r25, r19
    8026:	b6 01       	movw	r22, r12
    8028:	0e 94 e4 42 	call	0x85c8	; 0x85c8 <__divmodhi4>
    802c:	46 2f       	mov	r20, r22
    802e:	c0 38       	cpi	r28, 0x80	; 128
    8030:	d1 05       	cpc	r29, r1
    8032:	1c f4       	brge	.+6      	; 0x803a <preset_morph+0x72>
    8034:	80 eb       	ldi	r24, 0xB0	; 176
    8036:	6c 2f       	mov	r22, r28
    8038:	04 c0       	rjmp	.+8      	; 0x8042 <preset_morph+0x7a>
    803a:	ce 01       	movw	r24, r28
    803c:	80 58       	subi	r24, 0x80	; 128
    803e:	68 2f       	mov	r22, r24
    8040:	86 eb       	ldi	r24, 0xB6	; 182
    8042:	0e 94 90 0d 	call	0x1b20	; 0x1b20 <frontPanel_sendData>
    8046:	0e 94 7e 25 	call	0x4afc	; 0x4afc <din_readNextInput>
    804a:	0e 94 f4 25 	call	0x4be8	; 0x4be8 <dout_updateOutputs>
    804e:	0e 94 ad 26 	call	0x4d5a	; 0x4d5a <uart_checkAndParse>
    8052:	21 96       	adiw	r28, 0x01	; 1
    8054:	0e 5f       	subi	r16, 0xFE	; 254
    8056:	1f 4f       	sbci	r17, 0xFF	; 255
    8058:	e2 e0       	ldi	r30, 0x02	; 2
    805a:	f0 e0       	ldi	r31, 0x00	; 0
    805c:	ee 0e       	add	r14, r30
    805e:	ff 1e       	adc	r15, r31
    8060:	cd 3d       	cpi	r28, 0xDD	; 221
    8062:	d1 05       	cpc	r29, r1
    8064:	41 f6       	brne	.-112    	; 0x7ff6 <preset_morph+0x2e>
    8066:	df 91       	pop	r29
    8068:	cf 91       	pop	r28
    806a:	1f 91       	pop	r17
    806c:	0f 91       	pop	r16
    806e:	ff 90       	pop	r15
    8070:	ef 90       	pop	r14
    8072:	df 90       	pop	r13
    8074:	cf 90       	pop	r12
    8076:	bf 90       	pop	r11
    8078:	af 90       	pop	r10
    807a:	08 95       	ret

0000807c <preset_loadDrumset>:
    807c:	df 92       	push	r13
    807e:	ef 92       	push	r14
    8080:	ff 92       	push	r15
    8082:	0f 93       	push	r16
    8084:	1f 93       	push	r17
    8086:	df 93       	push	r29
    8088:	cf 93       	push	r28
    808a:	cd b7       	in	r28, 0x3d	; 61
    808c:	de b7       	in	r29, 0x3e	; 62
    808e:	2f 97       	sbiw	r28, 0x0f	; 15
    8090:	0f b6       	in	r0, 0x3f	; 63
    8092:	f8 94       	cli
    8094:	de bf       	out	0x3e, r29	; 62
    8096:	0f be       	out	0x3f, r0	; 63
    8098:	cd bf       	out	0x3d, r28	; 61
    809a:	06 2f       	mov	r16, r22
    809c:	00 d0       	rcall	.+0      	; 0x809e <preset_loadDrumset+0x22>
    809e:	00 d0       	rcall	.+0      	; 0x80a0 <preset_loadDrumset+0x24>
    80a0:	00 d0       	rcall	.+0      	; 0x80a2 <preset_loadDrumset+0x26>
    80a2:	ed b7       	in	r30, 0x3d	; 61
    80a4:	fe b7       	in	r31, 0x3e	; 62
    80a6:	31 96       	adiw	r30, 0x01	; 1
    80a8:	a3 e0       	ldi	r26, 0x03	; 3
    80aa:	ea 2e       	mov	r14, r26
    80ac:	f1 2c       	mov	r15, r1
    80ae:	ec 0e       	add	r14, r28
    80b0:	fd 1e       	adc	r15, r29
    80b2:	ad b7       	in	r26, 0x3d	; 61
    80b4:	be b7       	in	r27, 0x3e	; 62
    80b6:	12 96       	adiw	r26, 0x02	; 2
    80b8:	fc 92       	st	X, r15
    80ba:	ee 92       	st	-X, r14
    80bc:	11 97       	sbiw	r26, 0x01	; 1
    80be:	24 e0       	ldi	r18, 0x04	; 4
    80c0:	32 e0       	ldi	r19, 0x02	; 2
    80c2:	33 83       	std	Z+3, r19	; 0x03
    80c4:	22 83       	std	Z+2, r18	; 0x02
    80c6:	84 83       	std	Z+4, r24	; 0x04
    80c8:	15 82       	std	Z+5, r1	; 0x05
    80ca:	0e 94 ab 43 	call	0x8756	; 0x8756 <sprintf>
    80ce:	ed b7       	in	r30, 0x3d	; 61
    80d0:	fe b7       	in	r31, 0x3e	; 62
    80d2:	36 96       	adiw	r30, 0x06	; 6
    80d4:	0f b6       	in	r0, 0x3f	; 63
    80d6:	f8 94       	cli
    80d8:	fe bf       	out	0x3e, r31	; 62
    80da:	0f be       	out	0x3f, r0	; 63
    80dc:	ed bf       	out	0x3d, r30	; 61
    80de:	83 e7       	ldi	r24, 0x73	; 115
    80e0:	9d e0       	ldi	r25, 0x0D	; 13
    80e2:	b7 01       	movw	r22, r14
    80e4:	41 e0       	ldi	r20, 0x01	; 1
    80e6:	0e 94 ee 1c 	call	0x39dc	; 0x39dc <f_open>
    80ea:	88 23       	and	r24, r24
    80ec:	09 f0       	breq	.+2      	; 0x80f0 <preset_loadDrumset+0x74>
    80ee:	87 c0       	rjmp	.+270    	; 0x81fe <preset_loadDrumset+0x182>
    80f0:	83 e7       	ldi	r24, 0x73	; 115
    80f2:	9d e0       	ldi	r25, 0x0D	; 13
    80f4:	63 e9       	ldi	r22, 0x93	; 147
    80f6:	7d e0       	ldi	r23, 0x0D	; 13
    80f8:	48 e0       	ldi	r20, 0x08	; 8
    80fa:	50 e0       	ldi	r21, 0x00	; 0
    80fc:	7e 01       	movw	r14, r28
    80fe:	08 94       	sec
    8100:	e1 1c       	adc	r14, r1
    8102:	f1 1c       	adc	r15, r1
    8104:	97 01       	movw	r18, r14
    8106:	0e 94 09 1f 	call	0x3e12	; 0x3e12 <f_read>
    810a:	81 e0       	ldi	r24, 0x01	; 1
    810c:	90 e0       	ldi	r25, 0x00	; 0
    810e:	9a 83       	std	Y+2, r25	; 0x02
    8110:	89 83       	std	Y+1, r24	; 0x01
    8112:	00 23       	and	r16, r16
    8114:	c9 f4       	brne	.+50     	; 0x8148 <preset_loadDrumset+0xcc>
    8116:	00 e0       	ldi	r16, 0x00	; 0
    8118:	10 e0       	ldi	r17, 0x00	; 0
    811a:	c7 01       	movw	r24, r14
    811c:	fe 2c       	mov	r15, r14
    811e:	e9 2e       	mov	r14, r25
    8120:	32 c0       	rjmp	.+100    	; 0x8186 <preset_loadDrumset+0x10a>
    8122:	b8 01       	movw	r22, r16
    8124:	66 0f       	add	r22, r22
    8126:	77 1f       	adc	r23, r23
    8128:	65 57       	subi	r22, 0x75	; 117
    812a:	76 4f       	sbci	r23, 0xF6	; 246
    812c:	83 e7       	ldi	r24, 0x73	; 115
    812e:	9d e0       	ldi	r25, 0x0D	; 13
    8130:	41 e0       	ldi	r20, 0x01	; 1
    8132:	50 e0       	ldi	r21, 0x00	; 0
    8134:	2d 2d       	mov	r18, r13
    8136:	3f 2d       	mov	r19, r15
    8138:	0e 94 09 1f 	call	0x3e12	; 0x3e12 <f_read>
    813c:	0f 5f       	subi	r16, 0xFF	; 255
    813e:	1f 4f       	sbci	r17, 0xFF	; 255
    8140:	0d 3d       	cpi	r16, 0xDD	; 221
    8142:	11 05       	cpc	r17, r1
    8144:	21 f4       	brne	.+8      	; 0x814e <preset_loadDrumset+0xd2>
    8146:	51 c0       	rjmp	.+162    	; 0x81ea <preset_loadDrumset+0x16e>
    8148:	00 e0       	ldi	r16, 0x00	; 0
    814a:	10 e0       	ldi	r17, 0x00	; 0
    814c:	de 2c       	mov	r13, r14
    814e:	89 81       	ldd	r24, Y+1	; 0x01
    8150:	9a 81       	ldd	r25, Y+2	; 0x02
    8152:	00 97       	sbiw	r24, 0x00	; 0
    8154:	31 f7       	brne	.-52     	; 0x8122 <preset_loadDrumset+0xa6>
    8156:	49 c0       	rjmp	.+146    	; 0x81ea <preset_loadDrumset+0x16e>
    8158:	b8 01       	movw	r22, r16
    815a:	66 0f       	add	r22, r22
    815c:	77 1f       	adc	r23, r23
    815e:	65 56       	subi	r22, 0x65	; 101
    8160:	78 4f       	sbci	r23, 0xF8	; 248
    8162:	83 e7       	ldi	r24, 0x73	; 115
    8164:	9d e0       	ldi	r25, 0x0D	; 13
    8166:	41 e0       	ldi	r20, 0x01	; 1
    8168:	50 e0       	ldi	r21, 0x00	; 0
    816a:	2f 2d       	mov	r18, r15
    816c:	3e 2d       	mov	r19, r14
    816e:	0e 94 09 1f 	call	0x3e12	; 0x3e12 <f_read>
    8172:	0f 5f       	subi	r16, 0xFF	; 255
    8174:	1f 4f       	sbci	r17, 0xFF	; 255
    8176:	0d 3d       	cpi	r16, 0xDD	; 221
    8178:	11 05       	cpc	r17, r1
    817a:	29 f4       	brne	.+10     	; 0x8186 <preset_loadDrumset+0x10a>
    817c:	05 ec       	ldi	r16, 0xC5	; 197
    817e:	18 e0       	ldi	r17, 0x08	; 8
    8180:	ee 24       	eor	r14, r14
    8182:	ff 24       	eor	r15, r15
    8184:	05 c0       	rjmp	.+10     	; 0x8190 <preset_loadDrumset+0x114>
    8186:	89 81       	ldd	r24, Y+1	; 0x01
    8188:	9a 81       	ldd	r25, Y+2	; 0x02
    818a:	00 97       	sbiw	r24, 0x00	; 0
    818c:	29 f7       	brne	.-54     	; 0x8158 <preset_loadDrumset+0xdc>
    818e:	f6 cf       	rjmp	.-20     	; 0x817c <preset_loadDrumset+0x100>
    8190:	d8 01       	movw	r26, r16
    8192:	8c 91       	ld	r24, X
    8194:	6e 2d       	mov	r22, r14
    8196:	0e 94 ca 2a 	call	0x5594	; 0x5594 <getModTargetValue>
    819a:	97 01       	movw	r18, r14
    819c:	2f 73       	andi	r18, 0x3F	; 63
    819e:	30 70       	andi	r19, 0x00	; 0
    81a0:	d2 2e       	mov	r13, r18
    81a2:	dd 0c       	add	r13, r13
    81a4:	68 2f       	mov	r22, r24
    81a6:	66 1f       	adc	r22, r22
    81a8:	66 27       	eor	r22, r22
    81aa:	66 1f       	adc	r22, r22
    81ac:	6d 29       	or	r22, r13
    81ae:	48 2f       	mov	r20, r24
    81b0:	4f 77       	andi	r20, 0x7F	; 127
    81b2:	88 eb       	ldi	r24, 0xB8	; 184
    81b4:	0e 94 90 0d 	call	0x1b20	; 0x1b20 <frontPanel_sendData>
    81b8:	f8 01       	movw	r30, r16
    81ba:	60 8d       	ldd	r22, Z+24	; 0x18
    81bc:	61 50       	subi	r22, 0x01	; 1
    81be:	84 a1       	ldd	r24, Z+36	; 0x24
    81c0:	0e 94 ca 2a 	call	0x5594	; 0x5594 <getModTargetValue>
    81c4:	68 2f       	mov	r22, r24
    81c6:	66 1f       	adc	r22, r22
    81c8:	66 27       	eor	r22, r22
    81ca:	66 1f       	adc	r22, r22
    81cc:	6d 29       	or	r22, r13
    81ce:	48 2f       	mov	r20, r24
    81d0:	4f 77       	andi	r20, 0x7F	; 127
    81d2:	87 eb       	ldi	r24, 0xB7	; 183
    81d4:	0e 94 90 0d 	call	0x1b20	; 0x1b20 <frontPanel_sendData>
    81d8:	08 94       	sec
    81da:	e1 1c       	adc	r14, r1
    81dc:	f1 1c       	adc	r15, r1
    81de:	0e 5f       	subi	r16, 0xFE	; 254
    81e0:	1f 4f       	sbci	r17, 0xFF	; 255
    81e2:	f6 e0       	ldi	r31, 0x06	; 6
    81e4:	ef 16       	cp	r14, r31
    81e6:	f1 04       	cpc	r15, r1
    81e8:	99 f6       	brne	.-90     	; 0x8190 <preset_loadDrumset+0x114>
    81ea:	83 e7       	ldi	r24, 0x73	; 115
    81ec:	9d e0       	ldi	r25, 0x0D	; 13
    81ee:	0e 94 fc 22 	call	0x45f8	; 0x45f8 <f_close>
    81f2:	80 91 57 09 	lds	r24, 0x0957
    81f6:	0e 94 e4 3f 	call	0x7fc8	; 0x7fc8 <preset_morph>
    81fa:	81 e0       	ldi	r24, 0x01	; 1
    81fc:	01 c0       	rjmp	.+2      	; 0x8200 <preset_loadDrumset+0x184>
    81fe:	80 e0       	ldi	r24, 0x00	; 0
    8200:	2f 96       	adiw	r28, 0x0f	; 15
    8202:	0f b6       	in	r0, 0x3f	; 63
    8204:	f8 94       	cli
    8206:	de bf       	out	0x3e, r29	; 62
    8208:	0f be       	out	0x3f, r0	; 63
    820a:	cd bf       	out	0x3d, r28	; 61
    820c:	cf 91       	pop	r28
    820e:	df 91       	pop	r29
    8210:	1f 91       	pop	r17
    8212:	0f 91       	pop	r16
    8214:	ff 90       	pop	r15
    8216:	ef 90       	pop	r14
    8218:	df 90       	pop	r13
    821a:	08 95       	ret

0000821c <__subsf3>:
    821c:	50 58       	subi	r21, 0x80	; 128

0000821e <__addsf3>:
    821e:	bb 27       	eor	r27, r27
    8220:	aa 27       	eor	r26, r26
    8222:	0e d0       	rcall	.+28     	; 0x8240 <__addsf3x>
    8224:	e0 c0       	rjmp	.+448    	; 0x83e6 <__fp_round>
    8226:	d1 d0       	rcall	.+418    	; 0x83ca <__fp_pscA>
    8228:	30 f0       	brcs	.+12     	; 0x8236 <__addsf3+0x18>
    822a:	d6 d0       	rcall	.+428    	; 0x83d8 <__fp_pscB>
    822c:	20 f0       	brcs	.+8      	; 0x8236 <__addsf3+0x18>
    822e:	31 f4       	brne	.+12     	; 0x823c <__addsf3+0x1e>
    8230:	9f 3f       	cpi	r25, 0xFF	; 255
    8232:	11 f4       	brne	.+4      	; 0x8238 <__addsf3+0x1a>
    8234:	1e f4       	brtc	.+6      	; 0x823c <__addsf3+0x1e>
    8236:	c6 c0       	rjmp	.+396    	; 0x83c4 <__fp_nan>
    8238:	0e f4       	brtc	.+2      	; 0x823c <__addsf3+0x1e>
    823a:	e0 95       	com	r30
    823c:	e7 fb       	bst	r30, 7
    823e:	bc c0       	rjmp	.+376    	; 0x83b8 <__fp_inf>

00008240 <__addsf3x>:
    8240:	e9 2f       	mov	r30, r25
    8242:	e2 d0       	rcall	.+452    	; 0x8408 <__fp_split3>
    8244:	80 f3       	brcs	.-32     	; 0x8226 <__addsf3+0x8>
    8246:	ba 17       	cp	r27, r26
    8248:	62 07       	cpc	r22, r18
    824a:	73 07       	cpc	r23, r19
    824c:	84 07       	cpc	r24, r20
    824e:	95 07       	cpc	r25, r21
    8250:	18 f0       	brcs	.+6      	; 0x8258 <__addsf3x+0x18>
    8252:	71 f4       	brne	.+28     	; 0x8270 <__addsf3x+0x30>
    8254:	9e f5       	brtc	.+102    	; 0x82bc <__addsf3x+0x7c>
    8256:	fa c0       	rjmp	.+500    	; 0x844c <__fp_zero>
    8258:	0e f4       	brtc	.+2      	; 0x825c <__addsf3x+0x1c>
    825a:	e0 95       	com	r30
    825c:	0b 2e       	mov	r0, r27
    825e:	ba 2f       	mov	r27, r26
    8260:	a0 2d       	mov	r26, r0
    8262:	0b 01       	movw	r0, r22
    8264:	b9 01       	movw	r22, r18
    8266:	90 01       	movw	r18, r0
    8268:	0c 01       	movw	r0, r24
    826a:	ca 01       	movw	r24, r20
    826c:	a0 01       	movw	r20, r0
    826e:	11 24       	eor	r1, r1
    8270:	ff 27       	eor	r31, r31
    8272:	59 1b       	sub	r21, r25
    8274:	99 f0       	breq	.+38     	; 0x829c <__addsf3x+0x5c>
    8276:	59 3f       	cpi	r21, 0xF9	; 249
    8278:	50 f4       	brcc	.+20     	; 0x828e <__addsf3x+0x4e>
    827a:	50 3e       	cpi	r21, 0xE0	; 224
    827c:	68 f1       	brcs	.+90     	; 0x82d8 <__addsf3x+0x98>
    827e:	1a 16       	cp	r1, r26
    8280:	f0 40       	sbci	r31, 0x00	; 0
    8282:	a2 2f       	mov	r26, r18
    8284:	23 2f       	mov	r18, r19
    8286:	34 2f       	mov	r19, r20
    8288:	44 27       	eor	r20, r20
    828a:	58 5f       	subi	r21, 0xF8	; 248
    828c:	f3 cf       	rjmp	.-26     	; 0x8274 <__addsf3x+0x34>
    828e:	46 95       	lsr	r20
    8290:	37 95       	ror	r19
    8292:	27 95       	ror	r18
    8294:	a7 95       	ror	r26
    8296:	f0 40       	sbci	r31, 0x00	; 0
    8298:	53 95       	inc	r21
    829a:	c9 f7       	brne	.-14     	; 0x828e <__addsf3x+0x4e>
    829c:	7e f4       	brtc	.+30     	; 0x82bc <__addsf3x+0x7c>
    829e:	1f 16       	cp	r1, r31
    82a0:	ba 0b       	sbc	r27, r26
    82a2:	62 0b       	sbc	r22, r18
    82a4:	73 0b       	sbc	r23, r19
    82a6:	84 0b       	sbc	r24, r20
    82a8:	ba f0       	brmi	.+46     	; 0x82d8 <__addsf3x+0x98>
    82aa:	91 50       	subi	r25, 0x01	; 1
    82ac:	a1 f0       	breq	.+40     	; 0x82d6 <__addsf3x+0x96>
    82ae:	ff 0f       	add	r31, r31
    82b0:	bb 1f       	adc	r27, r27
    82b2:	66 1f       	adc	r22, r22
    82b4:	77 1f       	adc	r23, r23
    82b6:	88 1f       	adc	r24, r24
    82b8:	c2 f7       	brpl	.-16     	; 0x82aa <__addsf3x+0x6a>
    82ba:	0e c0       	rjmp	.+28     	; 0x82d8 <__addsf3x+0x98>
    82bc:	ba 0f       	add	r27, r26
    82be:	62 1f       	adc	r22, r18
    82c0:	73 1f       	adc	r23, r19
    82c2:	84 1f       	adc	r24, r20
    82c4:	48 f4       	brcc	.+18     	; 0x82d8 <__addsf3x+0x98>
    82c6:	87 95       	ror	r24
    82c8:	77 95       	ror	r23
    82ca:	67 95       	ror	r22
    82cc:	b7 95       	ror	r27
    82ce:	f7 95       	ror	r31
    82d0:	9e 3f       	cpi	r25, 0xFE	; 254
    82d2:	08 f0       	brcs	.+2      	; 0x82d6 <__addsf3x+0x96>
    82d4:	b3 cf       	rjmp	.-154    	; 0x823c <__addsf3+0x1e>
    82d6:	93 95       	inc	r25
    82d8:	88 0f       	add	r24, r24
    82da:	08 f0       	brcs	.+2      	; 0x82de <__addsf3x+0x9e>
    82dc:	99 27       	eor	r25, r25
    82de:	ee 0f       	add	r30, r30
    82e0:	97 95       	ror	r25
    82e2:	87 95       	ror	r24
    82e4:	08 95       	ret

000082e6 <__fixunssfsi>:
    82e6:	98 d0       	rcall	.+304    	; 0x8418 <__fp_splitA>
    82e8:	88 f0       	brcs	.+34     	; 0x830c <__fixunssfsi+0x26>
    82ea:	9f 57       	subi	r25, 0x7F	; 127
    82ec:	90 f0       	brcs	.+36     	; 0x8312 <__fixunssfsi+0x2c>
    82ee:	b9 2f       	mov	r27, r25
    82f0:	99 27       	eor	r25, r25
    82f2:	b7 51       	subi	r27, 0x17	; 23
    82f4:	a0 f0       	brcs	.+40     	; 0x831e <__fixunssfsi+0x38>
    82f6:	d1 f0       	breq	.+52     	; 0x832c <__fixunssfsi+0x46>
    82f8:	66 0f       	add	r22, r22
    82fa:	77 1f       	adc	r23, r23
    82fc:	88 1f       	adc	r24, r24
    82fe:	99 1f       	adc	r25, r25
    8300:	1a f0       	brmi	.+6      	; 0x8308 <__fixunssfsi+0x22>
    8302:	ba 95       	dec	r27
    8304:	c9 f7       	brne	.-14     	; 0x82f8 <__fixunssfsi+0x12>
    8306:	12 c0       	rjmp	.+36     	; 0x832c <__fixunssfsi+0x46>
    8308:	b1 30       	cpi	r27, 0x01	; 1
    830a:	81 f0       	breq	.+32     	; 0x832c <__fixunssfsi+0x46>
    830c:	9f d0       	rcall	.+318    	; 0x844c <__fp_zero>
    830e:	b1 e0       	ldi	r27, 0x01	; 1
    8310:	08 95       	ret
    8312:	9c c0       	rjmp	.+312    	; 0x844c <__fp_zero>
    8314:	67 2f       	mov	r22, r23
    8316:	78 2f       	mov	r23, r24
    8318:	88 27       	eor	r24, r24
    831a:	b8 5f       	subi	r27, 0xF8	; 248
    831c:	39 f0       	breq	.+14     	; 0x832c <__fixunssfsi+0x46>
    831e:	b9 3f       	cpi	r27, 0xF9	; 249
    8320:	cc f3       	brlt	.-14     	; 0x8314 <__fixunssfsi+0x2e>
    8322:	86 95       	lsr	r24
    8324:	77 95       	ror	r23
    8326:	67 95       	ror	r22
    8328:	b3 95       	inc	r27
    832a:	d9 f7       	brne	.-10     	; 0x8322 <__fixunssfsi+0x3c>
    832c:	3e f4       	brtc	.+14     	; 0x833c <__fixunssfsi+0x56>
    832e:	90 95       	com	r25
    8330:	80 95       	com	r24
    8332:	70 95       	com	r23
    8334:	61 95       	neg	r22
    8336:	7f 4f       	sbci	r23, 0xFF	; 255
    8338:	8f 4f       	sbci	r24, 0xFF	; 255
    833a:	9f 4f       	sbci	r25, 0xFF	; 255
    833c:	08 95       	ret

0000833e <__floatunsisf>:
    833e:	e8 94       	clt
    8340:	09 c0       	rjmp	.+18     	; 0x8354 <__floatsisf+0x12>

00008342 <__floatsisf>:
    8342:	97 fb       	bst	r25, 7
    8344:	3e f4       	brtc	.+14     	; 0x8354 <__floatsisf+0x12>
    8346:	90 95       	com	r25
    8348:	80 95       	com	r24
    834a:	70 95       	com	r23
    834c:	61 95       	neg	r22
    834e:	7f 4f       	sbci	r23, 0xFF	; 255
    8350:	8f 4f       	sbci	r24, 0xFF	; 255
    8352:	9f 4f       	sbci	r25, 0xFF	; 255
    8354:	99 23       	and	r25, r25
    8356:	a9 f0       	breq	.+42     	; 0x8382 <__floatsisf+0x40>
    8358:	f9 2f       	mov	r31, r25
    835a:	96 e9       	ldi	r25, 0x96	; 150
    835c:	bb 27       	eor	r27, r27
    835e:	93 95       	inc	r25
    8360:	f6 95       	lsr	r31
    8362:	87 95       	ror	r24
    8364:	77 95       	ror	r23
    8366:	67 95       	ror	r22
    8368:	b7 95       	ror	r27
    836a:	f1 11       	cpse	r31, r1
    836c:	f8 cf       	rjmp	.-16     	; 0x835e <__floatsisf+0x1c>
    836e:	fa f4       	brpl	.+62     	; 0x83ae <__floatsisf+0x6c>
    8370:	bb 0f       	add	r27, r27
    8372:	11 f4       	brne	.+4      	; 0x8378 <__floatsisf+0x36>
    8374:	60 ff       	sbrs	r22, 0
    8376:	1b c0       	rjmp	.+54     	; 0x83ae <__floatsisf+0x6c>
    8378:	6f 5f       	subi	r22, 0xFF	; 255
    837a:	7f 4f       	sbci	r23, 0xFF	; 255
    837c:	8f 4f       	sbci	r24, 0xFF	; 255
    837e:	9f 4f       	sbci	r25, 0xFF	; 255
    8380:	16 c0       	rjmp	.+44     	; 0x83ae <__floatsisf+0x6c>
    8382:	88 23       	and	r24, r24
    8384:	11 f0       	breq	.+4      	; 0x838a <__floatsisf+0x48>
    8386:	96 e9       	ldi	r25, 0x96	; 150
    8388:	11 c0       	rjmp	.+34     	; 0x83ac <__floatsisf+0x6a>
    838a:	77 23       	and	r23, r23
    838c:	21 f0       	breq	.+8      	; 0x8396 <__floatsisf+0x54>
    838e:	9e e8       	ldi	r25, 0x8E	; 142
    8390:	87 2f       	mov	r24, r23
    8392:	76 2f       	mov	r23, r22
    8394:	05 c0       	rjmp	.+10     	; 0x83a0 <__floatsisf+0x5e>
    8396:	66 23       	and	r22, r22
    8398:	71 f0       	breq	.+28     	; 0x83b6 <__floatsisf+0x74>
    839a:	96 e8       	ldi	r25, 0x86	; 134
    839c:	86 2f       	mov	r24, r22
    839e:	70 e0       	ldi	r23, 0x00	; 0
    83a0:	60 e0       	ldi	r22, 0x00	; 0
    83a2:	2a f0       	brmi	.+10     	; 0x83ae <__floatsisf+0x6c>
    83a4:	9a 95       	dec	r25
    83a6:	66 0f       	add	r22, r22
    83a8:	77 1f       	adc	r23, r23
    83aa:	88 1f       	adc	r24, r24
    83ac:	da f7       	brpl	.-10     	; 0x83a4 <__floatsisf+0x62>
    83ae:	88 0f       	add	r24, r24
    83b0:	96 95       	lsr	r25
    83b2:	87 95       	ror	r24
    83b4:	97 f9       	bld	r25, 7
    83b6:	08 95       	ret

000083b8 <__fp_inf>:
    83b8:	97 f9       	bld	r25, 7
    83ba:	9f 67       	ori	r25, 0x7F	; 127
    83bc:	80 e8       	ldi	r24, 0x80	; 128
    83be:	70 e0       	ldi	r23, 0x00	; 0
    83c0:	60 e0       	ldi	r22, 0x00	; 0
    83c2:	08 95       	ret

000083c4 <__fp_nan>:
    83c4:	9f ef       	ldi	r25, 0xFF	; 255
    83c6:	80 ec       	ldi	r24, 0xC0	; 192
    83c8:	08 95       	ret

000083ca <__fp_pscA>:
    83ca:	00 24       	eor	r0, r0
    83cc:	0a 94       	dec	r0
    83ce:	16 16       	cp	r1, r22
    83d0:	17 06       	cpc	r1, r23
    83d2:	18 06       	cpc	r1, r24
    83d4:	09 06       	cpc	r0, r25
    83d6:	08 95       	ret

000083d8 <__fp_pscB>:
    83d8:	00 24       	eor	r0, r0
    83da:	0a 94       	dec	r0
    83dc:	12 16       	cp	r1, r18
    83de:	13 06       	cpc	r1, r19
    83e0:	14 06       	cpc	r1, r20
    83e2:	05 06       	cpc	r0, r21
    83e4:	08 95       	ret

000083e6 <__fp_round>:
    83e6:	09 2e       	mov	r0, r25
    83e8:	03 94       	inc	r0
    83ea:	00 0c       	add	r0, r0
    83ec:	11 f4       	brne	.+4      	; 0x83f2 <__fp_round+0xc>
    83ee:	88 23       	and	r24, r24
    83f0:	52 f0       	brmi	.+20     	; 0x8406 <__fp_round+0x20>
    83f2:	bb 0f       	add	r27, r27
    83f4:	40 f4       	brcc	.+16     	; 0x8406 <__fp_round+0x20>
    83f6:	bf 2b       	or	r27, r31
    83f8:	11 f4       	brne	.+4      	; 0x83fe <__fp_round+0x18>
    83fa:	60 ff       	sbrs	r22, 0
    83fc:	04 c0       	rjmp	.+8      	; 0x8406 <__fp_round+0x20>
    83fe:	6f 5f       	subi	r22, 0xFF	; 255
    8400:	7f 4f       	sbci	r23, 0xFF	; 255
    8402:	8f 4f       	sbci	r24, 0xFF	; 255
    8404:	9f 4f       	sbci	r25, 0xFF	; 255
    8406:	08 95       	ret

00008408 <__fp_split3>:
    8408:	57 fd       	sbrc	r21, 7
    840a:	90 58       	subi	r25, 0x80	; 128
    840c:	44 0f       	add	r20, r20
    840e:	55 1f       	adc	r21, r21
    8410:	59 f0       	breq	.+22     	; 0x8428 <__fp_splitA+0x10>
    8412:	5f 3f       	cpi	r21, 0xFF	; 255
    8414:	71 f0       	breq	.+28     	; 0x8432 <__fp_splitA+0x1a>
    8416:	47 95       	ror	r20

00008418 <__fp_splitA>:
    8418:	88 0f       	add	r24, r24
    841a:	97 fb       	bst	r25, 7
    841c:	99 1f       	adc	r25, r25
    841e:	61 f0       	breq	.+24     	; 0x8438 <__fp_splitA+0x20>
    8420:	9f 3f       	cpi	r25, 0xFF	; 255
    8422:	79 f0       	breq	.+30     	; 0x8442 <__fp_splitA+0x2a>
    8424:	87 95       	ror	r24
    8426:	08 95       	ret
    8428:	12 16       	cp	r1, r18
    842a:	13 06       	cpc	r1, r19
    842c:	14 06       	cpc	r1, r20
    842e:	55 1f       	adc	r21, r21
    8430:	f2 cf       	rjmp	.-28     	; 0x8416 <__fp_split3+0xe>
    8432:	46 95       	lsr	r20
    8434:	f1 df       	rcall	.-30     	; 0x8418 <__fp_splitA>
    8436:	08 c0       	rjmp	.+16     	; 0x8448 <__fp_splitA+0x30>
    8438:	16 16       	cp	r1, r22
    843a:	17 06       	cpc	r1, r23
    843c:	18 06       	cpc	r1, r24
    843e:	99 1f       	adc	r25, r25
    8440:	f1 cf       	rjmp	.-30     	; 0x8424 <__fp_splitA+0xc>
    8442:	86 95       	lsr	r24
    8444:	71 05       	cpc	r23, r1
    8446:	61 05       	cpc	r22, r1
    8448:	08 94       	sec
    844a:	08 95       	ret

0000844c <__fp_zero>:
    844c:	e8 94       	clt

0000844e <__fp_szero>:
    844e:	bb 27       	eor	r27, r27
    8450:	66 27       	eor	r22, r22
    8452:	77 27       	eor	r23, r23
    8454:	cb 01       	movw	r24, r22
    8456:	97 f9       	bld	r25, 7
    8458:	08 95       	ret

0000845a <__gesf2>:
    845a:	66 d0       	rcall	.+204    	; 0x8528 <__fp_cmp>
    845c:	08 f4       	brcc	.+2      	; 0x8460 <__gesf2+0x6>
    845e:	8f ef       	ldi	r24, 0xFF	; 255
    8460:	08 95       	ret

00008462 <__mulsf3>:
    8462:	0b d0       	rcall	.+22     	; 0x847a <__mulsf3x>
    8464:	c0 cf       	rjmp	.-128    	; 0x83e6 <__fp_round>
    8466:	b1 df       	rcall	.-158    	; 0x83ca <__fp_pscA>
    8468:	28 f0       	brcs	.+10     	; 0x8474 <__mulsf3+0x12>
    846a:	b6 df       	rcall	.-148    	; 0x83d8 <__fp_pscB>
    846c:	18 f0       	brcs	.+6      	; 0x8474 <__mulsf3+0x12>
    846e:	95 23       	and	r25, r21
    8470:	09 f0       	breq	.+2      	; 0x8474 <__mulsf3+0x12>
    8472:	a2 cf       	rjmp	.-188    	; 0x83b8 <__fp_inf>
    8474:	a7 cf       	rjmp	.-178    	; 0x83c4 <__fp_nan>
    8476:	11 24       	eor	r1, r1
    8478:	ea cf       	rjmp	.-44     	; 0x844e <__fp_szero>

0000847a <__mulsf3x>:
    847a:	c6 df       	rcall	.-116    	; 0x8408 <__fp_split3>
    847c:	a0 f3       	brcs	.-24     	; 0x8466 <__mulsf3+0x4>

0000847e <__mulsf3_pse>:
    847e:	95 9f       	mul	r25, r21
    8480:	d1 f3       	breq	.-12     	; 0x8476 <__mulsf3+0x14>
    8482:	95 0f       	add	r25, r21
    8484:	50 e0       	ldi	r21, 0x00	; 0
    8486:	55 1f       	adc	r21, r21
    8488:	62 9f       	mul	r22, r18
    848a:	f0 01       	movw	r30, r0
    848c:	72 9f       	mul	r23, r18
    848e:	bb 27       	eor	r27, r27
    8490:	f0 0d       	add	r31, r0
    8492:	b1 1d       	adc	r27, r1
    8494:	63 9f       	mul	r22, r19
    8496:	aa 27       	eor	r26, r26
    8498:	f0 0d       	add	r31, r0
    849a:	b1 1d       	adc	r27, r1
    849c:	aa 1f       	adc	r26, r26
    849e:	64 9f       	mul	r22, r20
    84a0:	66 27       	eor	r22, r22
    84a2:	b0 0d       	add	r27, r0
    84a4:	a1 1d       	adc	r26, r1
    84a6:	66 1f       	adc	r22, r22
    84a8:	82 9f       	mul	r24, r18
    84aa:	22 27       	eor	r18, r18
    84ac:	b0 0d       	add	r27, r0
    84ae:	a1 1d       	adc	r26, r1
    84b0:	62 1f       	adc	r22, r18
    84b2:	73 9f       	mul	r23, r19
    84b4:	b0 0d       	add	r27, r0
    84b6:	a1 1d       	adc	r26, r1
    84b8:	62 1f       	adc	r22, r18
    84ba:	83 9f       	mul	r24, r19
    84bc:	a0 0d       	add	r26, r0
    84be:	61 1d       	adc	r22, r1
    84c0:	22 1f       	adc	r18, r18
    84c2:	74 9f       	mul	r23, r20
    84c4:	33 27       	eor	r19, r19
    84c6:	a0 0d       	add	r26, r0
    84c8:	61 1d       	adc	r22, r1
    84ca:	23 1f       	adc	r18, r19
    84cc:	84 9f       	mul	r24, r20
    84ce:	60 0d       	add	r22, r0
    84d0:	21 1d       	adc	r18, r1
    84d2:	82 2f       	mov	r24, r18
    84d4:	76 2f       	mov	r23, r22
    84d6:	6a 2f       	mov	r22, r26
    84d8:	11 24       	eor	r1, r1
    84da:	9f 57       	subi	r25, 0x7F	; 127
    84dc:	50 40       	sbci	r21, 0x00	; 0
    84de:	8a f0       	brmi	.+34     	; 0x8502 <__mulsf3_pse+0x84>
    84e0:	e1 f0       	breq	.+56     	; 0x851a <__mulsf3_pse+0x9c>
    84e2:	88 23       	and	r24, r24
    84e4:	4a f0       	brmi	.+18     	; 0x84f8 <__mulsf3_pse+0x7a>
    84e6:	ee 0f       	add	r30, r30
    84e8:	ff 1f       	adc	r31, r31
    84ea:	bb 1f       	adc	r27, r27
    84ec:	66 1f       	adc	r22, r22
    84ee:	77 1f       	adc	r23, r23
    84f0:	88 1f       	adc	r24, r24
    84f2:	91 50       	subi	r25, 0x01	; 1
    84f4:	50 40       	sbci	r21, 0x00	; 0
    84f6:	a9 f7       	brne	.-22     	; 0x84e2 <__mulsf3_pse+0x64>
    84f8:	9e 3f       	cpi	r25, 0xFE	; 254
    84fa:	51 05       	cpc	r21, r1
    84fc:	70 f0       	brcs	.+28     	; 0x851a <__mulsf3_pse+0x9c>
    84fe:	5c cf       	rjmp	.-328    	; 0x83b8 <__fp_inf>
    8500:	a6 cf       	rjmp	.-180    	; 0x844e <__fp_szero>
    8502:	5f 3f       	cpi	r21, 0xFF	; 255
    8504:	ec f3       	brlt	.-6      	; 0x8500 <__mulsf3_pse+0x82>
    8506:	98 3e       	cpi	r25, 0xE8	; 232
    8508:	dc f3       	brlt	.-10     	; 0x8500 <__mulsf3_pse+0x82>
    850a:	86 95       	lsr	r24
    850c:	77 95       	ror	r23
    850e:	67 95       	ror	r22
    8510:	b7 95       	ror	r27
    8512:	f7 95       	ror	r31
    8514:	e7 95       	ror	r30
    8516:	9f 5f       	subi	r25, 0xFF	; 255
    8518:	c1 f7       	brne	.-16     	; 0x850a <__mulsf3_pse+0x8c>
    851a:	fe 2b       	or	r31, r30
    851c:	88 0f       	add	r24, r24
    851e:	91 1d       	adc	r25, r1
    8520:	96 95       	lsr	r25
    8522:	87 95       	ror	r24
    8524:	97 f9       	bld	r25, 7
    8526:	08 95       	ret

00008528 <__fp_cmp>:
    8528:	99 0f       	add	r25, r25
    852a:	00 08       	sbc	r0, r0
    852c:	55 0f       	add	r21, r21
    852e:	aa 0b       	sbc	r26, r26
    8530:	e0 e8       	ldi	r30, 0x80	; 128
    8532:	fe ef       	ldi	r31, 0xFE	; 254
    8534:	16 16       	cp	r1, r22
    8536:	17 06       	cpc	r1, r23
    8538:	e8 07       	cpc	r30, r24
    853a:	f9 07       	cpc	r31, r25
    853c:	c0 f0       	brcs	.+48     	; 0x856e <__fp_cmp+0x46>
    853e:	12 16       	cp	r1, r18
    8540:	13 06       	cpc	r1, r19
    8542:	e4 07       	cpc	r30, r20
    8544:	f5 07       	cpc	r31, r21
    8546:	98 f0       	brcs	.+38     	; 0x856e <__fp_cmp+0x46>
    8548:	62 1b       	sub	r22, r18
    854a:	73 0b       	sbc	r23, r19
    854c:	84 0b       	sbc	r24, r20
    854e:	95 0b       	sbc	r25, r21
    8550:	39 f4       	brne	.+14     	; 0x8560 <__fp_cmp+0x38>
    8552:	0a 26       	eor	r0, r26
    8554:	61 f0       	breq	.+24     	; 0x856e <__fp_cmp+0x46>
    8556:	23 2b       	or	r18, r19
    8558:	24 2b       	or	r18, r20
    855a:	25 2b       	or	r18, r21
    855c:	21 f4       	brne	.+8      	; 0x8566 <__fp_cmp+0x3e>
    855e:	08 95       	ret
    8560:	0a 26       	eor	r0, r26
    8562:	09 f4       	brne	.+2      	; 0x8566 <__fp_cmp+0x3e>
    8564:	a1 40       	sbci	r26, 0x01	; 1
    8566:	a6 95       	lsr	r26
    8568:	8f ef       	ldi	r24, 0xFF	; 255
    856a:	81 1d       	adc	r24, r1
    856c:	81 1d       	adc	r24, r1
    856e:	08 95       	ret

00008570 <__mulsi3>:
    8570:	62 9f       	mul	r22, r18
    8572:	d0 01       	movw	r26, r0
    8574:	73 9f       	mul	r23, r19
    8576:	f0 01       	movw	r30, r0
    8578:	82 9f       	mul	r24, r18
    857a:	e0 0d       	add	r30, r0
    857c:	f1 1d       	adc	r31, r1
    857e:	64 9f       	mul	r22, r20
    8580:	e0 0d       	add	r30, r0
    8582:	f1 1d       	adc	r31, r1
    8584:	92 9f       	mul	r25, r18
    8586:	f0 0d       	add	r31, r0
    8588:	83 9f       	mul	r24, r19
    858a:	f0 0d       	add	r31, r0
    858c:	74 9f       	mul	r23, r20
    858e:	f0 0d       	add	r31, r0
    8590:	65 9f       	mul	r22, r21
    8592:	f0 0d       	add	r31, r0
    8594:	99 27       	eor	r25, r25
    8596:	72 9f       	mul	r23, r18
    8598:	b0 0d       	add	r27, r0
    859a:	e1 1d       	adc	r30, r1
    859c:	f9 1f       	adc	r31, r25
    859e:	63 9f       	mul	r22, r19
    85a0:	b0 0d       	add	r27, r0
    85a2:	e1 1d       	adc	r30, r1
    85a4:	f9 1f       	adc	r31, r25
    85a6:	bd 01       	movw	r22, r26
    85a8:	cf 01       	movw	r24, r30
    85aa:	11 24       	eor	r1, r1
    85ac:	08 95       	ret

000085ae <__divmodqi4>:
    85ae:	87 fb       	bst	r24, 7
    85b0:	08 2e       	mov	r0, r24
    85b2:	06 26       	eor	r0, r22
    85b4:	87 fd       	sbrc	r24, 7
    85b6:	81 95       	neg	r24
    85b8:	67 fd       	sbrc	r22, 7
    85ba:	61 95       	neg	r22
    85bc:	3a d0       	rcall	.+116    	; 0x8632 <__udivmodqi4>
    85be:	0e f4       	brtc	.+2      	; 0x85c2 <__divmodqi4_1>
    85c0:	91 95       	neg	r25

000085c2 <__divmodqi4_1>:
    85c2:	07 fc       	sbrc	r0, 7
    85c4:	81 95       	neg	r24

000085c6 <__divmodqi4_exit>:
    85c6:	08 95       	ret

000085c8 <__divmodhi4>:
    85c8:	97 fb       	bst	r25, 7
    85ca:	09 2e       	mov	r0, r25
    85cc:	07 26       	eor	r0, r23
    85ce:	0a d0       	rcall	.+20     	; 0x85e4 <__divmodhi4_neg1>
    85d0:	77 fd       	sbrc	r23, 7
    85d2:	04 d0       	rcall	.+8      	; 0x85dc <__divmodhi4_neg2>
    85d4:	3a d0       	rcall	.+116    	; 0x864a <__udivmodhi4>
    85d6:	06 d0       	rcall	.+12     	; 0x85e4 <__divmodhi4_neg1>
    85d8:	00 20       	and	r0, r0
    85da:	1a f4       	brpl	.+6      	; 0x85e2 <__divmodhi4_exit>

000085dc <__divmodhi4_neg2>:
    85dc:	70 95       	com	r23
    85de:	61 95       	neg	r22
    85e0:	7f 4f       	sbci	r23, 0xFF	; 255

000085e2 <__divmodhi4_exit>:
    85e2:	08 95       	ret

000085e4 <__divmodhi4_neg1>:
    85e4:	f6 f7       	brtc	.-4      	; 0x85e2 <__divmodhi4_exit>
    85e6:	90 95       	com	r25
    85e8:	81 95       	neg	r24
    85ea:	9f 4f       	sbci	r25, 0xFF	; 255
    85ec:	08 95       	ret

000085ee <__udivmodsi4>:
    85ee:	a1 e2       	ldi	r26, 0x21	; 33
    85f0:	1a 2e       	mov	r1, r26
    85f2:	aa 1b       	sub	r26, r26
    85f4:	bb 1b       	sub	r27, r27
    85f6:	fd 01       	movw	r30, r26
    85f8:	0d c0       	rjmp	.+26     	; 0x8614 <__udivmodsi4_ep>

000085fa <__udivmodsi4_loop>:
    85fa:	aa 1f       	adc	r26, r26
    85fc:	bb 1f       	adc	r27, r27
    85fe:	ee 1f       	adc	r30, r30
    8600:	ff 1f       	adc	r31, r31
    8602:	a2 17       	cp	r26, r18
    8604:	b3 07       	cpc	r27, r19
    8606:	e4 07       	cpc	r30, r20
    8608:	f5 07       	cpc	r31, r21
    860a:	20 f0       	brcs	.+8      	; 0x8614 <__udivmodsi4_ep>
    860c:	a2 1b       	sub	r26, r18
    860e:	b3 0b       	sbc	r27, r19
    8610:	e4 0b       	sbc	r30, r20
    8612:	f5 0b       	sbc	r31, r21

00008614 <__udivmodsi4_ep>:
    8614:	66 1f       	adc	r22, r22
    8616:	77 1f       	adc	r23, r23
    8618:	88 1f       	adc	r24, r24
    861a:	99 1f       	adc	r25, r25
    861c:	1a 94       	dec	r1
    861e:	69 f7       	brne	.-38     	; 0x85fa <__udivmodsi4_loop>
    8620:	60 95       	com	r22
    8622:	70 95       	com	r23
    8624:	80 95       	com	r24
    8626:	90 95       	com	r25
    8628:	9b 01       	movw	r18, r22
    862a:	ac 01       	movw	r20, r24
    862c:	bd 01       	movw	r22, r26
    862e:	cf 01       	movw	r24, r30
    8630:	08 95       	ret

00008632 <__udivmodqi4>:
    8632:	99 1b       	sub	r25, r25
    8634:	79 e0       	ldi	r23, 0x09	; 9
    8636:	04 c0       	rjmp	.+8      	; 0x8640 <__udivmodqi4_ep>

00008638 <__udivmodqi4_loop>:
    8638:	99 1f       	adc	r25, r25
    863a:	96 17       	cp	r25, r22
    863c:	08 f0       	brcs	.+2      	; 0x8640 <__udivmodqi4_ep>
    863e:	96 1b       	sub	r25, r22

00008640 <__udivmodqi4_ep>:
    8640:	88 1f       	adc	r24, r24
    8642:	7a 95       	dec	r23
    8644:	c9 f7       	brne	.-14     	; 0x8638 <__udivmodqi4_loop>
    8646:	80 95       	com	r24
    8648:	08 95       	ret

0000864a <__udivmodhi4>:
    864a:	aa 1b       	sub	r26, r26
    864c:	bb 1b       	sub	r27, r27
    864e:	51 e1       	ldi	r21, 0x11	; 17
    8650:	07 c0       	rjmp	.+14     	; 0x8660 <__udivmodhi4_ep>

00008652 <__udivmodhi4_loop>:
    8652:	aa 1f       	adc	r26, r26
    8654:	bb 1f       	adc	r27, r27
    8656:	a6 17       	cp	r26, r22
    8658:	b7 07       	cpc	r27, r23
    865a:	10 f0       	brcs	.+4      	; 0x8660 <__udivmodhi4_ep>
    865c:	a6 1b       	sub	r26, r22
    865e:	b7 0b       	sbc	r27, r23

00008660 <__udivmodhi4_ep>:
    8660:	88 1f       	adc	r24, r24
    8662:	99 1f       	adc	r25, r25
    8664:	5a 95       	dec	r21
    8666:	a9 f7       	brne	.-22     	; 0x8652 <__udivmodhi4_loop>
    8668:	80 95       	com	r24
    866a:	90 95       	com	r25
    866c:	bc 01       	movw	r22, r24
    866e:	cd 01       	movw	r24, r26
    8670:	08 95       	ret

00008672 <memcpy_P>:
    8672:	fb 01       	movw	r30, r22
    8674:	dc 01       	movw	r26, r24
    8676:	02 c0       	rjmp	.+4      	; 0x867c <memcpy_P+0xa>
    8678:	05 90       	lpm	r0, Z+
    867a:	0d 92       	st	X+, r0
    867c:	41 50       	subi	r20, 0x01	; 1
    867e:	50 40       	sbci	r21, 0x00	; 0
    8680:	d8 f7       	brcc	.-10     	; 0x8678 <memcpy_P+0x6>
    8682:	08 95       	ret

00008684 <strcat_P>:
    8684:	fb 01       	movw	r30, r22
    8686:	dc 01       	movw	r26, r24
    8688:	0d 90       	ld	r0, X+
    868a:	00 20       	and	r0, r0
    868c:	e9 f7       	brne	.-6      	; 0x8688 <strcat_P+0x4>
    868e:	11 97       	sbiw	r26, 0x01	; 1
    8690:	05 90       	lpm	r0, Z+
    8692:	0d 92       	st	X+, r0
    8694:	00 20       	and	r0, r0
    8696:	e1 f7       	brne	.-8      	; 0x8690 <strcat_P+0xc>
    8698:	08 95       	ret

0000869a <strcpy_P>:
    869a:	fb 01       	movw	r30, r22
    869c:	dc 01       	movw	r26, r24
    869e:	05 90       	lpm	r0, Z+
    86a0:	0d 92       	st	X+, r0
    86a2:	00 20       	and	r0, r0
    86a4:	e1 f7       	brne	.-8      	; 0x869e <strcpy_P+0x4>
    86a6:	08 95       	ret

000086a8 <strlcpy_P>:
    86a8:	dc 01       	movw	r26, r24
    86aa:	fb 01       	movw	r30, r22
    86ac:	41 50       	subi	r20, 0x01	; 1
    86ae:	50 40       	sbci	r21, 0x00	; 0
    86b0:	58 f0       	brcs	.+22     	; 0x86c8 <strlcpy_P+0x20>
    86b2:	49 f0       	breq	.+18     	; 0x86c6 <strlcpy_P+0x1e>
    86b4:	05 90       	lpm	r0, Z+
    86b6:	0d 92       	st	X+, r0
    86b8:	00 20       	and	r0, r0
    86ba:	c1 f7       	brne	.-16     	; 0x86ac <strlcpy_P+0x4>
    86bc:	e6 1b       	sub	r30, r22
    86be:	f7 0b       	sbc	r31, r23
    86c0:	31 97       	sbiw	r30, 0x01	; 1
    86c2:	cf 01       	movw	r24, r30
    86c4:	08 95       	ret
    86c6:	1c 92       	st	X, r1
    86c8:	05 90       	lpm	r0, Z+
    86ca:	00 20       	and	r0, r0
    86cc:	e9 f7       	brne	.-6      	; 0x86c8 <strlcpy_P+0x20>
    86ce:	f6 cf       	rjmp	.-20     	; 0x86bc <strlcpy_P+0x14>

000086d0 <memset>:
    86d0:	dc 01       	movw	r26, r24
    86d2:	01 c0       	rjmp	.+2      	; 0x86d6 <memset+0x6>
    86d4:	6d 93       	st	X+, r22
    86d6:	41 50       	subi	r20, 0x01	; 1
    86d8:	50 40       	sbci	r21, 0x00	; 0
    86da:	e0 f7       	brcc	.-8      	; 0x86d4 <memset+0x4>
    86dc:	08 95       	ret

000086de <strcpy>:
    86de:	fb 01       	movw	r30, r22
    86e0:	dc 01       	movw	r26, r24
    86e2:	01 90       	ld	r0, Z+
    86e4:	0d 92       	st	X+, r0
    86e6:	00 20       	and	r0, r0
    86e8:	e1 f7       	brne	.-8      	; 0x86e2 <strcpy+0x4>
    86ea:	08 95       	ret

000086ec <strlcpy>:
    86ec:	dc 01       	movw	r26, r24
    86ee:	fb 01       	movw	r30, r22
    86f0:	41 50       	subi	r20, 0x01	; 1
    86f2:	50 40       	sbci	r21, 0x00	; 0
    86f4:	58 f0       	brcs	.+22     	; 0x870c <strlcpy+0x20>
    86f6:	49 f0       	breq	.+18     	; 0x870a <strlcpy+0x1e>
    86f8:	01 90       	ld	r0, Z+
    86fa:	0d 92       	st	X+, r0
    86fc:	00 20       	and	r0, r0
    86fe:	c1 f7       	brne	.-16     	; 0x86f0 <strlcpy+0x4>
    8700:	e6 1b       	sub	r30, r22
    8702:	f7 0b       	sbc	r31, r23
    8704:	31 97       	sbiw	r30, 0x01	; 1
    8706:	cf 01       	movw	r24, r30
    8708:	08 95       	ret
    870a:	1c 92       	st	X, r1
    870c:	01 90       	ld	r0, Z+
    870e:	00 20       	and	r0, r0
    8710:	e9 f7       	brne	.-6      	; 0x870c <strlcpy+0x20>
    8712:	f6 cf       	rjmp	.-20     	; 0x8700 <strlcpy+0x14>

00008714 <itoa>:
    8714:	fb 01       	movw	r30, r22
    8716:	9f 01       	movw	r18, r30
    8718:	e8 94       	clt
    871a:	42 30       	cpi	r20, 0x02	; 2
    871c:	c4 f0       	brlt	.+48     	; 0x874e <itoa+0x3a>
    871e:	45 32       	cpi	r20, 0x25	; 37
    8720:	b4 f4       	brge	.+44     	; 0x874e <itoa+0x3a>
    8722:	4a 30       	cpi	r20, 0x0A	; 10
    8724:	29 f4       	brne	.+10     	; 0x8730 <itoa+0x1c>
    8726:	97 fb       	bst	r25, 7
    8728:	1e f4       	brtc	.+6      	; 0x8730 <itoa+0x1c>
    872a:	90 95       	com	r25
    872c:	81 95       	neg	r24
    872e:	9f 4f       	sbci	r25, 0xFF	; 255
    8730:	64 2f       	mov	r22, r20
    8732:	77 27       	eor	r23, r23
    8734:	0e 94 25 43 	call	0x864a	; 0x864a <__udivmodhi4>
    8738:	80 5d       	subi	r24, 0xD0	; 208
    873a:	8a 33       	cpi	r24, 0x3A	; 58
    873c:	0c f0       	brlt	.+2      	; 0x8740 <itoa+0x2c>
    873e:	89 5d       	subi	r24, 0xD9	; 217
    8740:	81 93       	st	Z+, r24
    8742:	cb 01       	movw	r24, r22
    8744:	00 97       	sbiw	r24, 0x00	; 0
    8746:	a1 f7       	brne	.-24     	; 0x8730 <itoa+0x1c>
    8748:	16 f4       	brtc	.+4      	; 0x874e <itoa+0x3a>
    874a:	5d e2       	ldi	r21, 0x2D	; 45
    874c:	51 93       	st	Z+, r21
    874e:	10 82       	st	Z, r1
    8750:	c9 01       	movw	r24, r18
    8752:	0c 94 cb 45 	jmp	0x8b96	; 0x8b96 <strrev>

00008756 <sprintf>:
    8756:	ae e0       	ldi	r26, 0x0E	; 14
    8758:	b0 e0       	ldi	r27, 0x00	; 0
    875a:	e1 eb       	ldi	r30, 0xB1	; 177
    875c:	f3 e4       	ldi	r31, 0x43	; 67
    875e:	0c 94 73 46 	jmp	0x8ce6	; 0x8ce6 <__prologue_saves__+0x1c>
    8762:	0d 89       	ldd	r16, Y+21	; 0x15
    8764:	1e 89       	ldd	r17, Y+22	; 0x16
    8766:	86 e0       	ldi	r24, 0x06	; 6
    8768:	8c 83       	std	Y+4, r24	; 0x04
    876a:	1a 83       	std	Y+2, r17	; 0x02
    876c:	09 83       	std	Y+1, r16	; 0x01
    876e:	8f ef       	ldi	r24, 0xFF	; 255
    8770:	9f e7       	ldi	r25, 0x7F	; 127
    8772:	9e 83       	std	Y+6, r25	; 0x06
    8774:	8d 83       	std	Y+5, r24	; 0x05
    8776:	9e 01       	movw	r18, r28
    8778:	27 5e       	subi	r18, 0xE7	; 231
    877a:	3f 4f       	sbci	r19, 0xFF	; 255
    877c:	ce 01       	movw	r24, r28
    877e:	01 96       	adiw	r24, 0x01	; 1
    8780:	6f 89       	ldd	r22, Y+23	; 0x17
    8782:	78 8d       	ldd	r23, Y+24	; 0x18
    8784:	a9 01       	movw	r20, r18
    8786:	0e 94 ce 43 	call	0x879c	; 0x879c <vfprintf>
    878a:	ef 81       	ldd	r30, Y+7	; 0x07
    878c:	f8 85       	ldd	r31, Y+8	; 0x08
    878e:	e0 0f       	add	r30, r16
    8790:	f1 1f       	adc	r31, r17
    8792:	10 82       	st	Z, r1
    8794:	2e 96       	adiw	r28, 0x0e	; 14
    8796:	e4 e0       	ldi	r30, 0x04	; 4
    8798:	0c 94 8f 46 	jmp	0x8d1e	; 0x8d1e <__epilogue_restores__+0x1c>

0000879c <vfprintf>:
    879c:	ac e0       	ldi	r26, 0x0C	; 12
    879e:	b0 e0       	ldi	r27, 0x00	; 0
    87a0:	e4 ed       	ldi	r30, 0xD4	; 212
    87a2:	f3 e4       	ldi	r31, 0x43	; 67
    87a4:	0c 94 65 46 	jmp	0x8cca	; 0x8cca <__prologue_saves__>
    87a8:	6c 01       	movw	r12, r24
    87aa:	1b 01       	movw	r2, r22
    87ac:	8a 01       	movw	r16, r20
    87ae:	fc 01       	movw	r30, r24
    87b0:	17 82       	std	Z+7, r1	; 0x07
    87b2:	16 82       	std	Z+6, r1	; 0x06
    87b4:	83 81       	ldd	r24, Z+3	; 0x03
    87b6:	81 ff       	sbrs	r24, 1
    87b8:	d1 c1       	rjmp	.+930    	; 0x8b5c <vfprintf+0x3c0>
    87ba:	2e 01       	movw	r4, r28
    87bc:	08 94       	sec
    87be:	41 1c       	adc	r4, r1
    87c0:	51 1c       	adc	r5, r1
    87c2:	f6 01       	movw	r30, r12
    87c4:	93 81       	ldd	r25, Z+3	; 0x03
    87c6:	f1 01       	movw	r30, r2
    87c8:	93 fd       	sbrc	r25, 3
    87ca:	85 91       	lpm	r24, Z+
    87cc:	93 ff       	sbrs	r25, 3
    87ce:	81 91       	ld	r24, Z+
    87d0:	1f 01       	movw	r2, r30
    87d2:	88 23       	and	r24, r24
    87d4:	09 f4       	brne	.+2      	; 0x87d8 <vfprintf+0x3c>
    87d6:	be c1       	rjmp	.+892    	; 0x8b54 <vfprintf+0x3b8>
    87d8:	85 32       	cpi	r24, 0x25	; 37
    87da:	39 f4       	brne	.+14     	; 0x87ea <vfprintf+0x4e>
    87dc:	93 fd       	sbrc	r25, 3
    87de:	85 91       	lpm	r24, Z+
    87e0:	93 ff       	sbrs	r25, 3
    87e2:	81 91       	ld	r24, Z+
    87e4:	1f 01       	movw	r2, r30
    87e6:	85 32       	cpi	r24, 0x25	; 37
    87e8:	29 f4       	brne	.+10     	; 0x87f4 <vfprintf+0x58>
    87ea:	90 e0       	ldi	r25, 0x00	; 0
    87ec:	b6 01       	movw	r22, r12
    87ee:	0e 94 db 45 	call	0x8bb6	; 0x8bb6 <fputc>
    87f2:	e7 cf       	rjmp	.-50     	; 0x87c2 <vfprintf+0x26>
    87f4:	ee 24       	eor	r14, r14
    87f6:	ff 24       	eor	r15, r15
    87f8:	20 e0       	ldi	r18, 0x00	; 0
    87fa:	20 32       	cpi	r18, 0x20	; 32
    87fc:	b0 f4       	brcc	.+44     	; 0x882a <vfprintf+0x8e>
    87fe:	8b 32       	cpi	r24, 0x2B	; 43
    8800:	69 f0       	breq	.+26     	; 0x881c <vfprintf+0x80>
    8802:	8c 32       	cpi	r24, 0x2C	; 44
    8804:	28 f4       	brcc	.+10     	; 0x8810 <vfprintf+0x74>
    8806:	80 32       	cpi	r24, 0x20	; 32
    8808:	51 f0       	breq	.+20     	; 0x881e <vfprintf+0x82>
    880a:	83 32       	cpi	r24, 0x23	; 35
    880c:	71 f4       	brne	.+28     	; 0x882a <vfprintf+0x8e>
    880e:	0b c0       	rjmp	.+22     	; 0x8826 <vfprintf+0x8a>
    8810:	8d 32       	cpi	r24, 0x2D	; 45
    8812:	39 f0       	breq	.+14     	; 0x8822 <vfprintf+0x86>
    8814:	80 33       	cpi	r24, 0x30	; 48
    8816:	49 f4       	brne	.+18     	; 0x882a <vfprintf+0x8e>
    8818:	21 60       	ori	r18, 0x01	; 1
    881a:	2c c0       	rjmp	.+88     	; 0x8874 <vfprintf+0xd8>
    881c:	22 60       	ori	r18, 0x02	; 2
    881e:	24 60       	ori	r18, 0x04	; 4
    8820:	29 c0       	rjmp	.+82     	; 0x8874 <vfprintf+0xd8>
    8822:	28 60       	ori	r18, 0x08	; 8
    8824:	27 c0       	rjmp	.+78     	; 0x8874 <vfprintf+0xd8>
    8826:	20 61       	ori	r18, 0x10	; 16
    8828:	25 c0       	rjmp	.+74     	; 0x8874 <vfprintf+0xd8>
    882a:	27 fd       	sbrc	r18, 7
    882c:	2c c0       	rjmp	.+88     	; 0x8886 <vfprintf+0xea>
    882e:	38 2f       	mov	r19, r24
    8830:	30 53       	subi	r19, 0x30	; 48
    8832:	3a 30       	cpi	r19, 0x0A	; 10
    8834:	98 f4       	brcc	.+38     	; 0x885c <vfprintf+0xc0>
    8836:	26 ff       	sbrs	r18, 6
    8838:	08 c0       	rjmp	.+16     	; 0x884a <vfprintf+0xae>
    883a:	8e 2d       	mov	r24, r14
    883c:	88 0f       	add	r24, r24
    883e:	e8 2e       	mov	r14, r24
    8840:	ee 0c       	add	r14, r14
    8842:	ee 0c       	add	r14, r14
    8844:	e8 0e       	add	r14, r24
    8846:	e3 0e       	add	r14, r19
    8848:	15 c0       	rjmp	.+42     	; 0x8874 <vfprintf+0xd8>
    884a:	8f 2d       	mov	r24, r15
    884c:	88 0f       	add	r24, r24
    884e:	f8 2e       	mov	r15, r24
    8850:	ff 0c       	add	r15, r15
    8852:	ff 0c       	add	r15, r15
    8854:	f8 0e       	add	r15, r24
    8856:	f3 0e       	add	r15, r19
    8858:	20 62       	ori	r18, 0x20	; 32
    885a:	0c c0       	rjmp	.+24     	; 0x8874 <vfprintf+0xd8>
    885c:	8e 32       	cpi	r24, 0x2E	; 46
    885e:	21 f4       	brne	.+8      	; 0x8868 <vfprintf+0xcc>
    8860:	26 fd       	sbrc	r18, 6
    8862:	78 c1       	rjmp	.+752    	; 0x8b54 <vfprintf+0x3b8>
    8864:	20 64       	ori	r18, 0x40	; 64
    8866:	06 c0       	rjmp	.+12     	; 0x8874 <vfprintf+0xd8>
    8868:	8c 36       	cpi	r24, 0x6C	; 108
    886a:	11 f4       	brne	.+4      	; 0x8870 <vfprintf+0xd4>
    886c:	20 68       	ori	r18, 0x80	; 128
    886e:	02 c0       	rjmp	.+4      	; 0x8874 <vfprintf+0xd8>
    8870:	88 36       	cpi	r24, 0x68	; 104
    8872:	49 f4       	brne	.+18     	; 0x8886 <vfprintf+0xea>
    8874:	f1 01       	movw	r30, r2
    8876:	93 fd       	sbrc	r25, 3
    8878:	85 91       	lpm	r24, Z+
    887a:	93 ff       	sbrs	r25, 3
    887c:	81 91       	ld	r24, Z+
    887e:	1f 01       	movw	r2, r30
    8880:	88 23       	and	r24, r24
    8882:	09 f0       	breq	.+2      	; 0x8886 <vfprintf+0xea>
    8884:	ba cf       	rjmp	.-140    	; 0x87fa <vfprintf+0x5e>
    8886:	98 2f       	mov	r25, r24
    8888:	95 54       	subi	r25, 0x45	; 69
    888a:	93 30       	cpi	r25, 0x03	; 3
    888c:	18 f0       	brcs	.+6      	; 0x8894 <vfprintf+0xf8>
    888e:	90 52       	subi	r25, 0x20	; 32
    8890:	93 30       	cpi	r25, 0x03	; 3
    8892:	28 f4       	brcc	.+10     	; 0x889e <vfprintf+0x102>
    8894:	0c 5f       	subi	r16, 0xFC	; 252
    8896:	1f 4f       	sbci	r17, 0xFF	; 255
    8898:	ff e3       	ldi	r31, 0x3F	; 63
    889a:	f9 83       	std	Y+1, r31	; 0x01
    889c:	0d c0       	rjmp	.+26     	; 0x88b8 <vfprintf+0x11c>
    889e:	83 36       	cpi	r24, 0x63	; 99
    88a0:	31 f0       	breq	.+12     	; 0x88ae <vfprintf+0x112>
    88a2:	83 37       	cpi	r24, 0x73	; 115
    88a4:	71 f0       	breq	.+28     	; 0x88c2 <vfprintf+0x126>
    88a6:	83 35       	cpi	r24, 0x53	; 83
    88a8:	09 f0       	breq	.+2      	; 0x88ac <vfprintf+0x110>
    88aa:	60 c0       	rjmp	.+192    	; 0x896c <vfprintf+0x1d0>
    88ac:	22 c0       	rjmp	.+68     	; 0x88f2 <vfprintf+0x156>
    88ae:	f8 01       	movw	r30, r16
    88b0:	80 81       	ld	r24, Z
    88b2:	89 83       	std	Y+1, r24	; 0x01
    88b4:	0e 5f       	subi	r16, 0xFE	; 254
    88b6:	1f 4f       	sbci	r17, 0xFF	; 255
    88b8:	42 01       	movw	r8, r4
    88ba:	71 e0       	ldi	r23, 0x01	; 1
    88bc:	a7 2e       	mov	r10, r23
    88be:	b1 2c       	mov	r11, r1
    88c0:	16 c0       	rjmp	.+44     	; 0x88ee <vfprintf+0x152>
    88c2:	62 e0       	ldi	r22, 0x02	; 2
    88c4:	66 2e       	mov	r6, r22
    88c6:	71 2c       	mov	r7, r1
    88c8:	60 0e       	add	r6, r16
    88ca:	71 1e       	adc	r7, r17
    88cc:	f8 01       	movw	r30, r16
    88ce:	80 80       	ld	r8, Z
    88d0:	91 80       	ldd	r9, Z+1	; 0x01
    88d2:	26 ff       	sbrs	r18, 6
    88d4:	03 c0       	rjmp	.+6      	; 0x88dc <vfprintf+0x140>
    88d6:	6e 2d       	mov	r22, r14
    88d8:	70 e0       	ldi	r23, 0x00	; 0
    88da:	02 c0       	rjmp	.+4      	; 0x88e0 <vfprintf+0x144>
    88dc:	6f ef       	ldi	r22, 0xFF	; 255
    88de:	7f ef       	ldi	r23, 0xFF	; 255
    88e0:	c4 01       	movw	r24, r8
    88e2:	2c 87       	std	Y+12, r18	; 0x0c
    88e4:	0e 94 c0 45 	call	0x8b80	; 0x8b80 <strnlen>
    88e8:	5c 01       	movw	r10, r24
    88ea:	83 01       	movw	r16, r6
    88ec:	2c 85       	ldd	r18, Y+12	; 0x0c
    88ee:	2f 77       	andi	r18, 0x7F	; 127
    88f0:	17 c0       	rjmp	.+46     	; 0x8920 <vfprintf+0x184>
    88f2:	52 e0       	ldi	r21, 0x02	; 2
    88f4:	65 2e       	mov	r6, r21
    88f6:	71 2c       	mov	r7, r1
    88f8:	60 0e       	add	r6, r16
    88fa:	71 1e       	adc	r7, r17
    88fc:	f8 01       	movw	r30, r16
    88fe:	80 80       	ld	r8, Z
    8900:	91 80       	ldd	r9, Z+1	; 0x01
    8902:	26 ff       	sbrs	r18, 6
    8904:	03 c0       	rjmp	.+6      	; 0x890c <vfprintf+0x170>
    8906:	6e 2d       	mov	r22, r14
    8908:	70 e0       	ldi	r23, 0x00	; 0
    890a:	02 c0       	rjmp	.+4      	; 0x8910 <vfprintf+0x174>
    890c:	6f ef       	ldi	r22, 0xFF	; 255
    890e:	7f ef       	ldi	r23, 0xFF	; 255
    8910:	c4 01       	movw	r24, r8
    8912:	2c 87       	std	Y+12, r18	; 0x0c
    8914:	0e 94 b5 45 	call	0x8b6a	; 0x8b6a <strnlen_P>
    8918:	5c 01       	movw	r10, r24
    891a:	2c 85       	ldd	r18, Y+12	; 0x0c
    891c:	20 68       	ori	r18, 0x80	; 128
    891e:	83 01       	movw	r16, r6
    8920:	23 fd       	sbrc	r18, 3
    8922:	20 c0       	rjmp	.+64     	; 0x8964 <vfprintf+0x1c8>
    8924:	08 c0       	rjmp	.+16     	; 0x8936 <vfprintf+0x19a>
    8926:	80 e2       	ldi	r24, 0x20	; 32
    8928:	90 e0       	ldi	r25, 0x00	; 0
    892a:	b6 01       	movw	r22, r12
    892c:	2c 87       	std	Y+12, r18	; 0x0c
    892e:	0e 94 db 45 	call	0x8bb6	; 0x8bb6 <fputc>
    8932:	fa 94       	dec	r15
    8934:	2c 85       	ldd	r18, Y+12	; 0x0c
    8936:	8f 2d       	mov	r24, r15
    8938:	90 e0       	ldi	r25, 0x00	; 0
    893a:	a8 16       	cp	r10, r24
    893c:	b9 06       	cpc	r11, r25
    893e:	98 f3       	brcs	.-26     	; 0x8926 <vfprintf+0x18a>
    8940:	11 c0       	rjmp	.+34     	; 0x8964 <vfprintf+0x1c8>
    8942:	f4 01       	movw	r30, r8
    8944:	27 fd       	sbrc	r18, 7
    8946:	85 91       	lpm	r24, Z+
    8948:	27 ff       	sbrs	r18, 7
    894a:	81 91       	ld	r24, Z+
    894c:	4f 01       	movw	r8, r30
    894e:	90 e0       	ldi	r25, 0x00	; 0
    8950:	b6 01       	movw	r22, r12
    8952:	2c 87       	std	Y+12, r18	; 0x0c
    8954:	0e 94 db 45 	call	0x8bb6	; 0x8bb6 <fputc>
    8958:	2c 85       	ldd	r18, Y+12	; 0x0c
    895a:	f1 10       	cpse	r15, r1
    895c:	fa 94       	dec	r15
    895e:	08 94       	sec
    8960:	a1 08       	sbc	r10, r1
    8962:	b1 08       	sbc	r11, r1
    8964:	a1 14       	cp	r10, r1
    8966:	b1 04       	cpc	r11, r1
    8968:	61 f7       	brne	.-40     	; 0x8942 <vfprintf+0x1a6>
    896a:	f1 c0       	rjmp	.+482    	; 0x8b4e <vfprintf+0x3b2>
    896c:	84 36       	cpi	r24, 0x64	; 100
    896e:	11 f0       	breq	.+4      	; 0x8974 <vfprintf+0x1d8>
    8970:	89 36       	cpi	r24, 0x69	; 105
    8972:	49 f5       	brne	.+82     	; 0x89c6 <vfprintf+0x22a>
    8974:	27 ff       	sbrs	r18, 7
    8976:	08 c0       	rjmp	.+16     	; 0x8988 <vfprintf+0x1ec>
    8978:	f8 01       	movw	r30, r16
    897a:	60 81       	ld	r22, Z
    897c:	71 81       	ldd	r23, Z+1	; 0x01
    897e:	82 81       	ldd	r24, Z+2	; 0x02
    8980:	93 81       	ldd	r25, Z+3	; 0x03
    8982:	0c 5f       	subi	r16, 0xFC	; 252
    8984:	1f 4f       	sbci	r17, 0xFF	; 255
    8986:	09 c0       	rjmp	.+18     	; 0x899a <vfprintf+0x1fe>
    8988:	f8 01       	movw	r30, r16
    898a:	60 81       	ld	r22, Z
    898c:	71 81       	ldd	r23, Z+1	; 0x01
    898e:	88 27       	eor	r24, r24
    8990:	77 fd       	sbrc	r23, 7
    8992:	80 95       	com	r24
    8994:	98 2f       	mov	r25, r24
    8996:	0e 5f       	subi	r16, 0xFE	; 254
    8998:	1f 4f       	sbci	r17, 0xFF	; 255
    899a:	4f e6       	ldi	r20, 0x6F	; 111
    899c:	b4 2e       	mov	r11, r20
    899e:	b2 22       	and	r11, r18
    89a0:	97 ff       	sbrs	r25, 7
    89a2:	09 c0       	rjmp	.+18     	; 0x89b6 <vfprintf+0x21a>
    89a4:	90 95       	com	r25
    89a6:	80 95       	com	r24
    89a8:	70 95       	com	r23
    89aa:	61 95       	neg	r22
    89ac:	7f 4f       	sbci	r23, 0xFF	; 255
    89ae:	8f 4f       	sbci	r24, 0xFF	; 255
    89b0:	9f 4f       	sbci	r25, 0xFF	; 255
    89b2:	f0 e8       	ldi	r31, 0x80	; 128
    89b4:	bf 2a       	or	r11, r31
    89b6:	a2 01       	movw	r20, r4
    89b8:	2a e0       	ldi	r18, 0x0A	; 10
    89ba:	30 e0       	ldi	r19, 0x00	; 0
    89bc:	0e 94 07 46 	call	0x8c0e	; 0x8c0e <__ultoa_invert>
    89c0:	78 2e       	mov	r7, r24
    89c2:	74 18       	sub	r7, r4
    89c4:	45 c0       	rjmp	.+138    	; 0x8a50 <vfprintf+0x2b4>
    89c6:	85 37       	cpi	r24, 0x75	; 117
    89c8:	31 f4       	brne	.+12     	; 0x89d6 <vfprintf+0x23a>
    89ca:	3f ee       	ldi	r19, 0xEF	; 239
    89cc:	b3 2e       	mov	r11, r19
    89ce:	b2 22       	and	r11, r18
    89d0:	2a e0       	ldi	r18, 0x0A	; 10
    89d2:	30 e0       	ldi	r19, 0x00	; 0
    89d4:	25 c0       	rjmp	.+74     	; 0x8a20 <vfprintf+0x284>
    89d6:	99 ef       	ldi	r25, 0xF9	; 249
    89d8:	b9 2e       	mov	r11, r25
    89da:	b2 22       	and	r11, r18
    89dc:	8f 36       	cpi	r24, 0x6F	; 111
    89de:	c1 f0       	breq	.+48     	; 0x8a10 <vfprintf+0x274>
    89e0:	80 37       	cpi	r24, 0x70	; 112
    89e2:	20 f4       	brcc	.+8      	; 0x89ec <vfprintf+0x250>
    89e4:	88 35       	cpi	r24, 0x58	; 88
    89e6:	09 f0       	breq	.+2      	; 0x89ea <vfprintf+0x24e>
    89e8:	b5 c0       	rjmp	.+362    	; 0x8b54 <vfprintf+0x3b8>
    89ea:	0d c0       	rjmp	.+26     	; 0x8a06 <vfprintf+0x26a>
    89ec:	80 37       	cpi	r24, 0x70	; 112
    89ee:	21 f0       	breq	.+8      	; 0x89f8 <vfprintf+0x25c>
    89f0:	88 37       	cpi	r24, 0x78	; 120
    89f2:	09 f0       	breq	.+2      	; 0x89f6 <vfprintf+0x25a>
    89f4:	af c0       	rjmp	.+350    	; 0x8b54 <vfprintf+0x3b8>
    89f6:	02 c0       	rjmp	.+4      	; 0x89fc <vfprintf+0x260>
    89f8:	20 e1       	ldi	r18, 0x10	; 16
    89fa:	b2 2a       	or	r11, r18
    89fc:	b4 fe       	sbrs	r11, 4
    89fe:	0b c0       	rjmp	.+22     	; 0x8a16 <vfprintf+0x27a>
    8a00:	84 e0       	ldi	r24, 0x04	; 4
    8a02:	b8 2a       	or	r11, r24
    8a04:	08 c0       	rjmp	.+16     	; 0x8a16 <vfprintf+0x27a>
    8a06:	b4 fe       	sbrs	r11, 4
    8a08:	09 c0       	rjmp	.+18     	; 0x8a1c <vfprintf+0x280>
    8a0a:	e6 e0       	ldi	r30, 0x06	; 6
    8a0c:	be 2a       	or	r11, r30
    8a0e:	06 c0       	rjmp	.+12     	; 0x8a1c <vfprintf+0x280>
    8a10:	28 e0       	ldi	r18, 0x08	; 8
    8a12:	30 e0       	ldi	r19, 0x00	; 0
    8a14:	05 c0       	rjmp	.+10     	; 0x8a20 <vfprintf+0x284>
    8a16:	20 e1       	ldi	r18, 0x10	; 16
    8a18:	30 e0       	ldi	r19, 0x00	; 0
    8a1a:	02 c0       	rjmp	.+4      	; 0x8a20 <vfprintf+0x284>
    8a1c:	20 e1       	ldi	r18, 0x10	; 16
    8a1e:	32 e0       	ldi	r19, 0x02	; 2
    8a20:	b7 fe       	sbrs	r11, 7
    8a22:	08 c0       	rjmp	.+16     	; 0x8a34 <vfprintf+0x298>
    8a24:	f8 01       	movw	r30, r16
    8a26:	60 81       	ld	r22, Z
    8a28:	71 81       	ldd	r23, Z+1	; 0x01
    8a2a:	82 81       	ldd	r24, Z+2	; 0x02
    8a2c:	93 81       	ldd	r25, Z+3	; 0x03
    8a2e:	0c 5f       	subi	r16, 0xFC	; 252
    8a30:	1f 4f       	sbci	r17, 0xFF	; 255
    8a32:	07 c0       	rjmp	.+14     	; 0x8a42 <vfprintf+0x2a6>
    8a34:	f8 01       	movw	r30, r16
    8a36:	60 81       	ld	r22, Z
    8a38:	71 81       	ldd	r23, Z+1	; 0x01
    8a3a:	80 e0       	ldi	r24, 0x00	; 0
    8a3c:	90 e0       	ldi	r25, 0x00	; 0
    8a3e:	0e 5f       	subi	r16, 0xFE	; 254
    8a40:	1f 4f       	sbci	r17, 0xFF	; 255
    8a42:	a2 01       	movw	r20, r4
    8a44:	0e 94 07 46 	call	0x8c0e	; 0x8c0e <__ultoa_invert>
    8a48:	78 2e       	mov	r7, r24
    8a4a:	74 18       	sub	r7, r4
    8a4c:	ff e7       	ldi	r31, 0x7F	; 127
    8a4e:	bf 22       	and	r11, r31
    8a50:	b6 fe       	sbrs	r11, 6
    8a52:	0b c0       	rjmp	.+22     	; 0x8a6a <vfprintf+0x2ce>
    8a54:	2e ef       	ldi	r18, 0xFE	; 254
    8a56:	b2 22       	and	r11, r18
    8a58:	7e 14       	cp	r7, r14
    8a5a:	38 f4       	brcc	.+14     	; 0x8a6a <vfprintf+0x2ce>
    8a5c:	b4 fe       	sbrs	r11, 4
    8a5e:	07 c0       	rjmp	.+14     	; 0x8a6e <vfprintf+0x2d2>
    8a60:	b2 fc       	sbrc	r11, 2
    8a62:	05 c0       	rjmp	.+10     	; 0x8a6e <vfprintf+0x2d2>
    8a64:	8f ee       	ldi	r24, 0xEF	; 239
    8a66:	b8 22       	and	r11, r24
    8a68:	02 c0       	rjmp	.+4      	; 0x8a6e <vfprintf+0x2d2>
    8a6a:	a7 2c       	mov	r10, r7
    8a6c:	01 c0       	rjmp	.+2      	; 0x8a70 <vfprintf+0x2d4>
    8a6e:	ae 2c       	mov	r10, r14
    8a70:	8b 2d       	mov	r24, r11
    8a72:	90 e0       	ldi	r25, 0x00	; 0
    8a74:	b4 fe       	sbrs	r11, 4
    8a76:	0d c0       	rjmp	.+26     	; 0x8a92 <vfprintf+0x2f6>
    8a78:	fe 01       	movw	r30, r28
    8a7a:	e7 0d       	add	r30, r7
    8a7c:	f1 1d       	adc	r31, r1
    8a7e:	20 81       	ld	r18, Z
    8a80:	20 33       	cpi	r18, 0x30	; 48
    8a82:	19 f4       	brne	.+6      	; 0x8a8a <vfprintf+0x2ee>
    8a84:	e9 ee       	ldi	r30, 0xE9	; 233
    8a86:	be 22       	and	r11, r30
    8a88:	09 c0       	rjmp	.+18     	; 0x8a9c <vfprintf+0x300>
    8a8a:	a3 94       	inc	r10
    8a8c:	b2 fe       	sbrs	r11, 2
    8a8e:	06 c0       	rjmp	.+12     	; 0x8a9c <vfprintf+0x300>
    8a90:	04 c0       	rjmp	.+8      	; 0x8a9a <vfprintf+0x2fe>
    8a92:	86 78       	andi	r24, 0x86	; 134
    8a94:	90 70       	andi	r25, 0x00	; 0
    8a96:	00 97       	sbiw	r24, 0x00	; 0
    8a98:	09 f0       	breq	.+2      	; 0x8a9c <vfprintf+0x300>
    8a9a:	a3 94       	inc	r10
    8a9c:	8b 2c       	mov	r8, r11
    8a9e:	99 24       	eor	r9, r9
    8aa0:	b3 fc       	sbrc	r11, 3
    8aa2:	14 c0       	rjmp	.+40     	; 0x8acc <vfprintf+0x330>
    8aa4:	b0 fe       	sbrs	r11, 0
    8aa6:	0f c0       	rjmp	.+30     	; 0x8ac6 <vfprintf+0x32a>
    8aa8:	af 14       	cp	r10, r15
    8aaa:	28 f4       	brcc	.+10     	; 0x8ab6 <vfprintf+0x31a>
    8aac:	e7 2c       	mov	r14, r7
    8aae:	ef 0c       	add	r14, r15
    8ab0:	ea 18       	sub	r14, r10
    8ab2:	af 2c       	mov	r10, r15
    8ab4:	08 c0       	rjmp	.+16     	; 0x8ac6 <vfprintf+0x32a>
    8ab6:	e7 2c       	mov	r14, r7
    8ab8:	06 c0       	rjmp	.+12     	; 0x8ac6 <vfprintf+0x32a>
    8aba:	80 e2       	ldi	r24, 0x20	; 32
    8abc:	90 e0       	ldi	r25, 0x00	; 0
    8abe:	b6 01       	movw	r22, r12
    8ac0:	0e 94 db 45 	call	0x8bb6	; 0x8bb6 <fputc>
    8ac4:	a3 94       	inc	r10
    8ac6:	af 14       	cp	r10, r15
    8ac8:	c0 f3       	brcs	.-16     	; 0x8aba <vfprintf+0x31e>
    8aca:	04 c0       	rjmp	.+8      	; 0x8ad4 <vfprintf+0x338>
    8acc:	af 14       	cp	r10, r15
    8ace:	10 f4       	brcc	.+4      	; 0x8ad4 <vfprintf+0x338>
    8ad0:	fa 18       	sub	r15, r10
    8ad2:	01 c0       	rjmp	.+2      	; 0x8ad6 <vfprintf+0x33a>
    8ad4:	ff 24       	eor	r15, r15
    8ad6:	84 fe       	sbrs	r8, 4
    8ad8:	0f c0       	rjmp	.+30     	; 0x8af8 <vfprintf+0x35c>
    8ada:	80 e3       	ldi	r24, 0x30	; 48
    8adc:	90 e0       	ldi	r25, 0x00	; 0
    8ade:	b6 01       	movw	r22, r12
    8ae0:	0e 94 db 45 	call	0x8bb6	; 0x8bb6 <fputc>
    8ae4:	82 fe       	sbrs	r8, 2
    8ae6:	1f c0       	rjmp	.+62     	; 0x8b26 <vfprintf+0x38a>
    8ae8:	81 fe       	sbrs	r8, 1
    8aea:	03 c0       	rjmp	.+6      	; 0x8af2 <vfprintf+0x356>
    8aec:	88 e5       	ldi	r24, 0x58	; 88
    8aee:	90 e0       	ldi	r25, 0x00	; 0
    8af0:	10 c0       	rjmp	.+32     	; 0x8b12 <vfprintf+0x376>
    8af2:	88 e7       	ldi	r24, 0x78	; 120
    8af4:	90 e0       	ldi	r25, 0x00	; 0
    8af6:	0d c0       	rjmp	.+26     	; 0x8b12 <vfprintf+0x376>
    8af8:	c4 01       	movw	r24, r8
    8afa:	86 78       	andi	r24, 0x86	; 134
    8afc:	90 70       	andi	r25, 0x00	; 0
    8afe:	00 97       	sbiw	r24, 0x00	; 0
    8b00:	91 f0       	breq	.+36     	; 0x8b26 <vfprintf+0x38a>
    8b02:	81 fc       	sbrc	r8, 1
    8b04:	02 c0       	rjmp	.+4      	; 0x8b0a <vfprintf+0x36e>
    8b06:	80 e2       	ldi	r24, 0x20	; 32
    8b08:	01 c0       	rjmp	.+2      	; 0x8b0c <vfprintf+0x370>
    8b0a:	8b e2       	ldi	r24, 0x2B	; 43
    8b0c:	b7 fc       	sbrc	r11, 7
    8b0e:	8d e2       	ldi	r24, 0x2D	; 45
    8b10:	90 e0       	ldi	r25, 0x00	; 0
    8b12:	b6 01       	movw	r22, r12
    8b14:	0e 94 db 45 	call	0x8bb6	; 0x8bb6 <fputc>
    8b18:	06 c0       	rjmp	.+12     	; 0x8b26 <vfprintf+0x38a>
    8b1a:	80 e3       	ldi	r24, 0x30	; 48
    8b1c:	90 e0       	ldi	r25, 0x00	; 0
    8b1e:	b6 01       	movw	r22, r12
    8b20:	0e 94 db 45 	call	0x8bb6	; 0x8bb6 <fputc>
    8b24:	ea 94       	dec	r14
    8b26:	7e 14       	cp	r7, r14
    8b28:	c0 f3       	brcs	.-16     	; 0x8b1a <vfprintf+0x37e>
    8b2a:	7a 94       	dec	r7
    8b2c:	f2 01       	movw	r30, r4
    8b2e:	e7 0d       	add	r30, r7
    8b30:	f1 1d       	adc	r31, r1
    8b32:	80 81       	ld	r24, Z
    8b34:	90 e0       	ldi	r25, 0x00	; 0
    8b36:	b6 01       	movw	r22, r12
    8b38:	0e 94 db 45 	call	0x8bb6	; 0x8bb6 <fputc>
    8b3c:	77 20       	and	r7, r7
    8b3e:	a9 f7       	brne	.-22     	; 0x8b2a <vfprintf+0x38e>
    8b40:	06 c0       	rjmp	.+12     	; 0x8b4e <vfprintf+0x3b2>
    8b42:	80 e2       	ldi	r24, 0x20	; 32
    8b44:	90 e0       	ldi	r25, 0x00	; 0
    8b46:	b6 01       	movw	r22, r12
    8b48:	0e 94 db 45 	call	0x8bb6	; 0x8bb6 <fputc>
    8b4c:	fa 94       	dec	r15
    8b4e:	ff 20       	and	r15, r15
    8b50:	c1 f7       	brne	.-16     	; 0x8b42 <vfprintf+0x3a6>
    8b52:	37 ce       	rjmp	.-914    	; 0x87c2 <vfprintf+0x26>
    8b54:	f6 01       	movw	r30, r12
    8b56:	26 81       	ldd	r18, Z+6	; 0x06
    8b58:	37 81       	ldd	r19, Z+7	; 0x07
    8b5a:	02 c0       	rjmp	.+4      	; 0x8b60 <vfprintf+0x3c4>
    8b5c:	2f ef       	ldi	r18, 0xFF	; 255
    8b5e:	3f ef       	ldi	r19, 0xFF	; 255
    8b60:	c9 01       	movw	r24, r18
    8b62:	2c 96       	adiw	r28, 0x0c	; 12
    8b64:	e2 e1       	ldi	r30, 0x12	; 18
    8b66:	0c 94 81 46 	jmp	0x8d02	; 0x8d02 <__epilogue_restores__>

00008b6a <strnlen_P>:
    8b6a:	fc 01       	movw	r30, r24
    8b6c:	05 90       	lpm	r0, Z+
    8b6e:	61 50       	subi	r22, 0x01	; 1
    8b70:	70 40       	sbci	r23, 0x00	; 0
    8b72:	01 10       	cpse	r0, r1
    8b74:	d8 f7       	brcc	.-10     	; 0x8b6c <strnlen_P+0x2>
    8b76:	80 95       	com	r24
    8b78:	90 95       	com	r25
    8b7a:	8e 0f       	add	r24, r30
    8b7c:	9f 1f       	adc	r25, r31
    8b7e:	08 95       	ret

00008b80 <strnlen>:
    8b80:	fc 01       	movw	r30, r24
    8b82:	61 50       	subi	r22, 0x01	; 1
    8b84:	70 40       	sbci	r23, 0x00	; 0
    8b86:	01 90       	ld	r0, Z+
    8b88:	01 10       	cpse	r0, r1
    8b8a:	d8 f7       	brcc	.-10     	; 0x8b82 <strnlen+0x2>
    8b8c:	80 95       	com	r24
    8b8e:	90 95       	com	r25
    8b90:	8e 0f       	add	r24, r30
    8b92:	9f 1f       	adc	r25, r31
    8b94:	08 95       	ret

00008b96 <strrev>:
    8b96:	dc 01       	movw	r26, r24
    8b98:	fc 01       	movw	r30, r24
    8b9a:	67 2f       	mov	r22, r23
    8b9c:	71 91       	ld	r23, Z+
    8b9e:	77 23       	and	r23, r23
    8ba0:	e1 f7       	brne	.-8      	; 0x8b9a <strrev+0x4>
    8ba2:	32 97       	sbiw	r30, 0x02	; 2
    8ba4:	04 c0       	rjmp	.+8      	; 0x8bae <strrev+0x18>
    8ba6:	7c 91       	ld	r23, X
    8ba8:	6d 93       	st	X+, r22
    8baa:	70 83       	st	Z, r23
    8bac:	62 91       	ld	r22, -Z
    8bae:	ae 17       	cp	r26, r30
    8bb0:	bf 07       	cpc	r27, r31
    8bb2:	c8 f3       	brcs	.-14     	; 0x8ba6 <strrev+0x10>
    8bb4:	08 95       	ret

00008bb6 <fputc>:
    8bb6:	0f 93       	push	r16
    8bb8:	1f 93       	push	r17
    8bba:	cf 93       	push	r28
    8bbc:	df 93       	push	r29
    8bbe:	8c 01       	movw	r16, r24
    8bc0:	eb 01       	movw	r28, r22
    8bc2:	8b 81       	ldd	r24, Y+3	; 0x03
    8bc4:	81 ff       	sbrs	r24, 1
    8bc6:	1b c0       	rjmp	.+54     	; 0x8bfe <fputc+0x48>
    8bc8:	82 ff       	sbrs	r24, 2
    8bca:	0d c0       	rjmp	.+26     	; 0x8be6 <fputc+0x30>
    8bcc:	2e 81       	ldd	r18, Y+6	; 0x06
    8bce:	3f 81       	ldd	r19, Y+7	; 0x07
    8bd0:	8c 81       	ldd	r24, Y+4	; 0x04
    8bd2:	9d 81       	ldd	r25, Y+5	; 0x05
    8bd4:	28 17       	cp	r18, r24
    8bd6:	39 07       	cpc	r19, r25
    8bd8:	64 f4       	brge	.+24     	; 0x8bf2 <fputc+0x3c>
    8bda:	e8 81       	ld	r30, Y
    8bdc:	f9 81       	ldd	r31, Y+1	; 0x01
    8bde:	01 93       	st	Z+, r16
    8be0:	f9 83       	std	Y+1, r31	; 0x01
    8be2:	e8 83       	st	Y, r30
    8be4:	06 c0       	rjmp	.+12     	; 0x8bf2 <fputc+0x3c>
    8be6:	e8 85       	ldd	r30, Y+8	; 0x08
    8be8:	f9 85       	ldd	r31, Y+9	; 0x09
    8bea:	80 2f       	mov	r24, r16
    8bec:	09 95       	icall
    8bee:	00 97       	sbiw	r24, 0x00	; 0
    8bf0:	31 f4       	brne	.+12     	; 0x8bfe <fputc+0x48>
    8bf2:	8e 81       	ldd	r24, Y+6	; 0x06
    8bf4:	9f 81       	ldd	r25, Y+7	; 0x07
    8bf6:	01 96       	adiw	r24, 0x01	; 1
    8bf8:	9f 83       	std	Y+7, r25	; 0x07
    8bfa:	8e 83       	std	Y+6, r24	; 0x06
    8bfc:	02 c0       	rjmp	.+4      	; 0x8c02 <fputc+0x4c>
    8bfe:	0f ef       	ldi	r16, 0xFF	; 255
    8c00:	1f ef       	ldi	r17, 0xFF	; 255
    8c02:	c8 01       	movw	r24, r16
    8c04:	df 91       	pop	r29
    8c06:	cf 91       	pop	r28
    8c08:	1f 91       	pop	r17
    8c0a:	0f 91       	pop	r16
    8c0c:	08 95       	ret

00008c0e <__ultoa_invert>:
    8c0e:	fa 01       	movw	r30, r20
    8c10:	aa 27       	eor	r26, r26
    8c12:	28 30       	cpi	r18, 0x08	; 8
    8c14:	51 f1       	breq	.+84     	; 0x8c6a <__ultoa_invert+0x5c>
    8c16:	20 31       	cpi	r18, 0x10	; 16
    8c18:	81 f1       	breq	.+96     	; 0x8c7a <__ultoa_invert+0x6c>
    8c1a:	e8 94       	clt
    8c1c:	6f 93       	push	r22
    8c1e:	6e 7f       	andi	r22, 0xFE	; 254
    8c20:	6e 5f       	subi	r22, 0xFE	; 254
    8c22:	7f 4f       	sbci	r23, 0xFF	; 255
    8c24:	8f 4f       	sbci	r24, 0xFF	; 255
    8c26:	9f 4f       	sbci	r25, 0xFF	; 255
    8c28:	af 4f       	sbci	r26, 0xFF	; 255
    8c2a:	b1 e0       	ldi	r27, 0x01	; 1
    8c2c:	3e d0       	rcall	.+124    	; 0x8caa <__ultoa_invert+0x9c>
    8c2e:	b4 e0       	ldi	r27, 0x04	; 4
    8c30:	3c d0       	rcall	.+120    	; 0x8caa <__ultoa_invert+0x9c>
    8c32:	67 0f       	add	r22, r23
    8c34:	78 1f       	adc	r23, r24
    8c36:	89 1f       	adc	r24, r25
    8c38:	9a 1f       	adc	r25, r26
    8c3a:	a1 1d       	adc	r26, r1
    8c3c:	68 0f       	add	r22, r24
    8c3e:	79 1f       	adc	r23, r25
    8c40:	8a 1f       	adc	r24, r26
    8c42:	91 1d       	adc	r25, r1
    8c44:	a1 1d       	adc	r26, r1
    8c46:	6a 0f       	add	r22, r26
    8c48:	71 1d       	adc	r23, r1
    8c4a:	81 1d       	adc	r24, r1
    8c4c:	91 1d       	adc	r25, r1
    8c4e:	a1 1d       	adc	r26, r1
    8c50:	20 d0       	rcall	.+64     	; 0x8c92 <__ultoa_invert+0x84>
    8c52:	09 f4       	brne	.+2      	; 0x8c56 <__ultoa_invert+0x48>
    8c54:	68 94       	set
    8c56:	3f 91       	pop	r19
    8c58:	2a e0       	ldi	r18, 0x0A	; 10
    8c5a:	26 9f       	mul	r18, r22
    8c5c:	11 24       	eor	r1, r1
    8c5e:	30 19       	sub	r19, r0
    8c60:	30 5d       	subi	r19, 0xD0	; 208
    8c62:	31 93       	st	Z+, r19
    8c64:	de f6       	brtc	.-74     	; 0x8c1c <__ultoa_invert+0xe>
    8c66:	cf 01       	movw	r24, r30
    8c68:	08 95       	ret
    8c6a:	46 2f       	mov	r20, r22
    8c6c:	47 70       	andi	r20, 0x07	; 7
    8c6e:	40 5d       	subi	r20, 0xD0	; 208
    8c70:	41 93       	st	Z+, r20
    8c72:	b3 e0       	ldi	r27, 0x03	; 3
    8c74:	0f d0       	rcall	.+30     	; 0x8c94 <__ultoa_invert+0x86>
    8c76:	c9 f7       	brne	.-14     	; 0x8c6a <__ultoa_invert+0x5c>
    8c78:	f6 cf       	rjmp	.-20     	; 0x8c66 <__ultoa_invert+0x58>
    8c7a:	46 2f       	mov	r20, r22
    8c7c:	4f 70       	andi	r20, 0x0F	; 15
    8c7e:	40 5d       	subi	r20, 0xD0	; 208
    8c80:	4a 33       	cpi	r20, 0x3A	; 58
    8c82:	18 f0       	brcs	.+6      	; 0x8c8a <__ultoa_invert+0x7c>
    8c84:	49 5d       	subi	r20, 0xD9	; 217
    8c86:	31 fd       	sbrc	r19, 1
    8c88:	40 52       	subi	r20, 0x20	; 32
    8c8a:	41 93       	st	Z+, r20
    8c8c:	02 d0       	rcall	.+4      	; 0x8c92 <__ultoa_invert+0x84>
    8c8e:	a9 f7       	brne	.-22     	; 0x8c7a <__ultoa_invert+0x6c>
    8c90:	ea cf       	rjmp	.-44     	; 0x8c66 <__ultoa_invert+0x58>
    8c92:	b4 e0       	ldi	r27, 0x04	; 4
    8c94:	a6 95       	lsr	r26
    8c96:	97 95       	ror	r25
    8c98:	87 95       	ror	r24
    8c9a:	77 95       	ror	r23
    8c9c:	67 95       	ror	r22
    8c9e:	ba 95       	dec	r27
    8ca0:	c9 f7       	brne	.-14     	; 0x8c94 <__ultoa_invert+0x86>
    8ca2:	00 97       	sbiw	r24, 0x00	; 0
    8ca4:	61 05       	cpc	r22, r1
    8ca6:	71 05       	cpc	r23, r1
    8ca8:	08 95       	ret
    8caa:	9b 01       	movw	r18, r22
    8cac:	ac 01       	movw	r20, r24
    8cae:	0a 2e       	mov	r0, r26
    8cb0:	06 94       	lsr	r0
    8cb2:	57 95       	ror	r21
    8cb4:	47 95       	ror	r20
    8cb6:	37 95       	ror	r19
    8cb8:	27 95       	ror	r18
    8cba:	ba 95       	dec	r27
    8cbc:	c9 f7       	brne	.-14     	; 0x8cb0 <__ultoa_invert+0xa2>
    8cbe:	62 0f       	add	r22, r18
    8cc0:	73 1f       	adc	r23, r19
    8cc2:	84 1f       	adc	r24, r20
    8cc4:	95 1f       	adc	r25, r21
    8cc6:	a0 1d       	adc	r26, r0
    8cc8:	08 95       	ret

00008cca <__prologue_saves__>:
    8cca:	2f 92       	push	r2
    8ccc:	3f 92       	push	r3
    8cce:	4f 92       	push	r4
    8cd0:	5f 92       	push	r5
    8cd2:	6f 92       	push	r6
    8cd4:	7f 92       	push	r7
    8cd6:	8f 92       	push	r8
    8cd8:	9f 92       	push	r9
    8cda:	af 92       	push	r10
    8cdc:	bf 92       	push	r11
    8cde:	cf 92       	push	r12
    8ce0:	df 92       	push	r13
    8ce2:	ef 92       	push	r14
    8ce4:	ff 92       	push	r15
    8ce6:	0f 93       	push	r16
    8ce8:	1f 93       	push	r17
    8cea:	cf 93       	push	r28
    8cec:	df 93       	push	r29
    8cee:	cd b7       	in	r28, 0x3d	; 61
    8cf0:	de b7       	in	r29, 0x3e	; 62
    8cf2:	ca 1b       	sub	r28, r26
    8cf4:	db 0b       	sbc	r29, r27
    8cf6:	0f b6       	in	r0, 0x3f	; 63
    8cf8:	f8 94       	cli
    8cfa:	de bf       	out	0x3e, r29	; 62
    8cfc:	0f be       	out	0x3f, r0	; 63
    8cfe:	cd bf       	out	0x3d, r28	; 61
    8d00:	09 94       	ijmp

00008d02 <__epilogue_restores__>:
    8d02:	2a 88       	ldd	r2, Y+18	; 0x12
    8d04:	39 88       	ldd	r3, Y+17	; 0x11
    8d06:	48 88       	ldd	r4, Y+16	; 0x10
    8d08:	5f 84       	ldd	r5, Y+15	; 0x0f
    8d0a:	6e 84       	ldd	r6, Y+14	; 0x0e
    8d0c:	7d 84       	ldd	r7, Y+13	; 0x0d
    8d0e:	8c 84       	ldd	r8, Y+12	; 0x0c
    8d10:	9b 84       	ldd	r9, Y+11	; 0x0b
    8d12:	aa 84       	ldd	r10, Y+10	; 0x0a
    8d14:	b9 84       	ldd	r11, Y+9	; 0x09
    8d16:	c8 84       	ldd	r12, Y+8	; 0x08
    8d18:	df 80       	ldd	r13, Y+7	; 0x07
    8d1a:	ee 80       	ldd	r14, Y+6	; 0x06
    8d1c:	fd 80       	ldd	r15, Y+5	; 0x05
    8d1e:	0c 81       	ldd	r16, Y+4	; 0x04
    8d20:	1b 81       	ldd	r17, Y+3	; 0x03
    8d22:	aa 81       	ldd	r26, Y+2	; 0x02
    8d24:	b9 81       	ldd	r27, Y+1	; 0x01
    8d26:	ce 0f       	add	r28, r30
    8d28:	d1 1d       	adc	r29, r1
    8d2a:	0f b6       	in	r0, 0x3f	; 63
    8d2c:	f8 94       	cli
    8d2e:	de bf       	out	0x3e, r29	; 62
    8d30:	0f be       	out	0x3f, r0	; 63
    8d32:	cd bf       	out	0x3d, r28	; 61
    8d34:	ed 01       	movw	r28, r26
    8d36:	08 95       	ret

00008d38 <_exit>:
    8d38:	f8 94       	cli

00008d3a <__stop_program>:
    8d3a:	ff cf       	rjmp	.-2      	; 0x8d3a <__stop_program>
