
DrumSynthFront.elf:     file format elf32-avr

Sections:
Idx Name          Size      VMA       LMA       File off  Algn
  0 .text         00001396  00000000  00000000  00000094  2**1
                  CONTENTS, ALLOC, LOAD, READONLY, CODE
  1 .data         00000242  00800060  00001396  0000142a  2**0
                  CONTENTS, ALLOC, LOAD, DATA
  2 .bss          00000082  008002a2  008002a2  0000166c  2**0
                  ALLOC
  3 .stab         00000d5c  00000000  00000000  0000166c  2**2
                  CONTENTS, READONLY, DEBUGGING
  4 .stabstr      000002bc  00000000  00000000  000023c8  2**0
                  CONTENTS, READONLY, DEBUGGING
  5 .debug_aranges 00000100  00000000  00000000  00002684  2**0
                  CONTENTS, READONLY, DEBUGGING
  6 .debug_pubnames 000002b4  00000000  00000000  00002784  2**0
                  CONTENTS, READONLY, DEBUGGING
  7 .debug_info   00001c28  00000000  00000000  00002a38  2**0
                  CONTENTS, READONLY, DEBUGGING
  8 .debug_abbrev 000009ee  00000000  00000000  00004660  2**0
                  CONTENTS, READONLY, DEBUGGING
  9 .debug_line   00001b1f  00000000  00000000  0000504e  2**0
                  CONTENTS, READONLY, DEBUGGING
 10 .debug_frame  00000240  00000000  00000000  00006b70  2**2
                  CONTENTS, READONLY, DEBUGGING
 11 .debug_str    00000a6e  00000000  00000000  00006db0  2**0
                  CONTENTS, READONLY, DEBUGGING
 12 .debug_loc    00000cd7  00000000  00000000  0000781e  2**0
                  CONTENTS, READONLY, DEBUGGING
 13 .debug_pubtypes 00000241  00000000  00000000  000084f5  2**0
                  CONTENTS, READONLY, DEBUGGING
 14 .debug_ranges 00000088  00000000  00000000  00008736  2**0
                  CONTENTS, READONLY, DEBUGGING

Disassembly of section .text:

00000000 <__vectors>:
       0:	0c 94 2a 00 	jmp	0x54	; 0x54 <__ctors_end>
       4:	0c 94 47 00 	jmp	0x8e	; 0x8e <__bad_interrupt>
       8:	0c 94 47 00 	jmp	0x8e	; 0x8e <__bad_interrupt>
       c:	0c 94 47 00 	jmp	0x8e	; 0x8e <__bad_interrupt>
      10:	0c 94 47 00 	jmp	0x8e	; 0x8e <__bad_interrupt>
      14:	0c 94 47 00 	jmp	0x8e	; 0x8e <__bad_interrupt>
      18:	0c 94 47 00 	jmp	0x8e	; 0x8e <__bad_interrupt>
      1c:	0c 94 47 00 	jmp	0x8e	; 0x8e <__bad_interrupt>
      20:	0c 94 47 00 	jmp	0x8e	; 0x8e <__bad_interrupt>
      24:	0c 94 47 00 	jmp	0x8e	; 0x8e <__bad_interrupt>
      28:	0c 94 ce 00 	jmp	0x19c	; 0x19c <__vector_10>
      2c:	0c 94 47 00 	jmp	0x8e	; 0x8e <__bad_interrupt>
      30:	0c 94 47 00 	jmp	0x8e	; 0x8e <__bad_interrupt>
      34:	0c 94 47 00 	jmp	0x8e	; 0x8e <__bad_interrupt>
      38:	0c 94 47 00 	jmp	0x8e	; 0x8e <__bad_interrupt>
      3c:	0c 94 47 00 	jmp	0x8e	; 0x8e <__bad_interrupt>
      40:	0c 94 47 00 	jmp	0x8e	; 0x8e <__bad_interrupt>
      44:	0c 94 47 00 	jmp	0x8e	; 0x8e <__bad_interrupt>
      48:	0c 94 47 00 	jmp	0x8e	; 0x8e <__bad_interrupt>
      4c:	0c 94 47 00 	jmp	0x8e	; 0x8e <__bad_interrupt>
      50:	0c 94 47 00 	jmp	0x8e	; 0x8e <__bad_interrupt>

00000054 <__ctors_end>:
      54:	11 24       	eor	r1, r1
      56:	1f be       	out	0x3f, r1	; 63
      58:	cf e5       	ldi	r28, 0x5F	; 95
      5a:	d8 e0       	ldi	r29, 0x08	; 8
      5c:	de bf       	out	0x3e, r29	; 62
      5e:	cd bf       	out	0x3d, r28	; 61

00000060 <__do_copy_data>:
      60:	12 e0       	ldi	r17, 0x02	; 2
      62:	a0 e6       	ldi	r26, 0x60	; 96
      64:	b0 e0       	ldi	r27, 0x00	; 0
      66:	e6 e9       	ldi	r30, 0x96	; 150
      68:	f3 e1       	ldi	r31, 0x13	; 19
      6a:	02 c0       	rjmp	.+4      	; 0x70 <__do_copy_data+0x10>
      6c:	05 90       	lpm	r0, Z+
      6e:	0d 92       	st	X+, r0
      70:	a2 3a       	cpi	r26, 0xA2	; 162
      72:	b1 07       	cpc	r27, r17
      74:	d9 f7       	brne	.-10     	; 0x6c <__do_copy_data+0xc>

00000076 <__do_clear_bss>:
      76:	13 e0       	ldi	r17, 0x03	; 3
      78:	a2 ea       	ldi	r26, 0xA2	; 162
      7a:	b2 e0       	ldi	r27, 0x02	; 2
      7c:	01 c0       	rjmp	.+2      	; 0x80 <.do_clear_bss_start>

0000007e <.do_clear_bss_loop>:
      7e:	1d 92       	st	X+, r1

00000080 <.do_clear_bss_start>:
      80:	a4 32       	cpi	r26, 0x24	; 36
      82:	b1 07       	cpc	r27, r17
      84:	e1 f7       	brne	.-8      	; 0x7e <.do_clear_bss_loop>
      86:	0e 94 f1 01 	call	0x3e2	; 0x3e2 <main>
      8a:	0c 94 c9 09 	jmp	0x1392	; 0x1392 <_exit>

0000008e <__bad_interrupt>:
      8e:	0c 94 00 00 	jmp	0	; 0x0 <__vectors>

00000092 <din_init>:
{
	uint8_t outPins = DIN_LOAD_PIN | DIN_CLK_PIN;
	uint8_t inPins  = DIN_INPUT_PIN;
	
	//configure as input
	DIN_DDR &= ~inPins; 
      92:	a7 98       	cbi	0x14, 7	; 20
	
	//configure as outputs
	DIN_DDR |= outPins; 
      94:	84 b3       	in	r24, 0x14	; 20
      96:	80 66       	ori	r24, 0x60	; 96
      98:	84 bb       	out	0x14, r24	; 20
	
	// disable internal pull ups
	DIN_PORT &= ~inPins;
      9a:	af 98       	cbi	0x15, 7	; 21
	
	//set outputs to low
	DIN_PORT |= outPins;
      9c:	85 b3       	in	r24, 0x15	; 21
      9e:	80 66       	ori	r24, 0x60	; 96
      a0:	85 bb       	out	0x15, r24	; 21
	
	//clear the input data array
	memset(din_inputData,0,NUM_INPUTS/8);
      a2:	10 92 e9 02 	sts	0x02E9, r1
};
      a6:	08 95       	ret

000000a8 <din_shift>:
//---------------------------------------------------------------------
void din_shift()
{
	DIN_PORT &= ~DIN_CLK_PIN; //clock low
      a8:	ae 98       	cbi	0x15, 6	; 21
//	_delay_ms( 10 );
	DIN_PORT |= DIN_CLK_PIN; //clock high
      aa:	ae 9a       	sbi	0x15, 6	; 21
	//_delay_ms( 10 );
	/*
		DIN_PORT &= ~DIN_CLK_PIN; //clock low
	_delay_ms( 10 );
	*/
}
      ac:	08 95       	ret

000000ae <din_load>:
void din_load()
{
	//	DIN_PORT |= DIN_CLK_PIN; //clock high
	//_delay_ms( 10 );
	//set load pin LOW to get new data
	DIN_PORT &= ~DIN_LOAD_PIN;
      ae:	ad 98       	cbi	0x15, 5	; 21
	//_delay_ms( 10 );
	//set load pin HIGH again to enable clock
	DIN_PORT |= DIN_LOAD_PIN;
      b0:	ad 9a       	sbi	0x15, 5	; 21
	//_delay_ms( 10 );
	//		DIN_PORT &= ~DIN_CLK_PIN; //clock low
	//_delay_ms( 10 );
}
      b2:	08 95       	ret

000000b4 <din_readNextInput>:
{

		
		
	//check if a new load is neccessary
	if(inputPos>=NUM_INPUTS)
      b4:	80 91 60 00 	lds	r24, 0x0060
      b8:	88 30       	cpi	r24, 0x08	; 8
      ba:	f0 f0       	brcs	.+60     	; 0xf8 <din_readNextInput+0x44>
	{
		//reset inputPos
		inputPos = 0;
      bc:	10 92 60 00 	sts	0x0060, r1
		//load new data into register
		
		DIN_PORT |= DIN_CLK_PIN; //clock high
      c0:	ae 9a       	sbi	0x15, 6	; 21
	#else
		//round up by default
		__ticks_dc = (uint32_t)(ceil(fabs(__tmp)));
	#endif

	__builtin_avr_delay_cycles(__ticks_dc);
      c2:	83 ec       	ldi	r24, 0xC3	; 195
      c4:	99 e0       	ldi	r25, 0x09	; 9
      c6:	01 97       	sbiw	r24, 0x01	; 1
      c8:	f1 f7       	brne	.-4      	; 0xc6 <din_readNextInput+0x12>
      ca:	00 c0       	rjmp	.+0      	; 0xcc <din_readNextInput+0x18>
      cc:	00 00       	nop
		_delay_ms( 10 );
		//set clock pin low
//		DIN_PORT &= ~DIN_CLK_PIN;

		//set load pin LOW to get new data
		DIN_PORT &= ~DIN_LOAD_PIN;
      ce:	ad 98       	cbi	0x15, 5	; 21
      d0:	83 ec       	ldi	r24, 0xC3	; 195
      d2:	99 e0       	ldi	r25, 0x09	; 9
      d4:	01 97       	sbiw	r24, 0x01	; 1
      d6:	f1 f7       	brne	.-4      	; 0xd4 <din_readNextInput+0x20>
      d8:	00 c0       	rjmp	.+0      	; 0xda <din_readNextInput+0x26>
      da:	00 00       	nop
		_delay_ms( 10 );
		//set load pin HIGH again to enable clock
		DIN_PORT |= DIN_LOAD_PIN;
      dc:	ad 9a       	sbi	0x15, 5	; 21
      de:	83 ec       	ldi	r24, 0xC3	; 195
      e0:	99 e0       	ldi	r25, 0x09	; 9
      e2:	01 97       	sbiw	r24, 0x01	; 1
      e4:	f1 f7       	brne	.-4      	; 0xe2 <din_readNextInput+0x2e>
      e6:	00 c0       	rjmp	.+0      	; 0xe8 <din_readNextInput+0x34>
      e8:	00 00       	nop
		_delay_ms( 10 );
			DIN_PORT &= ~DIN_CLK_PIN; //clock low
      ea:	ae 98       	cbi	0x15, 6	; 21
      ec:	83 ec       	ldi	r24, 0xC3	; 195
      ee:	99 e0       	ldi	r25, 0x09	; 9
      f0:	01 97       	sbiw	r24, 0x01	; 1
      f2:	f1 f7       	brne	.-4      	; 0xf0 <din_readNextInput+0x3c>
      f4:	00 c0       	rjmp	.+0      	; 0xf6 <din_readNextInput+0x42>
      f6:	00 00       	nop
	

	
	//store input value in inputData[]
	uint8_t arrayPos = 0;//inputPos/8;
	uint8_t bitPos	 = (inputPos);//(1<<(inputPos&0x7));
      f8:	20 91 60 00 	lds	r18, 0x0060
	//clear bit
	din_inputData[arrayPos] &= ~(1<<bitPos);
      fc:	81 e0       	ldi	r24, 0x01	; 1
      fe:	90 e0       	ldi	r25, 0x00	; 0
     100:	02 2e       	mov	r0, r18
     102:	02 c0       	rjmp	.+4      	; 0x108 <din_readNextInput+0x54>
     104:	88 0f       	add	r24, r24
     106:	99 1f       	adc	r25, r25
     108:	0a 94       	dec	r0
     10a:	e2 f7       	brpl	.-8      	; 0x104 <din_readNextInput+0x50>
     10c:	80 95       	com	r24
     10e:	90 91 e9 02 	lds	r25, 0x02E9
     112:	38 2f       	mov	r19, r24
     114:	39 23       	and	r19, r25
     116:	30 93 e9 02 	sts	0x02E9, r19
	{
		value = 0;
	
	}
	
	din_inputData[arrayPos] |= (value << bitPos);
     11a:	81 e0       	ldi	r24, 0x01	; 1
     11c:	90 e0       	ldi	r25, 0x00	; 0
     11e:	9f 99       	sbic	0x13, 7	; 19
     120:	02 c0       	rjmp	.+4      	; 0x126 <din_readNextInput+0x72>
     122:	80 e0       	ldi	r24, 0x00	; 0
     124:	90 e0       	ldi	r25, 0x00	; 0
     126:	02 2e       	mov	r0, r18
     128:	02 c0       	rjmp	.+4      	; 0x12e <din_readNextInput+0x7a>
     12a:	88 0f       	add	r24, r24
     12c:	99 1f       	adc	r25, r25
     12e:	0a 94       	dec	r0
     130:	e2 f7       	brpl	.-8      	; 0x12a <din_readNextInput+0x76>
     132:	83 2b       	or	r24, r19
     134:	80 93 e9 02 	sts	0x02E9, r24
	//increment position counter
	inputPos++;
     138:	2f 5f       	subi	r18, 0xFF	; 255
     13a:	20 93 60 00 	sts	0x0060, r18
	
		//shift data
	DIN_PORT |= DIN_CLK_PIN; //clock high
     13e:	ae 9a       	sbi	0x15, 6	; 21
     140:	83 ec       	ldi	r24, 0xC3	; 195
     142:	99 e0       	ldi	r25, 0x09	; 9
     144:	01 97       	sbiw	r24, 0x01	; 1
     146:	f1 f7       	brne	.-4      	; 0x144 <din_readNextInput+0x90>
     148:	00 c0       	rjmp	.+0      	; 0x14a <din_readNextInput+0x96>
     14a:	00 00       	nop
	_delay_ms( 10 );
	DIN_PORT &= ~DIN_CLK_PIN; //clock low
     14c:	ae 98       	cbi	0x15, 6	; 21
     14e:	83 ec       	ldi	r24, 0xC3	; 195
     150:	99 e0       	ldi	r25, 0x09	; 9
     152:	01 97       	sbiw	r24, 0x01	; 1
     154:	f1 f7       	brne	.-4      	; 0x152 <din_readNextInput+0x9e>
     156:	00 c0       	rjmp	.+0      	; 0x158 <din_readNextInput+0xa4>
     158:	00 00       	nop
	_delay_ms( 10 );
	
	
     15a:	08 95       	ret

0000015c <encode_init>:
	// set used pins to input
    uint8_t pins = PIN_A|
                   PIN_B |
				   PIN_BUTTON;
				   
	ENCODER_DDR &= ~pins; //configure as input
     15c:	84 b3       	in	r24, 0x14	; 20
     15e:	88 7f       	andi	r24, 0xF8	; 248
     160:	84 bb       	out	0x14, r24	; 20
	
	// enable internal pull ups
	ECODER_PORT |= pins;
     162:	85 b3       	in	r24, 0x15	; 21
     164:	87 60       	ori	r24, 0x07	; 7
     166:	85 bb       	out	0x15, r24	; 21
	
  int8_t new;
 
  new = 0;
  if( PHASE_A )
     168:	98 99       	sbic	0x13, 0	; 19
     16a:	02 c0       	rjmp	.+4      	; 0x170 <encode_init+0x14>
	// enable internal pull ups
	ECODER_PORT |= pins;
	
  int8_t new;
 
  new = 0;
     16c:	80 e0       	ldi	r24, 0x00	; 0
     16e:	01 c0       	rjmp	.+2      	; 0x172 <encode_init+0x16>
  if( PHASE_A )
    new = 3;
     170:	83 e0       	ldi	r24, 0x03	; 3
  if( PHASE_B )
     172:	99 9b       	sbis	0x13, 1	; 19
     174:	02 c0       	rjmp	.+4      	; 0x17a <encode_init+0x1e>
    new ^= 1;                   // convert gray to binary
     176:	91 e0       	ldi	r25, 0x01	; 1
     178:	89 27       	eor	r24, r25
  last = new;                   // power on state
     17a:	80 93 a2 02 	sts	0x02A2, r24
  enc_delta = 0;
     17e:	10 92 eb 02 	sts	0x02EB, r1
  TCCR0 = 1<<WGM01^1<<CS01^1<<CS00;     // CTC, XTAL / 64
     182:	8b e0       	ldi	r24, 0x0B	; 11
     184:	83 bf       	out	0x33, r24	; 51
  OCR0 = (uint8_t)(F_CPU / 64.0 * 1e-3 - 0.5);   // 1ms
     186:	8c e7       	ldi	r24, 0x7C	; 124
     188:	8c bf       	out	0x3c, r24	; 60
  TIMSK |= 1<<OCIE0;
     18a:	89 b7       	in	r24, 0x39	; 57
     18c:	82 60       	ori	r24, 0x02	; 2
     18e:	89 bf       	out	0x39, r24	; 57
  
  lastButton = 0;
     190:	10 92 a3 02 	sts	0x02A3, r1
  buttonValue = 1;
     194:	81 e0       	ldi	r24, 0x01	; 1
     196:	80 93 ea 02 	sts	0x02EA, r24
}
     19a:	08 95       	ret

0000019c <__vector_10>:
 
 
ISR( TIMER0_COMP_vect )             // 1ms for manual movement
{
     19c:	1f 92       	push	r1
     19e:	0f 92       	push	r0
     1a0:	0f b6       	in	r0, 0x3f	; 63
     1a2:	0f 92       	push	r0
     1a4:	11 24       	eor	r1, r1
     1a6:	2f 93       	push	r18
     1a8:	3f 93       	push	r19
     1aa:	4f 93       	push	r20
     1ac:	8f 93       	push	r24
     1ae:	9f 93       	push	r25
  int8_t new, diff;
 
  new = 0;
  if( PHASE_A )
     1b0:	98 99       	sbic	0x13, 0	; 19
     1b2:	02 c0       	rjmp	.+4      	; 0x1b8 <__vector_10+0x1c>
 
ISR( TIMER0_COMP_vect )             // 1ms for manual movement
{
  int8_t new, diff;
 
  new = 0;
     1b4:	80 e0       	ldi	r24, 0x00	; 0
     1b6:	01 c0       	rjmp	.+2      	; 0x1ba <__vector_10+0x1e>
  if( PHASE_A )
    new = 3;
     1b8:	83 e0       	ldi	r24, 0x03	; 3
  if( PHASE_B )
     1ba:	99 9b       	sbis	0x13, 1	; 19
     1bc:	02 c0       	rjmp	.+4      	; 0x1c2 <__vector_10+0x26>
    new ^= 1;						// convert gray to binary
     1be:	91 e0       	ldi	r25, 0x01	; 1
     1c0:	89 27       	eor	r24, r25
  diff = last - new;                // difference last - new
     1c2:	90 91 a2 02 	lds	r25, 0x02A2
     1c6:	98 1b       	sub	r25, r24
  if( diff & 1 ){					// bit 0 = value (1)
     1c8:	90 ff       	sbrs	r25, 0
     1ca:	09 c0       	rjmp	.+18     	; 0x1de <__vector_10+0x42>
    last = new;						// store new as next last
     1cc:	80 93 a2 02 	sts	0x02A2, r24
    enc_delta += (diff & 2) - 1;    // bit 1 = direction (+/-)
     1d0:	80 91 eb 02 	lds	r24, 0x02EB
     1d4:	81 50       	subi	r24, 0x01	; 1
     1d6:	92 70       	andi	r25, 0x02	; 2
     1d8:	98 0f       	add	r25, r24
     1da:	90 93 eb 02 	sts	0x02EB, r25
  }
  
 // buttonValue = ENCODER_BUTTON ;
  
  //button
  if(ENCODER_BUTTON == lastButton)
     1de:	23 b3       	in	r18, 0x13	; 19
     1e0:	40 91 a3 02 	lds	r20, 0x02A3
     1e4:	30 e0       	ldi	r19, 0x00	; 0
     1e6:	24 70       	andi	r18, 0x04	; 4
     1e8:	30 70       	andi	r19, 0x00	; 0
     1ea:	84 2f       	mov	r24, r20
     1ec:	99 27       	eor	r25, r25
     1ee:	87 fd       	sbrc	r24, 7
     1f0:	90 95       	com	r25
     1f2:	28 17       	cp	r18, r24
     1f4:	39 07       	cpc	r19, r25
     1f6:	11 f4       	brne	.+4      	; 0x1fc <__vector_10+0x60>
  {
	  buttonValue = lastButton;
     1f8:	40 93 ea 02 	sts	0x02EA, r20
  }
  lastButton = ENCODER_BUTTON;
     1fc:	83 b3       	in	r24, 0x13	; 19
     1fe:	84 70       	andi	r24, 0x04	; 4
     200:	80 93 a3 02 	sts	0x02A3, r24
  
}
     204:	9f 91       	pop	r25
     206:	8f 91       	pop	r24
     208:	4f 91       	pop	r20
     20a:	3f 91       	pop	r19
     20c:	2f 91       	pop	r18
     20e:	0f 90       	pop	r0
     210:	0f be       	out	0x3f, r0	; 63
     212:	0f 90       	pop	r0
     214:	1f 90       	pop	r1
     216:	18 95       	reti

00000218 <encode_read1>:
 
int8_t encode_read1( void )         // read single step encoders
{
  int8_t val;
 
  cli();
     218:	f8 94       	cli
  val = enc_delta;
     21a:	80 91 eb 02 	lds	r24, 0x02EB
  enc_delta = 0;
     21e:	10 92 eb 02 	sts	0x02EB, r1
  sei();
     222:	78 94       	sei
  return val;						// counts since last call
}
     224:	08 95       	ret

00000226 <encode_read2>:
 
int8_t encode_read2( void )         // read two step encoders
{
  int8_t val;
 
  cli();
     226:	f8 94       	cli
  val = enc_delta;
     228:	80 91 eb 02 	lds	r24, 0x02EB
  enc_delta = val & 1;
     22c:	98 2f       	mov	r25, r24
     22e:	91 70       	andi	r25, 0x01	; 1
     230:	90 93 eb 02 	sts	0x02EB, r25
  sei();
     234:	78 94       	sei
  return val >> 1;
}
     236:	85 95       	asr	r24
     238:	08 95       	ret

0000023a <encode_read4>:
 
int8_t encode_read4( void )         // read four step encoders
{
  int8_t val;
 
  cli();
     23a:	f8 94       	cli
  val = enc_delta;
     23c:	80 91 eb 02 	lds	r24, 0x02EB
  enc_delta = val & 3;
     240:	98 2f       	mov	r25, r24
     242:	93 70       	andi	r25, 0x03	; 3
     244:	90 93 eb 02 	sts	0x02EB, r25
  sei();
     248:	78 94       	sei
  return val >> 2;
}
     24a:	85 95       	asr	r24
     24c:	85 95       	asr	r24
     24e:	08 95       	ret

00000250 <encode_readButton>:

//get the button value
uint8_t encode_readButton()
{
	// return true if button is pressed
	return (buttonValue==0);
     250:	90 91 ea 02 	lds	r25, 0x02EA
     254:	81 e0       	ldi	r24, 0x01	; 1
     256:	91 11       	cpse	r25, r1
     258:	80 e0       	ldi	r24, 0x00	; 0
     25a:	08 95       	ret

0000025c <lcd_enable>:
 
////////////////////////////////////////////////////////////////////////////////
// Erzeugt einen Enable-Puls
static void lcd_enable( void )
{
    LCD_PORT |= (1<<LCD_EN);     // Enable auf 1 setzen
     25c:	db 9a       	sbi	0x1b, 3	; 27
	#else
		//round up by default
		__ticks_dc = (uint32_t)(ceil(fabs(__tmp)));
	#endif

	__builtin_avr_delay_cycles(__ticks_dc);
     25e:	85 e3       	ldi	r24, 0x35	; 53
     260:	8a 95       	dec	r24
     262:	f1 f7       	brne	.-4      	; 0x260 <lcd_enable+0x4>
     264:	00 00       	nop
    _delay_us( LCD_ENABLE_US );  // kurze Pause
    LCD_PORT &= ~(1<<LCD_EN);    // Enable auf 0 setzen
     266:	db 98       	cbi	0x1b, 3	; 27
}
     268:	08 95       	ret

0000026a <lcd_out>:
// Sendet eine 4-bit Ausgabeoperation an das LCD
static void lcd_out( uint8_t data )
{
    data &= 0xF0;                       // obere 4 Bit maskieren
 
    LCD_PORT &= ~(0xF0>>(4-LCD_DB));    // Maske löschen
     26a:	9b b3       	in	r25, 0x1b	; 27
     26c:	9f 70       	andi	r25, 0x0F	; 15
     26e:	9b bb       	out	0x1b, r25	; 27
    LCD_PORT |= (data>>(4-LCD_DB));     // Bits setzen
     270:	9b b3       	in	r25, 0x1b	; 27
 
////////////////////////////////////////////////////////////////////////////////
// Sendet eine 4-bit Ausgabeoperation an das LCD
static void lcd_out( uint8_t data )
{
    data &= 0xF0;                       // obere 4 Bit maskieren
     272:	80 7f       	andi	r24, 0xF0	; 240
 
    LCD_PORT &= ~(0xF0>>(4-LCD_DB));    // Maske löschen
    LCD_PORT |= (data>>(4-LCD_DB));     // Bits setzen
     274:	98 2b       	or	r25, r24
     276:	9b bb       	out	0x1b, r25	; 27
    lcd_enable();
     278:	0e 94 2e 01 	call	0x25c	; 0x25c <lcd_enable>
}
     27c:	08 95       	ret

0000027e <lcd_data>:
}
  
////////////////////////////////////////////////////////////////////////////////
// Sendet ein Datenbyte an das LCD
void lcd_data( uint8_t data )
{
     27e:	1f 93       	push	r17
     280:	18 2f       	mov	r17, r24
    LCD_PORT |= (1<<LCD_RS);    // RS auf 1 setzen
     282:	da 9a       	sbi	0x1b, 2	; 27
 
    lcd_out( data );            // zuerst die oberen, 
     284:	0e 94 35 01 	call	0x26a	; 0x26a <lcd_out>
    lcd_out( data<<4 );         // dann die unteren 4 Bit senden
     288:	81 2f       	mov	r24, r17
     28a:	82 95       	swap	r24
     28c:	80 7f       	andi	r24, 0xF0	; 240
     28e:	0e 94 35 01 	call	0x26a	; 0x26a <lcd_out>
     292:	8a e7       	ldi	r24, 0x7A	; 122
     294:	8a 95       	dec	r24
     296:	f1 f7       	brne	.-4      	; 0x294 <lcd_data+0x16>
     298:	00 c0       	rjmp	.+0      	; 0x29a <lcd_data+0x1c>
 
    _delay_us( LCD_WRITEDATA_US );
}
     29a:	1f 91       	pop	r17
     29c:	08 95       	ret

0000029e <lcd_command>:
 
////////////////////////////////////////////////////////////////////////////////
// Sendet einen Befehl an das LCD
void lcd_command( uint8_t data )
{
     29e:	1f 93       	push	r17
     2a0:	18 2f       	mov	r17, r24
    LCD_PORT &= ~(1<<LCD_RS);    // RS auf 0 setzen
     2a2:	da 98       	cbi	0x1b, 2	; 27
 
    lcd_out( data );             // zuerst die oberen, 
     2a4:	0e 94 35 01 	call	0x26a	; 0x26a <lcd_out>
    lcd_out( data<<4 );           // dann die unteren 4 Bit senden
     2a8:	81 2f       	mov	r24, r17
     2aa:	82 95       	swap	r24
     2ac:	80 7f       	andi	r24, 0xF0	; 240
     2ae:	0e 94 35 01 	call	0x26a	; 0x26a <lcd_out>
     2b2:	80 e7       	ldi	r24, 0x70	; 112
     2b4:	8a 95       	dec	r24
     2b6:	f1 f7       	brne	.-4      	; 0x2b4 <lcd_command+0x16>
 
    _delay_us( LCD_COMMAND_US );
}
     2b8:	1f 91       	pop	r17
     2ba:	08 95       	ret

000002bc <lcd_clear>:
 
////////////////////////////////////////////////////////////////////////////////
// Sendet den Befehl zur Löschung des Displays
void lcd_clear( void )
{
    lcd_command( LCD_CLEAR_DISPLAY );
     2bc:	81 e0       	ldi	r24, 0x01	; 1
     2be:	0e 94 4f 01 	call	0x29e	; 0x29e <lcd_command>
	#else
		//round up by default
		__ticks_dc = (uint32_t)(ceil(fabs(__tmp)));
	#endif

	__builtin_avr_delay_cycles(__ticks_dc);
     2c2:	8f e9       	ldi	r24, 0x9F	; 159
     2c4:	9f e0       	ldi	r25, 0x0F	; 15
     2c6:	01 97       	sbiw	r24, 0x01	; 1
     2c8:	f1 f7       	brne	.-4      	; 0x2c6 <lcd_clear+0xa>
     2ca:	00 c0       	rjmp	.+0      	; 0x2cc <lcd_clear+0x10>
     2cc:	00 00       	nop
    _delay_ms( LCD_CLEAR_DISPLAY_MS );
}
     2ce:	08 95       	ret

000002d0 <lcd_init>:
{
    // verwendete Pins auf Ausgang schalten
    uint8_t pins = (0x0F << LCD_DB) |           // 4 Datenleitungen
                   (1<<LCD_RS) |                // R/S Leitung
                   (1<<LCD_EN);                 // Enable Leitung
    LCD_DDR |= pins;
     2d0:	8a b3       	in	r24, 0x1a	; 26
     2d2:	8c 6f       	ori	r24, 0xFC	; 252
     2d4:	8a bb       	out	0x1a, r24	; 26
 
    // initial alle Ausgänge auf Null
    LCD_PORT &= ~pins;
     2d6:	8b b3       	in	r24, 0x1b	; 27
     2d8:	83 70       	andi	r24, 0x03	; 3
     2da:	8b bb       	out	0x1b, r24	; 27
     2dc:	8f e2       	ldi	r24, 0x2F	; 47
     2de:	95 e7       	ldi	r25, 0x75	; 117
     2e0:	01 97       	sbiw	r24, 0x01	; 1
     2e2:	f1 f7       	brne	.-4      	; 0x2e0 <lcd_init+0x10>
     2e4:	00 c0       	rjmp	.+0      	; 0x2e6 <lcd_init+0x16>
     2e6:	00 00       	nop
 
    // warten auf die Bereitschaft des LCD
    _delay_ms( LCD_BOOTUP_MS );
    
    // Soft-Reset muss 3mal hintereinander gesendet werden zur Initialisierung
    lcd_out( LCD_SOFT_RESET );
     2e8:	80 e3       	ldi	r24, 0x30	; 48
     2ea:	0e 94 35 01 	call	0x26a	; 0x26a <lcd_out>
     2ee:	8f e0       	ldi	r24, 0x0F	; 15
     2f0:	97 e2       	ldi	r25, 0x27	; 39
     2f2:	01 97       	sbiw	r24, 0x01	; 1
     2f4:	f1 f7       	brne	.-4      	; 0x2f2 <lcd_init+0x22>
     2f6:	00 c0       	rjmp	.+0      	; 0x2f8 <lcd_init+0x28>
     2f8:	00 00       	nop
    _delay_ms( LCD_SOFT_RESET_MS1 );
 
    lcd_enable();
     2fa:	0e 94 2e 01 	call	0x25c	; 0x25c <lcd_enable>
     2fe:	8f ec       	ldi	r24, 0xCF	; 207
     300:	97 e0       	ldi	r25, 0x07	; 7
     302:	01 97       	sbiw	r24, 0x01	; 1
     304:	f1 f7       	brne	.-4      	; 0x302 <lcd_init+0x32>
     306:	00 c0       	rjmp	.+0      	; 0x308 <lcd_init+0x38>
     308:	00 00       	nop
    _delay_ms( LCD_SOFT_RESET_MS2 );
 
    lcd_enable();
     30a:	0e 94 2e 01 	call	0x25c	; 0x25c <lcd_enable>
     30e:	8f ec       	ldi	r24, 0xCF	; 207
     310:	97 e0       	ldi	r25, 0x07	; 7
     312:	01 97       	sbiw	r24, 0x01	; 1
     314:	f1 f7       	brne	.-4      	; 0x312 <lcd_init+0x42>
     316:	00 c0       	rjmp	.+0      	; 0x318 <lcd_init+0x48>
     318:	00 00       	nop
    _delay_ms( LCD_SOFT_RESET_MS3 );
 
    // 4-bit Modus aktivieren 
    lcd_out( LCD_SET_FUNCTION |
     31a:	80 e2       	ldi	r24, 0x20	; 32
     31c:	0e 94 35 01 	call	0x26a	; 0x26a <lcd_out>
     320:	8f e0       	ldi	r24, 0x0F	; 15
     322:	97 e2       	ldi	r25, 0x27	; 39
     324:	01 97       	sbiw	r24, 0x01	; 1
     326:	f1 f7       	brne	.-4      	; 0x324 <lcd_init+0x54>
     328:	00 c0       	rjmp	.+0      	; 0x32a <lcd_init+0x5a>
     32a:	00 00       	nop
             LCD_FUNCTION_4BIT );
    _delay_ms( LCD_SET_4BITMODE_MS );
 
    // 4-bit Modus / 2 Zeilen / 5x7
    lcd_command( LCD_SET_FUNCTION |
     32c:	88 e2       	ldi	r24, 0x28	; 40
     32e:	0e 94 4f 01 	call	0x29e	; 0x29e <lcd_command>
                 LCD_FUNCTION_4BIT |
                 LCD_FUNCTION_2LINE |
                 LCD_FUNCTION_5X7 );
 
    // Display ein / Cursor aus / Blinken aus
    lcd_command( LCD_SET_DISPLAY |
     332:	8c e0       	ldi	r24, 0x0C	; 12
     334:	0e 94 4f 01 	call	0x29e	; 0x29e <lcd_command>
                 LCD_DISPLAY_ON |
                 LCD_CURSOR_OFF |
                 LCD_BLINKING_OFF); 
 
    // Cursor inkrement / kein Scrollen
    lcd_command( LCD_SET_ENTRY |
     338:	86 e0       	ldi	r24, 0x06	; 6
     33a:	0e 94 4f 01 	call	0x29e	; 0x29e <lcd_command>
                 LCD_ENTRY_INCREASE |
                 LCD_ENTRY_NOSHIFT );
 
    lcd_clear();
     33e:	0e 94 5e 01 	call	0x2bc	; 0x2bc <lcd_clear>
}
     342:	08 95       	ret

00000344 <lcd_home>:
 
////////////////////////////////////////////////////////////////////////////////
// Sendet den Befehl: Cursor Home
void lcd_home( void )
{
    lcd_command( LCD_CURSOR_HOME );
     344:	82 e0       	ldi	r24, 0x02	; 2
     346:	0e 94 4f 01 	call	0x29e	; 0x29e <lcd_command>
     34a:	8f e9       	ldi	r24, 0x9F	; 159
     34c:	9f e0       	ldi	r25, 0x0F	; 15
     34e:	01 97       	sbiw	r24, 0x01	; 1
     350:	f1 f7       	brne	.-4      	; 0x34e <lcd_home+0xa>
     352:	00 c0       	rjmp	.+0      	; 0x354 <lcd_home+0x10>
     354:	00 00       	nop
    _delay_ms( LCD_CURSOR_HOME_MS );
}
     356:	08 95       	ret

00000358 <lcd_setcursor>:
 
void lcd_setcursor( uint8_t x, uint8_t y )
{
    uint8_t data;
 
    switch (y)
     358:	62 30       	cpi	r22, 0x02	; 2
     35a:	61 f0       	breq	.+24     	; 0x374 <lcd_setcursor+0x1c>
     35c:	63 30       	cpi	r22, 0x03	; 3
     35e:	18 f4       	brcc	.+6      	; 0x366 <lcd_setcursor+0xe>
     360:	61 30       	cpi	r22, 0x01	; 1
     362:	79 f4       	brne	.+30     	; 0x382 <lcd_setcursor+0x2a>
     364:	05 c0       	rjmp	.+10     	; 0x370 <lcd_setcursor+0x18>
     366:	63 30       	cpi	r22, 0x03	; 3
     368:	39 f0       	breq	.+14     	; 0x378 <lcd_setcursor+0x20>
     36a:	64 30       	cpi	r22, 0x04	; 4
     36c:	51 f4       	brne	.+20     	; 0x382 <lcd_setcursor+0x2a>
     36e:	06 c0       	rjmp	.+12     	; 0x37c <lcd_setcursor+0x24>
    {
        case 1:    // 1. Zeile
            data = LCD_SET_DDADR + LCD_DDADR_LINE1 + x;
     370:	80 58       	subi	r24, 0x80	; 128
            break;
     372:	05 c0       	rjmp	.+10     	; 0x37e <lcd_setcursor+0x26>
 
        case 2:    // 2. Zeile
            data = LCD_SET_DDADR + LCD_DDADR_LINE2 + x;
     374:	80 54       	subi	r24, 0x40	; 64
            break;
     376:	03 c0       	rjmp	.+6      	; 0x37e <lcd_setcursor+0x26>
 
        case 3:    // 3. Zeile
            data = LCD_SET_DDADR + LCD_DDADR_LINE3 + x;
     378:	80 57       	subi	r24, 0x70	; 112
            break;
     37a:	01 c0       	rjmp	.+2      	; 0x37e <lcd_setcursor+0x26>
 
        case 4:    // 4. Zeile
            data = LCD_SET_DDADR + LCD_DDADR_LINE4 + x;
     37c:	80 53       	subi	r24, 0x30	; 48
 
        default:
            return;                                   // für den Fall einer falschen Zeile
    }
 
    lcd_command( data );
     37e:	0e 94 4f 01 	call	0x29e	; 0x29e <lcd_command>
     382:	08 95       	ret

00000384 <lcd_string>:
 
////////////////////////////////////////////////////////////////////////////////
// Schreibt einen String auf das LCD
 
void lcd_string( const char *data )
{
     384:	cf 93       	push	r28
     386:	df 93       	push	r29
     388:	ec 01       	movw	r28, r24
    while( *data != '\0' )
     38a:	88 81       	ld	r24, Y
     38c:	88 23       	and	r24, r24
     38e:	31 f0       	breq	.+12     	; 0x39c <lcd_string+0x18>
}
 
////////////////////////////////////////////////////////////////////////////////
// Schreibt einen String auf das LCD
 
void lcd_string( const char *data )
     390:	21 96       	adiw	r28, 0x01	; 1
{
    while( *data != '\0' )
        lcd_data( *data++ );
     392:	0e 94 3f 01 	call	0x27e	; 0x27e <lcd_data>
////////////////////////////////////////////////////////////////////////////////
// Schreibt einen String auf das LCD
 
void lcd_string( const char *data )
{
    while( *data != '\0' )
     396:	89 91       	ld	r24, Y+
     398:	88 23       	and	r24, r24
     39a:	d9 f7       	brne	.-10     	; 0x392 <lcd_string+0xe>
        lcd_data( *data++ );
}
     39c:	df 91       	pop	r29
     39e:	cf 91       	pop	r28
     3a0:	08 95       	ret

000003a2 <lcd_generatechar>:
 
////////////////////////////////////////////////////////////////////////////////
// Schreibt ein Zeichen in den Character Generator RAM
 
void lcd_generatechar( uint8_t code, const uint8_t *data )
{
     3a2:	ef 92       	push	r14
     3a4:	ff 92       	push	r15
     3a6:	0f 93       	push	r16
     3a8:	1f 93       	push	r17
     3aa:	cf 93       	push	r28
     3ac:	df 93       	push	r29
     3ae:	06 2f       	mov	r16, r22
     3b0:	17 2f       	mov	r17, r23
    // Startposition des Zeichens einstellen
    lcd_command( LCD_SET_CGADR | (code<<3) );
     3b2:	88 0f       	add	r24, r24
     3b4:	88 0f       	add	r24, r24
     3b6:	88 0f       	add	r24, r24
     3b8:	80 64       	ori	r24, 0x40	; 64
     3ba:	0e 94 4f 01 	call	0x29e	; 0x29e <lcd_command>
     3be:	e0 2e       	mov	r14, r16
     3c0:	e7 01       	movw	r28, r14
     3c2:	7e 01       	movw	r14, r28
     3c4:	f1 2e       	mov	r15, r17
     3c6:	e7 01       	movw	r28, r14
     3c8:	18 e0       	ldi	r17, 0x08	; 8
 
    // Bitmuster übertragen
    for ( uint8_t i=0; i<8; i++ )
    {
        lcd_data( data[i] );
     3ca:	89 91       	ld	r24, Y+
     3cc:	0e 94 3f 01 	call	0x27e	; 0x27e <lcd_data>
     3d0:	11 50       	subi	r17, 0x01	; 1
{
    // Startposition des Zeichens einstellen
    lcd_command( LCD_SET_CGADR | (code<<3) );
 
    // Bitmuster übertragen
    for ( uint8_t i=0; i<8; i++ )
     3d2:	d9 f7       	brne	.-10     	; 0x3ca <lcd_generatechar+0x28>
    {
        lcd_data( data[i] );
    }
     3d4:	df 91       	pop	r29
     3d6:	cf 91       	pop	r28
     3d8:	1f 91       	pop	r17
     3da:	0f 91       	pop	r16
     3dc:	ff 90       	pop	r15
     3de:	ef 90       	pop	r14
     3e0:	08 95       	ret

000003e2 <main>:
#define FIRMWARE_VERSION "0.1"
//-----------------------------------------------
//code
//-----------------------------------------------
int main(void) 
{
     3e2:	2f 92       	push	r2
     3e4:	3f 92       	push	r3
     3e6:	4f 92       	push	r4
     3e8:	5f 92       	push	r5
     3ea:	6f 92       	push	r6
     3ec:	7f 92       	push	r7
     3ee:	8f 92       	push	r8
     3f0:	9f 92       	push	r9
     3f2:	af 92       	push	r10
     3f4:	bf 92       	push	r11
     3f6:	cf 92       	push	r12
     3f8:	df 92       	push	r13
     3fa:	ef 92       	push	r14
     3fc:	ff 92       	push	r15
     3fe:	0f 93       	push	r16
     400:	1f 93       	push	r17
     402:	df 93       	push	r29
     404:	cf 93       	push	r28
     406:	cd b7       	in	r28, 0x3d	; 61
     408:	de b7       	in	r29, 0x3e	; 62
     40a:	60 97       	sbiw	r28, 0x10	; 16
     40c:	0f b6       	in	r0, 0x3f	; 63
     40e:	f8 94       	cli
     410:	de bf       	out	0x3e, r29	; 62
     412:	0f be       	out	0x3f, r0	; 63
     414:	cd bf       	out	0x3d, r28	; 61

	//init the lcd display
	lcd_init();
     416:	0e 94 68 01 	call	0x2d0	; 0x2d0 <lcd_init>

	//print boot up message
	lcd_string("DrumSynth V");
     41a:	81 e6       	ldi	r24, 0x61	; 97
     41c:	90 e0       	ldi	r25, 0x00	; 0
     41e:	0e 94 c2 01 	call	0x384	; 0x384 <lcd_string>
	lcd_string(FIRMWARE_VERSION);
     422:	8d e6       	ldi	r24, 0x6D	; 109
     424:	90 e0       	ldi	r25, 0x00	; 0
     426:	0e 94 c2 01 	call	0x384	; 0x384 <lcd_string>
	//goto 2nd line
	lcd_setcursor(0,2);
     42a:	80 e0       	ldi	r24, 0x00	; 0
     42c:	62 e0       	ldi	r22, 0x02	; 2
     42e:	0e 94 ac 01 	call	0x358	; 0x358 <lcd_setcursor>
	lcd_string("J. Schmidt 2012");
     432:	81 e7       	ldi	r24, 0x71	; 113
     434:	90 e0       	ldi	r25, 0x00	; 0
     436:	0e 94 c2 01 	call	0x384	; 0x384 <lcd_string>
     43a:	8f ef       	ldi	r24, 0xFF	; 255
     43c:	93 ed       	ldi	r25, 0xD3	; 211
     43e:	a0 e3       	ldi	r26, 0x30	; 48
     440:	81 50       	subi	r24, 0x01	; 1
     442:	90 40       	sbci	r25, 0x00	; 0
     444:	a0 40       	sbci	r26, 0x00	; 0
     446:	e1 f7       	brne	.-8      	; 0x440 <main+0x5e>
     448:	00 c0       	rjmp	.+0      	; 0x44a <main+0x68>
     44a:	00 00       	nop
	
	//show message for 1 sec
	_delay_ms(2000);
	lcd_clear();
     44c:	0e 94 5e 01 	call	0x2bc	; 0x2bc <lcd_clear>

	//init encoder
	encode_init();
     450:	0e 94 ae 00 	call	0x15c	; 0x15c <encode_init>
	
	//init menu
	menu_init();
     454:	0e 94 5e 06 	call	0xcbc	; 0xcbc <menu_init>

	//enable interrupts
	sei();
     458:	78 94       	sei


lcd_clear();
     45a:	0e 94 5e 01 	call	0x2bc	; 0x2bc <lcd_clear>
		*/
		char text[16];
		uint8_t val;
		
		din_load();
		lcd_string("1");
     45e:	0f 2e       	mov	r0, r31
     460:	f1 e8       	ldi	r31, 0x81	; 129
     462:	cf 2e       	mov	r12, r31
     464:	f0 e0       	ldi	r31, 0x00	; 0
     466:	df 2e       	mov	r13, r31
     468:	f0 2d       	mov	r31, r0
		val = (PINC & (1<<PC7));
		sprintf(text," = %3d",val);
     46a:	8e 01       	movw	r16, r28
     46c:	0f 5f       	subi	r16, 0xFF	; 255
     46e:	1f 4f       	sbci	r17, 0xFF	; 255
     470:	0f 2e       	mov	r0, r31
     472:	f3 e8       	ldi	r31, 0x83	; 131
     474:	ef 2e       	mov	r14, r31
     476:	f0 e0       	ldi	r31, 0x00	; 0
     478:	ff 2e       	mov	r15, r31
     47a:	f0 2d       	mov	r31, r0
		lcd_string(text);
		lcd_home();
		_delay_ms(1000);
		
		din_shift();
		lcd_string("2");
     47c:	0f 2e       	mov	r0, r31
     47e:	fa e8       	ldi	r31, 0x8A	; 138
     480:	af 2e       	mov	r10, r31
     482:	f0 e0       	ldi	r31, 0x00	; 0
     484:	bf 2e       	mov	r11, r31
     486:	f0 2d       	mov	r31, r0
		lcd_string(text);
		lcd_home();
		_delay_ms(1000);
		
		din_shift();
		lcd_string("3");
     488:	0f 2e       	mov	r0, r31
     48a:	fc e8       	ldi	r31, 0x8C	; 140
     48c:	8f 2e       	mov	r8, r31
     48e:	f0 e0       	ldi	r31, 0x00	; 0
     490:	9f 2e       	mov	r9, r31
     492:	f0 2d       	mov	r31, r0
		lcd_string(text);
		lcd_home();
		_delay_ms(1000);
		
		din_shift();
		lcd_string("4");
     494:	0f 2e       	mov	r0, r31
     496:	fe e8       	ldi	r31, 0x8E	; 142
     498:	6f 2e       	mov	r6, r31
     49a:	f0 e0       	ldi	r31, 0x00	; 0
     49c:	7f 2e       	mov	r7, r31
     49e:	f0 2d       	mov	r31, r0
		lcd_string(text);
		lcd_home();
		_delay_ms(1000);
		
		din_shift();
		lcd_string("5");
     4a0:	0f 2e       	mov	r0, r31
     4a2:	f0 e9       	ldi	r31, 0x90	; 144
     4a4:	4f 2e       	mov	r4, r31
     4a6:	f0 e0       	ldi	r31, 0x00	; 0
     4a8:	5f 2e       	mov	r5, r31
     4aa:	f0 2d       	mov	r31, r0
		lcd_string(text);
		lcd_home();
		_delay_ms(1000);
		
		din_shift();
		lcd_string("6");
     4ac:	0f 2e       	mov	r0, r31
     4ae:	f2 e9       	ldi	r31, 0x92	; 146
     4b0:	2f 2e       	mov	r2, r31
     4b2:	f0 e0       	ldi	r31, 0x00	; 0
     4b4:	3f 2e       	mov	r3, r31
     4b6:	f0 2d       	mov	r31, r0
		menu_parseEncoder(encoderValue,button);
		*/
		char text[16];
		uint8_t val;
		
		din_load();
     4b8:	0e 94 57 00 	call	0xae	; 0xae <din_load>
		lcd_string("1");
     4bc:	c6 01       	movw	r24, r12
     4be:	0e 94 c2 01 	call	0x384	; 0x384 <lcd_string>
		val = (PINC & (1<<PC7));
     4c2:	83 b3       	in	r24, 0x13	; 19
		sprintf(text," = %3d",val);
     4c4:	00 d0       	rcall	.+0      	; 0x4c6 <main+0xe4>
     4c6:	00 d0       	rcall	.+0      	; 0x4c8 <main+0xe6>
     4c8:	00 d0       	rcall	.+0      	; 0x4ca <main+0xe8>
     4ca:	ed b7       	in	r30, 0x3d	; 61
     4cc:	fe b7       	in	r31, 0x3e	; 62
     4ce:	31 96       	adiw	r30, 0x01	; 1
     4d0:	ad b7       	in	r26, 0x3d	; 61
     4d2:	be b7       	in	r27, 0x3e	; 62
     4d4:	12 96       	adiw	r26, 0x02	; 2
     4d6:	1c 93       	st	X, r17
     4d8:	0e 93       	st	-X, r16
     4da:	11 97       	sbiw	r26, 0x01	; 1
     4dc:	f3 82       	std	Z+3, r15	; 0x03
     4de:	e2 82       	std	Z+2, r14	; 0x02
		char text[16];
		uint8_t val;
		
		din_load();
		lcd_string("1");
		val = (PINC & (1<<PC7));
     4e0:	80 78       	andi	r24, 0x80	; 128
		sprintf(text," = %3d",val);
     4e2:	84 83       	std	Z+4, r24	; 0x04
     4e4:	15 82       	std	Z+5, r1	; 0x05
     4e6:	0e 94 e8 06 	call	0xdd0	; 0xdd0 <sprintf>
		lcd_string(text);
     4ea:	8d b7       	in	r24, 0x3d	; 61
     4ec:	9e b7       	in	r25, 0x3e	; 62
     4ee:	06 96       	adiw	r24, 0x06	; 6
     4f0:	0f b6       	in	r0, 0x3f	; 63
     4f2:	f8 94       	cli
     4f4:	9e bf       	out	0x3e, r25	; 62
     4f6:	0f be       	out	0x3f, r0	; 63
     4f8:	8d bf       	out	0x3d, r24	; 61
     4fa:	c8 01       	movw	r24, r16
     4fc:	0e 94 c2 01 	call	0x384	; 0x384 <lcd_string>
		lcd_home();
     500:	0e 94 a2 01 	call	0x344	; 0x344 <lcd_home>
     504:	8f ef       	ldi	r24, 0xFF	; 255
     506:	99 e6       	ldi	r25, 0x69	; 105
     508:	a8 e1       	ldi	r26, 0x18	; 24
     50a:	81 50       	subi	r24, 0x01	; 1
     50c:	90 40       	sbci	r25, 0x00	; 0
     50e:	a0 40       	sbci	r26, 0x00	; 0
     510:	e1 f7       	brne	.-8      	; 0x50a <main+0x128>
     512:	00 c0       	rjmp	.+0      	; 0x514 <main+0x132>
     514:	00 00       	nop
		_delay_ms(1000);
		
		din_shift();
     516:	0e 94 54 00 	call	0xa8	; 0xa8 <din_shift>
		lcd_string("2");
     51a:	c5 01       	movw	r24, r10
     51c:	0e 94 c2 01 	call	0x384	; 0x384 <lcd_string>
		val = (PINC & (1<<PC7));
     520:	83 b3       	in	r24, 0x13	; 19
		sprintf(text," = %3d",val);
     522:	00 d0       	rcall	.+0      	; 0x524 <main+0x142>
     524:	00 d0       	rcall	.+0      	; 0x526 <main+0x144>
     526:	00 d0       	rcall	.+0      	; 0x528 <main+0x146>
     528:	ed b7       	in	r30, 0x3d	; 61
     52a:	fe b7       	in	r31, 0x3e	; 62
     52c:	31 96       	adiw	r30, 0x01	; 1
     52e:	ad b7       	in	r26, 0x3d	; 61
     530:	be b7       	in	r27, 0x3e	; 62
     532:	12 96       	adiw	r26, 0x02	; 2
     534:	1c 93       	st	X, r17
     536:	0e 93       	st	-X, r16
     538:	11 97       	sbiw	r26, 0x01	; 1
     53a:	f3 82       	std	Z+3, r15	; 0x03
     53c:	e2 82       	std	Z+2, r14	; 0x02
		lcd_home();
		_delay_ms(1000);
		
		din_shift();
		lcd_string("2");
		val = (PINC & (1<<PC7));
     53e:	80 78       	andi	r24, 0x80	; 128
		sprintf(text," = %3d",val);
     540:	84 83       	std	Z+4, r24	; 0x04
     542:	15 82       	std	Z+5, r1	; 0x05
     544:	0e 94 e8 06 	call	0xdd0	; 0xdd0 <sprintf>
		lcd_string(text);
     548:	8d b7       	in	r24, 0x3d	; 61
     54a:	9e b7       	in	r25, 0x3e	; 62
     54c:	06 96       	adiw	r24, 0x06	; 6
     54e:	0f b6       	in	r0, 0x3f	; 63
     550:	f8 94       	cli
     552:	9e bf       	out	0x3e, r25	; 62
     554:	0f be       	out	0x3f, r0	; 63
     556:	8d bf       	out	0x3d, r24	; 61
     558:	c8 01       	movw	r24, r16
     55a:	0e 94 c2 01 	call	0x384	; 0x384 <lcd_string>
		lcd_home();
     55e:	0e 94 a2 01 	call	0x344	; 0x344 <lcd_home>
     562:	8f ef       	ldi	r24, 0xFF	; 255
     564:	99 e6       	ldi	r25, 0x69	; 105
     566:	a8 e1       	ldi	r26, 0x18	; 24
     568:	81 50       	subi	r24, 0x01	; 1
     56a:	90 40       	sbci	r25, 0x00	; 0
     56c:	a0 40       	sbci	r26, 0x00	; 0
     56e:	e1 f7       	brne	.-8      	; 0x568 <main+0x186>
     570:	00 c0       	rjmp	.+0      	; 0x572 <main+0x190>
     572:	00 00       	nop
		_delay_ms(1000);
		
		din_shift();
     574:	0e 94 54 00 	call	0xa8	; 0xa8 <din_shift>
		lcd_string("3");
     578:	c4 01       	movw	r24, r8
     57a:	0e 94 c2 01 	call	0x384	; 0x384 <lcd_string>
		val = (PINC & (1<<PC7));
     57e:	83 b3       	in	r24, 0x13	; 19
		sprintf(text," = %3d",val);
     580:	00 d0       	rcall	.+0      	; 0x582 <main+0x1a0>
     582:	00 d0       	rcall	.+0      	; 0x584 <main+0x1a2>
     584:	00 d0       	rcall	.+0      	; 0x586 <main+0x1a4>
     586:	ed b7       	in	r30, 0x3d	; 61
     588:	fe b7       	in	r31, 0x3e	; 62
     58a:	31 96       	adiw	r30, 0x01	; 1
     58c:	ad b7       	in	r26, 0x3d	; 61
     58e:	be b7       	in	r27, 0x3e	; 62
     590:	12 96       	adiw	r26, 0x02	; 2
     592:	1c 93       	st	X, r17
     594:	0e 93       	st	-X, r16
     596:	11 97       	sbiw	r26, 0x01	; 1
     598:	f3 82       	std	Z+3, r15	; 0x03
     59a:	e2 82       	std	Z+2, r14	; 0x02
		lcd_home();
		_delay_ms(1000);
		
		din_shift();
		lcd_string("3");
		val = (PINC & (1<<PC7));
     59c:	80 78       	andi	r24, 0x80	; 128
		sprintf(text," = %3d",val);
     59e:	84 83       	std	Z+4, r24	; 0x04
     5a0:	15 82       	std	Z+5, r1	; 0x05
     5a2:	0e 94 e8 06 	call	0xdd0	; 0xdd0 <sprintf>
		lcd_string(text);
     5a6:	8d b7       	in	r24, 0x3d	; 61
     5a8:	9e b7       	in	r25, 0x3e	; 62
     5aa:	06 96       	adiw	r24, 0x06	; 6
     5ac:	0f b6       	in	r0, 0x3f	; 63
     5ae:	f8 94       	cli
     5b0:	9e bf       	out	0x3e, r25	; 62
     5b2:	0f be       	out	0x3f, r0	; 63
     5b4:	8d bf       	out	0x3d, r24	; 61
     5b6:	c8 01       	movw	r24, r16
     5b8:	0e 94 c2 01 	call	0x384	; 0x384 <lcd_string>
		lcd_home();
     5bc:	0e 94 a2 01 	call	0x344	; 0x344 <lcd_home>
     5c0:	8f ef       	ldi	r24, 0xFF	; 255
     5c2:	99 e6       	ldi	r25, 0x69	; 105
     5c4:	a8 e1       	ldi	r26, 0x18	; 24
     5c6:	81 50       	subi	r24, 0x01	; 1
     5c8:	90 40       	sbci	r25, 0x00	; 0
     5ca:	a0 40       	sbci	r26, 0x00	; 0
     5cc:	e1 f7       	brne	.-8      	; 0x5c6 <main+0x1e4>
     5ce:	00 c0       	rjmp	.+0      	; 0x5d0 <main+0x1ee>
     5d0:	00 00       	nop
		_delay_ms(1000);
		
		din_shift();
     5d2:	0e 94 54 00 	call	0xa8	; 0xa8 <din_shift>
		lcd_string("4");
     5d6:	c3 01       	movw	r24, r6
     5d8:	0e 94 c2 01 	call	0x384	; 0x384 <lcd_string>
		val = (PINC & (1<<PC7));
     5dc:	83 b3       	in	r24, 0x13	; 19
		sprintf(text," = %3d",val);
     5de:	00 d0       	rcall	.+0      	; 0x5e0 <main+0x1fe>
     5e0:	00 d0       	rcall	.+0      	; 0x5e2 <main+0x200>
     5e2:	00 d0       	rcall	.+0      	; 0x5e4 <main+0x202>
     5e4:	ed b7       	in	r30, 0x3d	; 61
     5e6:	fe b7       	in	r31, 0x3e	; 62
     5e8:	31 96       	adiw	r30, 0x01	; 1
     5ea:	ad b7       	in	r26, 0x3d	; 61
     5ec:	be b7       	in	r27, 0x3e	; 62
     5ee:	12 96       	adiw	r26, 0x02	; 2
     5f0:	1c 93       	st	X, r17
     5f2:	0e 93       	st	-X, r16
     5f4:	11 97       	sbiw	r26, 0x01	; 1
     5f6:	f3 82       	std	Z+3, r15	; 0x03
     5f8:	e2 82       	std	Z+2, r14	; 0x02
		lcd_home();
		_delay_ms(1000);
		
		din_shift();
		lcd_string("4");
		val = (PINC & (1<<PC7));
     5fa:	80 78       	andi	r24, 0x80	; 128
		sprintf(text," = %3d",val);
     5fc:	84 83       	std	Z+4, r24	; 0x04
     5fe:	15 82       	std	Z+5, r1	; 0x05
     600:	0e 94 e8 06 	call	0xdd0	; 0xdd0 <sprintf>
		lcd_string(text);
     604:	8d b7       	in	r24, 0x3d	; 61
     606:	9e b7       	in	r25, 0x3e	; 62
     608:	06 96       	adiw	r24, 0x06	; 6
     60a:	0f b6       	in	r0, 0x3f	; 63
     60c:	f8 94       	cli
     60e:	9e bf       	out	0x3e, r25	; 62
     610:	0f be       	out	0x3f, r0	; 63
     612:	8d bf       	out	0x3d, r24	; 61
     614:	c8 01       	movw	r24, r16
     616:	0e 94 c2 01 	call	0x384	; 0x384 <lcd_string>
		lcd_home();
     61a:	0e 94 a2 01 	call	0x344	; 0x344 <lcd_home>
     61e:	8f ef       	ldi	r24, 0xFF	; 255
     620:	99 e6       	ldi	r25, 0x69	; 105
     622:	a8 e1       	ldi	r26, 0x18	; 24
     624:	81 50       	subi	r24, 0x01	; 1
     626:	90 40       	sbci	r25, 0x00	; 0
     628:	a0 40       	sbci	r26, 0x00	; 0
     62a:	e1 f7       	brne	.-8      	; 0x624 <main+0x242>
     62c:	00 c0       	rjmp	.+0      	; 0x62e <main+0x24c>
     62e:	00 00       	nop
		_delay_ms(1000);
		
		din_shift();
     630:	0e 94 54 00 	call	0xa8	; 0xa8 <din_shift>
		lcd_string("5");
     634:	c2 01       	movw	r24, r4
     636:	0e 94 c2 01 	call	0x384	; 0x384 <lcd_string>
		val = (PINC & (1<<PC7));
     63a:	83 b3       	in	r24, 0x13	; 19
		sprintf(text," = %3d",val);
     63c:	00 d0       	rcall	.+0      	; 0x63e <main+0x25c>
     63e:	00 d0       	rcall	.+0      	; 0x640 <main+0x25e>
     640:	00 d0       	rcall	.+0      	; 0x642 <main+0x260>
     642:	ed b7       	in	r30, 0x3d	; 61
     644:	fe b7       	in	r31, 0x3e	; 62
     646:	31 96       	adiw	r30, 0x01	; 1
     648:	ad b7       	in	r26, 0x3d	; 61
     64a:	be b7       	in	r27, 0x3e	; 62
     64c:	12 96       	adiw	r26, 0x02	; 2
     64e:	1c 93       	st	X, r17
     650:	0e 93       	st	-X, r16
     652:	11 97       	sbiw	r26, 0x01	; 1
     654:	f3 82       	std	Z+3, r15	; 0x03
     656:	e2 82       	std	Z+2, r14	; 0x02
		lcd_home();
		_delay_ms(1000);
		
		din_shift();
		lcd_string("5");
		val = (PINC & (1<<PC7));
     658:	80 78       	andi	r24, 0x80	; 128
		sprintf(text," = %3d",val);
     65a:	84 83       	std	Z+4, r24	; 0x04
     65c:	15 82       	std	Z+5, r1	; 0x05
     65e:	0e 94 e8 06 	call	0xdd0	; 0xdd0 <sprintf>
		lcd_string(text);
     662:	8d b7       	in	r24, 0x3d	; 61
     664:	9e b7       	in	r25, 0x3e	; 62
     666:	06 96       	adiw	r24, 0x06	; 6
     668:	0f b6       	in	r0, 0x3f	; 63
     66a:	f8 94       	cli
     66c:	9e bf       	out	0x3e, r25	; 62
     66e:	0f be       	out	0x3f, r0	; 63
     670:	8d bf       	out	0x3d, r24	; 61
     672:	c8 01       	movw	r24, r16
     674:	0e 94 c2 01 	call	0x384	; 0x384 <lcd_string>
		lcd_home();
     678:	0e 94 a2 01 	call	0x344	; 0x344 <lcd_home>
     67c:	8f ef       	ldi	r24, 0xFF	; 255
     67e:	99 e6       	ldi	r25, 0x69	; 105
     680:	a8 e1       	ldi	r26, 0x18	; 24
     682:	81 50       	subi	r24, 0x01	; 1
     684:	90 40       	sbci	r25, 0x00	; 0
     686:	a0 40       	sbci	r26, 0x00	; 0
     688:	e1 f7       	brne	.-8      	; 0x682 <main+0x2a0>
     68a:	00 c0       	rjmp	.+0      	; 0x68c <main+0x2aa>
     68c:	00 00       	nop
		_delay_ms(1000);
		
		din_shift();
     68e:	0e 94 54 00 	call	0xa8	; 0xa8 <din_shift>
		lcd_string("6");
     692:	c1 01       	movw	r24, r2
     694:	0e 94 c2 01 	call	0x384	; 0x384 <lcd_string>
		val = (PINC & (1<<PC7));
     698:	83 b3       	in	r24, 0x13	; 19
		sprintf(text," = %3d",val);
     69a:	00 d0       	rcall	.+0      	; 0x69c <main+0x2ba>
     69c:	00 d0       	rcall	.+0      	; 0x69e <main+0x2bc>
     69e:	00 d0       	rcall	.+0      	; 0x6a0 <main+0x2be>
     6a0:	ed b7       	in	r30, 0x3d	; 61
     6a2:	fe b7       	in	r31, 0x3e	; 62
     6a4:	31 96       	adiw	r30, 0x01	; 1
     6a6:	ad b7       	in	r26, 0x3d	; 61
     6a8:	be b7       	in	r27, 0x3e	; 62
     6aa:	12 96       	adiw	r26, 0x02	; 2
     6ac:	1c 93       	st	X, r17
     6ae:	0e 93       	st	-X, r16
     6b0:	11 97       	sbiw	r26, 0x01	; 1
     6b2:	f3 82       	std	Z+3, r15	; 0x03
     6b4:	e2 82       	std	Z+2, r14	; 0x02
		lcd_home();
		_delay_ms(1000);
		
		din_shift();
		lcd_string("6");
		val = (PINC & (1<<PC7));
     6b6:	80 78       	andi	r24, 0x80	; 128
		sprintf(text," = %3d",val);
     6b8:	84 83       	std	Z+4, r24	; 0x04
     6ba:	15 82       	std	Z+5, r1	; 0x05
     6bc:	0e 94 e8 06 	call	0xdd0	; 0xdd0 <sprintf>
		lcd_string(text);
     6c0:	8d b7       	in	r24, 0x3d	; 61
     6c2:	9e b7       	in	r25, 0x3e	; 62
     6c4:	06 96       	adiw	r24, 0x06	; 6
     6c6:	0f b6       	in	r0, 0x3f	; 63
     6c8:	f8 94       	cli
     6ca:	9e bf       	out	0x3e, r25	; 62
     6cc:	0f be       	out	0x3f, r0	; 63
     6ce:	8d bf       	out	0x3d, r24	; 61
     6d0:	c8 01       	movw	r24, r16
     6d2:	0e 94 c2 01 	call	0x384	; 0x384 <lcd_string>
		lcd_home();
     6d6:	0e 94 a2 01 	call	0x344	; 0x344 <lcd_home>
     6da:	8f ef       	ldi	r24, 0xFF	; 255
     6dc:	99 e6       	ldi	r25, 0x69	; 105
     6de:	a8 e1       	ldi	r26, 0x18	; 24
     6e0:	81 50       	subi	r24, 0x01	; 1
     6e2:	90 40       	sbci	r25, 0x00	; 0
     6e4:	a0 40       	sbci	r26, 0x00	; 0
     6e6:	e1 f7       	brne	.-8      	; 0x6e0 <main+0x2fe>
     6e8:	00 c0       	rjmp	.+0      	; 0x6ea <main+0x308>
     6ea:	00 00       	nop
		_delay_ms(1000);
		
		din_shift();
     6ec:	0e 94 54 00 	call	0xa8	; 0xa8 <din_shift>
		lcd_string("7");
     6f0:	84 e9       	ldi	r24, 0x94	; 148
     6f2:	90 e0       	ldi	r25, 0x00	; 0
     6f4:	0e 94 c2 01 	call	0x384	; 0x384 <lcd_string>
		val = (PINC & (1<<PC7));
     6f8:	83 b3       	in	r24, 0x13	; 19
		sprintf(text," = %3d",val);
     6fa:	00 d0       	rcall	.+0      	; 0x6fc <main+0x31a>
     6fc:	00 d0       	rcall	.+0      	; 0x6fe <main+0x31c>
     6fe:	00 d0       	rcall	.+0      	; 0x700 <main+0x31e>
     700:	ed b7       	in	r30, 0x3d	; 61
     702:	fe b7       	in	r31, 0x3e	; 62
     704:	31 96       	adiw	r30, 0x01	; 1
     706:	ad b7       	in	r26, 0x3d	; 61
     708:	be b7       	in	r27, 0x3e	; 62
     70a:	12 96       	adiw	r26, 0x02	; 2
     70c:	1c 93       	st	X, r17
     70e:	0e 93       	st	-X, r16
     710:	11 97       	sbiw	r26, 0x01	; 1
     712:	f3 82       	std	Z+3, r15	; 0x03
     714:	e2 82       	std	Z+2, r14	; 0x02
		lcd_home();
		_delay_ms(1000);
		
		din_shift();
		lcd_string("7");
		val = (PINC & (1<<PC7));
     716:	80 78       	andi	r24, 0x80	; 128
		sprintf(text," = %3d",val);
     718:	84 83       	std	Z+4, r24	; 0x04
     71a:	15 82       	std	Z+5, r1	; 0x05
     71c:	0e 94 e8 06 	call	0xdd0	; 0xdd0 <sprintf>
		lcd_string(text);
     720:	8d b7       	in	r24, 0x3d	; 61
     722:	9e b7       	in	r25, 0x3e	; 62
     724:	06 96       	adiw	r24, 0x06	; 6
     726:	0f b6       	in	r0, 0x3f	; 63
     728:	f8 94       	cli
     72a:	9e bf       	out	0x3e, r25	; 62
     72c:	0f be       	out	0x3f, r0	; 63
     72e:	8d bf       	out	0x3d, r24	; 61
     730:	c8 01       	movw	r24, r16
     732:	0e 94 c2 01 	call	0x384	; 0x384 <lcd_string>
		lcd_home();
     736:	0e 94 a2 01 	call	0x344	; 0x344 <lcd_home>
     73a:	8f ef       	ldi	r24, 0xFF	; 255
     73c:	99 e6       	ldi	r25, 0x69	; 105
     73e:	a8 e1       	ldi	r26, 0x18	; 24
     740:	81 50       	subi	r24, 0x01	; 1
     742:	90 40       	sbci	r25, 0x00	; 0
     744:	a0 40       	sbci	r26, 0x00	; 0
     746:	e1 f7       	brne	.-8      	; 0x740 <main+0x35e>
     748:	00 c0       	rjmp	.+0      	; 0x74a <main+0x368>
     74a:	00 00       	nop
		_delay_ms(1000);
																			
		din_shift();
     74c:	0e 94 54 00 	call	0xa8	; 0xa8 <din_shift>
		lcd_string("8");
     750:	86 e9       	ldi	r24, 0x96	; 150
     752:	90 e0       	ldi	r25, 0x00	; 0
     754:	0e 94 c2 01 	call	0x384	; 0x384 <lcd_string>
		val = (PINC & (1<<PC7));
     758:	83 b3       	in	r24, 0x13	; 19
		sprintf(text," = %3d",val);
     75a:	00 d0       	rcall	.+0      	; 0x75c <main+0x37a>
     75c:	00 d0       	rcall	.+0      	; 0x75e <main+0x37c>
     75e:	00 d0       	rcall	.+0      	; 0x760 <main+0x37e>
     760:	ed b7       	in	r30, 0x3d	; 61
     762:	fe b7       	in	r31, 0x3e	; 62
     764:	31 96       	adiw	r30, 0x01	; 1
     766:	ad b7       	in	r26, 0x3d	; 61
     768:	be b7       	in	r27, 0x3e	; 62
     76a:	12 96       	adiw	r26, 0x02	; 2
     76c:	1c 93       	st	X, r17
     76e:	0e 93       	st	-X, r16
     770:	11 97       	sbiw	r26, 0x01	; 1
     772:	f3 82       	std	Z+3, r15	; 0x03
     774:	e2 82       	std	Z+2, r14	; 0x02
		lcd_home();
		_delay_ms(1000);
																			
		din_shift();
		lcd_string("8");
		val = (PINC & (1<<PC7));
     776:	80 78       	andi	r24, 0x80	; 128
		sprintf(text," = %3d",val);
     778:	84 83       	std	Z+4, r24	; 0x04
     77a:	15 82       	std	Z+5, r1	; 0x05
     77c:	0e 94 e8 06 	call	0xdd0	; 0xdd0 <sprintf>
		lcd_string(text);
     780:	8d b7       	in	r24, 0x3d	; 61
     782:	9e b7       	in	r25, 0x3e	; 62
     784:	06 96       	adiw	r24, 0x06	; 6
     786:	0f b6       	in	r0, 0x3f	; 63
     788:	f8 94       	cli
     78a:	9e bf       	out	0x3e, r25	; 62
     78c:	0f be       	out	0x3f, r0	; 63
     78e:	8d bf       	out	0x3d, r24	; 61
     790:	c8 01       	movw	r24, r16
     792:	0e 94 c2 01 	call	0x384	; 0x384 <lcd_string>
		lcd_home();
     796:	0e 94 a2 01 	call	0x344	; 0x344 <lcd_home>
     79a:	8f ef       	ldi	r24, 0xFF	; 255
     79c:	99 e6       	ldi	r25, 0x69	; 105
     79e:	a8 e1       	ldi	r26, 0x18	; 24
     7a0:	81 50       	subi	r24, 0x01	; 1
     7a2:	90 40       	sbci	r25, 0x00	; 0
     7a4:	a0 40       	sbci	r26, 0x00	; 0
     7a6:	e1 f7       	brne	.-8      	; 0x7a0 <main+0x3be>
     7a8:	00 c0       	rjmp	.+0      	; 0x7aa <main+0x3c8>
     7aa:	00 00       	nop
     7ac:	85 ce       	rjmp	.-758    	; 0x4b8 <main+0xd6>

000007ae <sendDisplayBuffer>:
	
}
//-----------------------------------------------------------------
/** compare the currentDisplayBuffer with the editDisplayBuffer and send all differences to the display*/
void sendDisplayBuffer()
{
     7ae:	4f 92       	push	r4
     7b0:	5f 92       	push	r5
     7b2:	6f 92       	push	r6
     7b4:	7f 92       	push	r7
     7b6:	8f 92       	push	r8
     7b8:	9f 92       	push	r9
     7ba:	af 92       	push	r10
     7bc:	bf 92       	push	r11
     7be:	cf 92       	push	r12
     7c0:	df 92       	push	r13
     7c2:	ef 92       	push	r14
     7c4:	ff 92       	push	r15
     7c6:	0f 93       	push	r16
     7c8:	1f 93       	push	r17
     7ca:	cf 93       	push	r28
     7cc:	df 93       	push	r29
	for(int i=0;i<2;i++)
     7ce:	66 24       	eor	r6, r6
     7d0:	77 24       	eor	r7, r7
	menu_repaint();
	
}
//-----------------------------------------------------------------
/** compare the currentDisplayBuffer with the editDisplayBuffer and send all differences to the display*/
void sendDisplayBuffer()
     7d2:	44 24       	eor	r4, r4
     7d4:	55 24       	eor	r5, r5
				
				//we have to omit the zero termination sign
				if(editDisplayBuffer[i][j] == 0)
				{
					//make a clear space out of zero termination
					editDisplayBuffer[i][j] = ' ';
     7d6:	88 24       	eor	r8, r8
     7d8:	68 94       	set
     7da:	85 f8       	bld	r8, 5
     7dc:	27 c0       	rjmp	.+78     	; 0x82c <sendDisplayBuffer+0x7e>
	menu_repaint();
	
}
//-----------------------------------------------------------------
/** compare the currentDisplayBuffer with the editDisplayBuffer and send all differences to the display*/
void sendDisplayBuffer()
     7de:	5e 01       	movw	r10, r28
     7e0:	68 01       	movw	r12, r16
{
	for(int i=0;i<2;i++)
	{
		for(int j=0;j<16;j++)
		{
			if(currentDisplayBuffer[i][j] != editDisplayBuffer[i][j])
     7e2:	f8 01       	movw	r30, r16
     7e4:	80 81       	ld	r24, Z
     7e6:	98 81       	ld	r25, Y
     7e8:	98 17       	cp	r25, r24
     7ea:	79 f0       	breq	.+30     	; 0x80a <sendDisplayBuffer+0x5c>
			{
				//something has changed
				
				//we have to omit the zero termination sign
				if(editDisplayBuffer[i][j] == 0)
     7ec:	88 23       	and	r24, r24
     7ee:	09 f4       	brne	.+2      	; 0x7f2 <sendDisplayBuffer+0x44>
				{
					//make a clear space out of zero termination
					editDisplayBuffer[i][j] = ' ';
     7f0:	80 82       	st	Z, r8
				}
				
				//set cursor to current position
				lcd_setcursor(j,i+1);
     7f2:	8e 2d       	mov	r24, r14
     7f4:	69 2d       	mov	r22, r9
     7f6:	0e 94 ac 01 	call	0x358	; 0x358 <lcd_setcursor>
				//send the new character
				lcd_data(editDisplayBuffer[i][j]);
     7fa:	f6 01       	movw	r30, r12
     7fc:	80 81       	ld	r24, Z
     7fe:	0e 94 3f 01 	call	0x27e	; 0x27e <lcd_data>
				//update currentDisplayBuffer
				currentDisplayBuffer[i][j] = editDisplayBuffer[i][j];
     802:	f6 01       	movw	r30, r12
     804:	80 81       	ld	r24, Z
     806:	f5 01       	movw	r30, r10
     808:	80 83       	st	Z, r24
/** compare the currentDisplayBuffer with the editDisplayBuffer and send all differences to the display*/
void sendDisplayBuffer()
{
	for(int i=0;i<2;i++)
	{
		for(int j=0;j<16;j++)
     80a:	08 94       	sec
     80c:	e1 1c       	adc	r14, r1
     80e:	f1 1c       	adc	r15, r1
     810:	21 96       	adiw	r28, 0x01	; 1
     812:	0f 5f       	subi	r16, 0xFF	; 255
     814:	1f 4f       	sbci	r17, 0xFF	; 255
     816:	f0 e1       	ldi	r31, 0x10	; 16
     818:	ef 16       	cp	r14, r31
     81a:	f1 04       	cpc	r15, r1
     81c:	01 f7       	brne	.-64     	; 0x7de <sendDisplayBuffer+0x30>
}
//-----------------------------------------------------------------
/** compare the currentDisplayBuffer with the editDisplayBuffer and send all differences to the display*/
void sendDisplayBuffer()
{
	for(int i=0;i<2;i++)
     81e:	08 94       	sec
     820:	61 1c       	adc	r6, r1
     822:	71 1c       	adc	r7, r1
     824:	82 e0       	ldi	r24, 0x02	; 2
     826:	68 16       	cp	r6, r24
     828:	71 04       	cpc	r7, r1
     82a:	91 f0       	breq	.+36     	; 0x850 <sendDisplayBuffer+0xa2>
	menu_repaint();
	
}
//-----------------------------------------------------------------
/** compare the currentDisplayBuffer with the editDisplayBuffer and send all differences to the display*/
void sendDisplayBuffer()
     82c:	83 01       	movw	r16, r6
     82e:	02 95       	swap	r16
     830:	12 95       	swap	r17
     832:	10 7f       	andi	r17, 0xF0	; 240
     834:	10 27       	eor	r17, r16
     836:	00 7f       	andi	r16, 0xF0	; 240
     838:	10 27       	eor	r17, r16
     83a:	e8 01       	movw	r28, r16
     83c:	c7 53       	subi	r28, 0x37	; 55
     83e:	dd 4f       	sbci	r29, 0xFD	; 253
     840:	06 0d       	add	r16, r6
     842:	17 1d       	adc	r17, r7
     844:	0a 55       	subi	r16, 0x5A	; 90
     846:	1d 4f       	sbci	r17, 0xFD	; 253
     848:	72 01       	movw	r14, r4
					//make a clear space out of zero termination
					editDisplayBuffer[i][j] = ' ';
				}
				
				//set cursor to current position
				lcd_setcursor(j,i+1);
     84a:	96 2c       	mov	r9, r6
     84c:	93 94       	inc	r9
     84e:	c7 cf       	rjmp	.-114    	; 0x7de <sendDisplayBuffer+0x30>
			}	
		}
		
	}
	
}
     850:	df 91       	pop	r29
     852:	cf 91       	pop	r28
     854:	1f 91       	pop	r17
     856:	0f 91       	pop	r16
     858:	ff 90       	pop	r15
     85a:	ef 90       	pop	r14
     85c:	df 90       	pop	r13
     85e:	cf 90       	pop	r12
     860:	bf 90       	pop	r11
     862:	af 90       	pop	r10
     864:	9f 90       	pop	r9
     866:	8f 90       	pop	r8
     868:	7f 90       	pop	r7
     86a:	6f 90       	pop	r6
     86c:	5f 90       	pop	r5
     86e:	4f 90       	pop	r4
     870:	08 95       	ret

00000872 <menu_repaint>:
//-----------------------------------------------------------------
void menu_repaint()
{
     872:	af 92       	push	r10
     874:	bf 92       	push	r11
     876:	cf 92       	push	r12
     878:	df 92       	push	r13
     87a:	ef 92       	push	r14
     87c:	ff 92       	push	r15
     87e:	0f 93       	push	r16
     880:	1f 93       	push	r17
     882:	df 93       	push	r29
     884:	cf 93       	push	r28
     886:	00 d0       	rcall	.+0      	; 0x888 <menu_repaint+0x16>
     888:	0f 92       	push	r0
     88a:	cd b7       	in	r28, 0x3d	; 61
     88c:	de b7       	in	r29, 0x3e	; 62
	//first get the active page and parameter from the menuIndex
	const uint8_t activeParameter	= menuIndex&0x3;
     88e:	80 91 c8 02 	lds	r24, 0x02C8
     892:	28 2f       	mov	r18, r24
     894:	23 70       	andi	r18, 0x03	; 3
	const uint8_t activePage		= (menuIndex&0xFC)>>2;
     896:	86 95       	lsr	r24
     898:	86 95       	lsr	r24
	
	if(editModeActive) //show single parameter with full name
     89a:	90 91 a5 02 	lds	r25, 0x02A5
     89e:	99 23       	and	r25, r25
     8a0:	09 f4       	brne	.+2      	; 0x8a4 <menu_repaint+0x32>
     8a2:	61 c0       	rjmp	.+194    	; 0x966 <menu_repaint+0xf4>
	{
		//get address from top1-4 from activeParameter (base adress top1 + offset)
		uint8_t *parName = &menuPages[activeVoice][activePage].top1 + activeParameter;
     8a4:	a8 2e       	mov	r10, r24
     8a6:	bb 24       	eor	r11, r11
     8a8:	c2 2e       	mov	r12, r18
     8aa:	dd 24       	eor	r13, r13
		uint8_t *parVal = &menuPages[activeVoice][activePage].bot1 + activeParameter;
		
		//Top row -> category
		sprintf(&editDisplayBuffer[0][0],"%s",catNames[valueNames[*parName].category]);
     8ac:	06 ea       	ldi	r16, 0xA6	; 166
     8ae:	12 e0       	ldi	r17, 0x02	; 2
	const uint8_t activePage		= (menuIndex&0xFC)>>2;
	
	if(editModeActive) //show single parameter with full name
	{
		//get address from top1-4 from activeParameter (base adress top1 + offset)
		uint8_t *parName = &menuPages[activeVoice][activePage].top1 + activeParameter;
     8b0:	aa 0c       	add	r10, r10
     8b2:	bb 1c       	adc	r11, r11
     8b4:	aa 0c       	add	r10, r10
     8b6:	bb 1c       	adc	r11, r11
     8b8:	aa 0c       	add	r10, r10
     8ba:	bb 1c       	adc	r11, r11
		uint8_t *parVal = &menuPages[activeVoice][activePage].bot1 + activeParameter;
		
		//Top row -> category
		sprintf(&editDisplayBuffer[0][0],"%s",catNames[valueNames[*parName].category]);
     8bc:	f6 01       	movw	r30, r12
     8be:	ea 0d       	add	r30, r10
     8c0:	fb 1d       	adc	r31, r11
     8c2:	ee 51       	subi	r30, 0x1E	; 30
     8c4:	fe 4f       	sbci	r31, 0xFE	; 254
     8c6:	e0 80       	ld	r14, Z
     8c8:	ff 24       	eor	r15, r15
     8ca:	c7 01       	movw	r24, r14
     8cc:	88 0f       	add	r24, r24
     8ce:	99 1f       	adc	r25, r25
     8d0:	e8 0e       	add	r14, r24
     8d2:	f9 1e       	adc	r15, r25
     8d4:	8e eb       	ldi	r24, 0xBE	; 190
     8d6:	91 e0       	ldi	r25, 0x01	; 1
     8d8:	e8 0e       	add	r14, r24
     8da:	f9 1e       	adc	r15, r25
     8dc:	d7 01       	movw	r26, r14
     8de:	11 96       	adiw	r26, 0x01	; 1
     8e0:	6c 91       	ld	r22, X
     8e2:	70 e0       	ldi	r23, 0x00	; 0
     8e4:	62 95       	swap	r22
     8e6:	72 95       	swap	r23
     8e8:	70 7f       	andi	r23, 0xF0	; 240
     8ea:	76 27       	eor	r23, r22
     8ec:	60 7f       	andi	r22, 0xF0	; 240
     8ee:	76 27       	eor	r23, r22
     8f0:	64 53       	subi	r22, 0x34	; 52
     8f2:	7f 4f       	sbci	r23, 0xFF	; 255
     8f4:	c8 01       	movw	r24, r16
     8f6:	0e 94 e1 06 	call	0xdc2	; 0xdc2 <strcpy>
		//Bottom row -> long name
		sprintf(&editDisplayBuffer[1][0],"%s",longNames[valueNames[*parName].longName]);
     8fa:	f7 01       	movw	r30, r14
     8fc:	62 81       	ldd	r22, Z+2	; 0x02
     8fe:	8d e0       	ldi	r24, 0x0D	; 13
     900:	68 9f       	mul	r22, r24
     902:	b0 01       	movw	r22, r0
     904:	11 24       	eor	r1, r1
     906:	64 5c       	subi	r22, 0xC4	; 196
     908:	7e 4f       	sbci	r23, 0xFE	; 254
     90a:	c8 01       	movw	r24, r16
     90c:	41 96       	adiw	r24, 0x11	; 17
     90e:	0e 94 e1 06 	call	0xdc2	; 0xdc2 <strcpy>
		//Bottom row parameter value
		sprintf(&editDisplayBuffer[1][13],"%3d",parameterValues[*parVal]);	
     912:	00 d0       	rcall	.+0      	; 0x914 <menu_repaint+0xa2>
     914:	00 d0       	rcall	.+0      	; 0x916 <menu_repaint+0xa4>
     916:	00 d0       	rcall	.+0      	; 0x918 <menu_repaint+0xa6>
     918:	ed b7       	in	r30, 0x3d	; 61
     91a:	fe b7       	in	r31, 0x3e	; 62
     91c:	31 96       	adiw	r30, 0x01	; 1
     91e:	02 5e       	subi	r16, 0xE2	; 226
     920:	1f 4f       	sbci	r17, 0xFF	; 255
     922:	ad b7       	in	r26, 0x3d	; 61
     924:	be b7       	in	r27, 0x3e	; 62
     926:	12 96       	adiw	r26, 0x02	; 2
     928:	1c 93       	st	X, r17
     92a:	0e 93       	st	-X, r16
     92c:	11 97       	sbiw	r26, 0x01	; 1
     92e:	88 e9       	ldi	r24, 0x98	; 152
     930:	90 e0       	ldi	r25, 0x00	; 0
     932:	93 83       	std	Z+3, r25	; 0x03
     934:	82 83       	std	Z+2, r24	; 0x02
     936:	d6 01       	movw	r26, r12
     938:	aa 0d       	add	r26, r10
     93a:	bb 1d       	adc	r27, r11
     93c:	aa 51       	subi	r26, 0x1A	; 26
     93e:	be 4f       	sbci	r27, 0xFE	; 254
     940:	8c 91       	ld	r24, X
     942:	ac ee       	ldi	r26, 0xEC	; 236
     944:	b2 e0       	ldi	r27, 0x02	; 2
     946:	a8 0f       	add	r26, r24
     948:	b1 1d       	adc	r27, r1
     94a:	8c 91       	ld	r24, X
     94c:	84 83       	std	Z+4, r24	; 0x04
     94e:	15 82       	std	Z+5, r1	; 0x05
     950:	0e 94 e8 06 	call	0xdd0	; 0xdd0 <sprintf>
     954:	ed b7       	in	r30, 0x3d	; 61
     956:	fe b7       	in	r31, 0x3e	; 62
     958:	36 96       	adiw	r30, 0x06	; 6
     95a:	0f b6       	in	r0, 0x3f	; 63
     95c:	f8 94       	cli
     95e:	fe bf       	out	0x3e, r31	; 62
     960:	0f be       	out	0x3f, r0	; 63
     962:	ed bf       	out	0x3d, r30	; 61
     964:	9b c1       	rjmp	.+822    	; 0xc9c <menu_repaint+0x42a>
	else //show whole page
	{
		
		//paint the page
		// top texts
		memcpy(&editDisplayBuffer[0][0],shortNames[valueNames[menuPages[activeVoice][activePage].top1].shortName],3);
     966:	e8 2e       	mov	r14, r24
     968:	ff 24       	eor	r15, r15
     96a:	f7 01       	movw	r30, r14
     96c:	ee 0f       	add	r30, r30
     96e:	ff 1f       	adc	r31, r31
     970:	ee 0f       	add	r30, r30
     972:	ff 1f       	adc	r31, r31
     974:	ee 0f       	add	r30, r30
     976:	ff 1f       	adc	r31, r31
     978:	ee 51       	subi	r30, 0x1E	; 30
     97a:	fe 4f       	sbci	r31, 0xFE	; 254
     97c:	80 81       	ld	r24, Z
     97e:	90 e0       	ldi	r25, 0x00	; 0
     980:	fc 01       	movw	r30, r24
     982:	ee 0f       	add	r30, r30
     984:	ff 1f       	adc	r31, r31
     986:	8e 0f       	add	r24, r30
     988:	9f 1f       	adc	r25, r31
     98a:	fc 01       	movw	r30, r24
     98c:	e2 54       	subi	r30, 0x42	; 66
     98e:	fe 4f       	sbci	r31, 0xFE	; 254
     990:	e0 81       	ld	r30, Z
     992:	f0 e0       	ldi	r31, 0x00	; 0
     994:	ee 0f       	add	r30, r30
     996:	ff 1f       	adc	r31, r31
     998:	ee 0f       	add	r30, r30
     99a:	ff 1f       	adc	r31, r31
     99c:	a6 ea       	ldi	r26, 0xA6	; 166
     99e:	b2 e0       	ldi	r27, 0x02	; 2
     9a0:	e4 56       	subi	r30, 0x64	; 100
     9a2:	ff 4f       	sbci	r31, 0xFF	; 255
     9a4:	83 e0       	ldi	r24, 0x03	; 3
     9a6:	01 90       	ld	r0, Z+
     9a8:	0d 92       	st	X+, r0
     9aa:	81 50       	subi	r24, 0x01	; 1
     9ac:	e1 f7       	brne	.-8      	; 0x9a6 <menu_repaint+0x134>
		memcpy(&editDisplayBuffer[0][4],shortNames[valueNames[menuPages[activeVoice][activePage].top2].shortName],3);
     9ae:	f7 01       	movw	r30, r14
     9b0:	ee 0f       	add	r30, r30
     9b2:	ff 1f       	adc	r31, r31
     9b4:	ee 0f       	add	r30, r30
     9b6:	ff 1f       	adc	r31, r31
     9b8:	ee 0f       	add	r30, r30
     9ba:	ff 1f       	adc	r31, r31
     9bc:	ee 51       	subi	r30, 0x1E	; 30
     9be:	fe 4f       	sbci	r31, 0xFE	; 254
     9c0:	81 81       	ldd	r24, Z+1	; 0x01
     9c2:	90 e0       	ldi	r25, 0x00	; 0
     9c4:	fc 01       	movw	r30, r24
     9c6:	ee 0f       	add	r30, r30
     9c8:	ff 1f       	adc	r31, r31
     9ca:	8e 0f       	add	r24, r30
     9cc:	9f 1f       	adc	r25, r31
     9ce:	fc 01       	movw	r30, r24
     9d0:	e2 54       	subi	r30, 0x42	; 66
     9d2:	fe 4f       	sbci	r31, 0xFE	; 254
     9d4:	e0 81       	ld	r30, Z
     9d6:	f0 e0       	ldi	r31, 0x00	; 0
     9d8:	ee 0f       	add	r30, r30
     9da:	ff 1f       	adc	r31, r31
     9dc:	ee 0f       	add	r30, r30
     9de:	ff 1f       	adc	r31, r31
     9e0:	aa ea       	ldi	r26, 0xAA	; 170
     9e2:	b2 e0       	ldi	r27, 0x02	; 2
     9e4:	e4 56       	subi	r30, 0x64	; 100
     9e6:	ff 4f       	sbci	r31, 0xFF	; 255
     9e8:	83 e0       	ldi	r24, 0x03	; 3
     9ea:	01 90       	ld	r0, Z+
     9ec:	0d 92       	st	X+, r0
     9ee:	81 50       	subi	r24, 0x01	; 1
     9f0:	e1 f7       	brne	.-8      	; 0x9ea <menu_repaint+0x178>
		memcpy(&editDisplayBuffer[0][8],shortNames[valueNames[menuPages[activeVoice][activePage].top3].shortName],3);
     9f2:	f7 01       	movw	r30, r14
     9f4:	ee 0f       	add	r30, r30
     9f6:	ff 1f       	adc	r31, r31
     9f8:	ee 0f       	add	r30, r30
     9fa:	ff 1f       	adc	r31, r31
     9fc:	ee 0f       	add	r30, r30
     9fe:	ff 1f       	adc	r31, r31
     a00:	ee 51       	subi	r30, 0x1E	; 30
     a02:	fe 4f       	sbci	r31, 0xFE	; 254
     a04:	82 81       	ldd	r24, Z+2	; 0x02
     a06:	90 e0       	ldi	r25, 0x00	; 0
     a08:	fc 01       	movw	r30, r24
     a0a:	ee 0f       	add	r30, r30
     a0c:	ff 1f       	adc	r31, r31
     a0e:	8e 0f       	add	r24, r30
     a10:	9f 1f       	adc	r25, r31
     a12:	fc 01       	movw	r30, r24
     a14:	e2 54       	subi	r30, 0x42	; 66
     a16:	fe 4f       	sbci	r31, 0xFE	; 254
     a18:	e0 81       	ld	r30, Z
     a1a:	f0 e0       	ldi	r31, 0x00	; 0
     a1c:	ee 0f       	add	r30, r30
     a1e:	ff 1f       	adc	r31, r31
     a20:	ee 0f       	add	r30, r30
     a22:	ff 1f       	adc	r31, r31
     a24:	ae ea       	ldi	r26, 0xAE	; 174
     a26:	b2 e0       	ldi	r27, 0x02	; 2
     a28:	e4 56       	subi	r30, 0x64	; 100
     a2a:	ff 4f       	sbci	r31, 0xFF	; 255
     a2c:	83 e0       	ldi	r24, 0x03	; 3
     a2e:	01 90       	ld	r0, Z+
     a30:	0d 92       	st	X+, r0
     a32:	81 50       	subi	r24, 0x01	; 1
     a34:	e1 f7       	brne	.-8      	; 0xa2e <menu_repaint+0x1bc>
		memcpy(&editDisplayBuffer[0][12],shortNames[valueNames[menuPages[activeVoice][activePage].top4].shortName],3);
     a36:	f7 01       	movw	r30, r14
     a38:	ee 0f       	add	r30, r30
     a3a:	ff 1f       	adc	r31, r31
     a3c:	ee 0f       	add	r30, r30
     a3e:	ff 1f       	adc	r31, r31
     a40:	ee 0f       	add	r30, r30
     a42:	ff 1f       	adc	r31, r31
     a44:	ee 51       	subi	r30, 0x1E	; 30
     a46:	fe 4f       	sbci	r31, 0xFE	; 254
     a48:	83 81       	ldd	r24, Z+3	; 0x03
     a4a:	90 e0       	ldi	r25, 0x00	; 0
     a4c:	fc 01       	movw	r30, r24
     a4e:	ee 0f       	add	r30, r30
     a50:	ff 1f       	adc	r31, r31
     a52:	8e 0f       	add	r24, r30
     a54:	9f 1f       	adc	r25, r31
     a56:	fc 01       	movw	r30, r24
     a58:	e2 54       	subi	r30, 0x42	; 66
     a5a:	fe 4f       	sbci	r31, 0xFE	; 254
     a5c:	e0 81       	ld	r30, Z
     a5e:	f0 e0       	ldi	r31, 0x00	; 0
     a60:	ee 0f       	add	r30, r30
     a62:	ff 1f       	adc	r31, r31
     a64:	ee 0f       	add	r30, r30
     a66:	ff 1f       	adc	r31, r31
     a68:	a2 eb       	ldi	r26, 0xB2	; 178
     a6a:	b2 e0       	ldi	r27, 0x02	; 2
     a6c:	e4 56       	subi	r30, 0x64	; 100
     a6e:	ff 4f       	sbci	r31, 0xFF	; 255
     a70:	83 e0       	ldi	r24, 0x03	; 3
     a72:	01 90       	ld	r0, Z+
     a74:	0d 92       	st	X+, r0
     a76:	81 50       	subi	r24, 0x01	; 1
     a78:	e1 f7       	brne	.-8      	; 0xa72 <menu_repaint+0x200>
	
		//make first letter of selected parameter capital (sub dec 32 --> see ascii table)

		editDisplayBuffer[0][activeParameter*4] -= 32;
     a7a:	30 e0       	ldi	r19, 0x00	; 0
     a7c:	f9 01       	movw	r30, r18
     a7e:	ee 0f       	add	r30, r30
     a80:	ff 1f       	adc	r31, r31
     a82:	ee 0f       	add	r30, r30
     a84:	ff 1f       	adc	r31, r31
     a86:	ea 55       	subi	r30, 0x5A	; 90
     a88:	fd 4f       	sbci	r31, 0xFD	; 253
     a8a:	80 81       	ld	r24, Z
     a8c:	80 52       	subi	r24, 0x20	; 32
     a8e:	80 83       	st	Z, r24
	
		// some place to store the parameter value as text
		char valueAsText[3]; 
	
		//convert the parameter uint8_t value to a 3 place char
		if(menuPages[activeVoice][activePage].bot1 == PAR_NONE)
     a90:	f7 01       	movw	r30, r14
     a92:	ee 0f       	add	r30, r30
     a94:	ff 1f       	adc	r31, r31
     a96:	ee 0f       	add	r30, r30
     a98:	ff 1f       	adc	r31, r31
     a9a:	ee 0f       	add	r30, r30
     a9c:	ff 1f       	adc	r31, r31
     a9e:	ee 51       	subi	r30, 0x1E	; 30
     aa0:	fe 4f       	sbci	r31, 0xFE	; 254
     aa2:	24 81       	ldd	r18, Z+4	; 0x04
     aa4:	22 23       	and	r18, r18
     aa6:	49 f4       	brne	.+18     	; 0xaba <menu_repaint+0x248>
		{
			sprintf(valueAsText,"   ");
     aa8:	80 e2       	ldi	r24, 0x20	; 32
     aaa:	90 e2       	ldi	r25, 0x20	; 32
     aac:	a0 e2       	ldi	r26, 0x20	; 32
     aae:	b0 e0       	ldi	r27, 0x00	; 0
     ab0:	89 83       	std	Y+1, r24	; 0x01
     ab2:	9a 83       	std	Y+2, r25	; 0x02
     ab4:	ab 83       	std	Y+3, r26	; 0x03
     ab6:	bc 83       	std	Y+4, r27	; 0x04
     ab8:	23 c0       	rjmp	.+70     	; 0xb00 <menu_repaint+0x28e>
		}
		else
		{
			sprintf(valueAsText,"%3d",parameterValues[menuPages[activeVoice][activePage].bot1]);	
     aba:	00 d0       	rcall	.+0      	; 0xabc <menu_repaint+0x24a>
     abc:	00 d0       	rcall	.+0      	; 0xabe <menu_repaint+0x24c>
     abe:	00 d0       	rcall	.+0      	; 0xac0 <menu_repaint+0x24e>
     ac0:	ed b7       	in	r30, 0x3d	; 61
     ac2:	fe b7       	in	r31, 0x3e	; 62
     ac4:	31 96       	adiw	r30, 0x01	; 1
     ac6:	ce 01       	movw	r24, r28
     ac8:	01 96       	adiw	r24, 0x01	; 1
     aca:	ad b7       	in	r26, 0x3d	; 61
     acc:	be b7       	in	r27, 0x3e	; 62
     ace:	12 96       	adiw	r26, 0x02	; 2
     ad0:	9c 93       	st	X, r25
     ad2:	8e 93       	st	-X, r24
     ad4:	11 97       	sbiw	r26, 0x01	; 1
     ad6:	88 e9       	ldi	r24, 0x98	; 152
     ad8:	90 e0       	ldi	r25, 0x00	; 0
     ada:	93 83       	std	Z+3, r25	; 0x03
     adc:	82 83       	std	Z+2, r24	; 0x02
     ade:	ac ee       	ldi	r26, 0xEC	; 236
     ae0:	b2 e0       	ldi	r27, 0x02	; 2
     ae2:	a2 0f       	add	r26, r18
     ae4:	b1 1d       	adc	r27, r1
     ae6:	8c 91       	ld	r24, X
     ae8:	84 83       	std	Z+4, r24	; 0x04
     aea:	15 82       	std	Z+5, r1	; 0x05
     aec:	0e 94 e8 06 	call	0xdd0	; 0xdd0 <sprintf>
     af0:	ed b7       	in	r30, 0x3d	; 61
     af2:	fe b7       	in	r31, 0x3e	; 62
     af4:	36 96       	adiw	r30, 0x06	; 6
     af6:	0f b6       	in	r0, 0x3f	; 63
     af8:	f8 94       	cli
     afa:	fe bf       	out	0x3e, r31	; 62
     afc:	0f be       	out	0x3f, r0	; 63
     afe:	ed bf       	out	0x3d, r30	; 61
		}
		//write the text to the edit buffer
		memcpy(&editDisplayBuffer[1][0],valueAsText,3);
     b00:	06 ea       	ldi	r16, 0xA6	; 166
     b02:	12 e0       	ldi	r17, 0x02	; 2
     b04:	d8 01       	movw	r26, r16
     b06:	51 96       	adiw	r26, 0x11	; 17
     b08:	fe 01       	movw	r30, r28
     b0a:	31 96       	adiw	r30, 0x01	; 1
     b0c:	83 e0       	ldi	r24, 0x03	; 3
     b0e:	01 90       	ld	r0, Z+
     b10:	0d 92       	st	X+, r0
     b12:	81 50       	subi	r24, 0x01	; 1
     b14:	e1 f7       	brne	.-8      	; 0xb0e <menu_repaint+0x29c>
		
		if(menuPages[activeVoice][activePage].bot2 == PAR_NONE)
     b16:	f7 01       	movw	r30, r14
     b18:	ee 0f       	add	r30, r30
     b1a:	ff 1f       	adc	r31, r31
     b1c:	ee 0f       	add	r30, r30
     b1e:	ff 1f       	adc	r31, r31
     b20:	ee 0f       	add	r30, r30
     b22:	ff 1f       	adc	r31, r31
     b24:	ee 51       	subi	r30, 0x1E	; 30
     b26:	fe 4f       	sbci	r31, 0xFE	; 254
     b28:	25 81       	ldd	r18, Z+5	; 0x05
     b2a:	22 23       	and	r18, r18
     b2c:	49 f4       	brne	.+18     	; 0xb40 <menu_repaint+0x2ce>
		{
			sprintf(valueAsText,"   ");
     b2e:	80 e2       	ldi	r24, 0x20	; 32
     b30:	90 e2       	ldi	r25, 0x20	; 32
     b32:	a0 e2       	ldi	r26, 0x20	; 32
     b34:	b0 e0       	ldi	r27, 0x00	; 0
     b36:	89 83       	std	Y+1, r24	; 0x01
     b38:	9a 83       	std	Y+2, r25	; 0x02
     b3a:	ab 83       	std	Y+3, r26	; 0x03
     b3c:	bc 83       	std	Y+4, r27	; 0x04
     b3e:	23 c0       	rjmp	.+70     	; 0xb86 <menu_repaint+0x314>
		}
		else
		{
			sprintf(valueAsText,"%3d",parameterValues[menuPages[activeVoice][activePage].bot2]);
     b40:	00 d0       	rcall	.+0      	; 0xb42 <menu_repaint+0x2d0>
     b42:	00 d0       	rcall	.+0      	; 0xb44 <menu_repaint+0x2d2>
     b44:	00 d0       	rcall	.+0      	; 0xb46 <menu_repaint+0x2d4>
     b46:	ed b7       	in	r30, 0x3d	; 61
     b48:	fe b7       	in	r31, 0x3e	; 62
     b4a:	31 96       	adiw	r30, 0x01	; 1
     b4c:	ce 01       	movw	r24, r28
     b4e:	01 96       	adiw	r24, 0x01	; 1
     b50:	ad b7       	in	r26, 0x3d	; 61
     b52:	be b7       	in	r27, 0x3e	; 62
     b54:	12 96       	adiw	r26, 0x02	; 2
     b56:	9c 93       	st	X, r25
     b58:	8e 93       	st	-X, r24
     b5a:	11 97       	sbiw	r26, 0x01	; 1
     b5c:	88 e9       	ldi	r24, 0x98	; 152
     b5e:	90 e0       	ldi	r25, 0x00	; 0
     b60:	93 83       	std	Z+3, r25	; 0x03
     b62:	82 83       	std	Z+2, r24	; 0x02
     b64:	ac ee       	ldi	r26, 0xEC	; 236
     b66:	b2 e0       	ldi	r27, 0x02	; 2
     b68:	a2 0f       	add	r26, r18
     b6a:	b1 1d       	adc	r27, r1
     b6c:	8c 91       	ld	r24, X
     b6e:	84 83       	std	Z+4, r24	; 0x04
     b70:	15 82       	std	Z+5, r1	; 0x05
     b72:	0e 94 e8 06 	call	0xdd0	; 0xdd0 <sprintf>
     b76:	ed b7       	in	r30, 0x3d	; 61
     b78:	fe b7       	in	r31, 0x3e	; 62
     b7a:	36 96       	adiw	r30, 0x06	; 6
     b7c:	0f b6       	in	r0, 0x3f	; 63
     b7e:	f8 94       	cli
     b80:	fe bf       	out	0x3e, r31	; 62
     b82:	0f be       	out	0x3f, r0	; 63
     b84:	ed bf       	out	0x3d, r30	; 61
		}		
		memcpy(&editDisplayBuffer[1][4],valueAsText,3);
     b86:	d8 01       	movw	r26, r16
     b88:	55 96       	adiw	r26, 0x15	; 21
     b8a:	fe 01       	movw	r30, r28
     b8c:	31 96       	adiw	r30, 0x01	; 1
     b8e:	83 e0       	ldi	r24, 0x03	; 3
     b90:	01 90       	ld	r0, Z+
     b92:	0d 92       	st	X+, r0
     b94:	81 50       	subi	r24, 0x01	; 1
     b96:	e1 f7       	brne	.-8      	; 0xb90 <menu_repaint+0x31e>
		
		if(menuPages[activeVoice][activePage].bot3 == PAR_NONE)
     b98:	f7 01       	movw	r30, r14
     b9a:	ee 0f       	add	r30, r30
     b9c:	ff 1f       	adc	r31, r31
     b9e:	ee 0f       	add	r30, r30
     ba0:	ff 1f       	adc	r31, r31
     ba2:	ee 0f       	add	r30, r30
     ba4:	ff 1f       	adc	r31, r31
     ba6:	ee 51       	subi	r30, 0x1E	; 30
     ba8:	fe 4f       	sbci	r31, 0xFE	; 254
     baa:	26 81       	ldd	r18, Z+6	; 0x06
     bac:	22 23       	and	r18, r18
     bae:	49 f4       	brne	.+18     	; 0xbc2 <menu_repaint+0x350>
		{
			sprintf(valueAsText,"   ");
     bb0:	80 e2       	ldi	r24, 0x20	; 32
     bb2:	90 e2       	ldi	r25, 0x20	; 32
     bb4:	a0 e2       	ldi	r26, 0x20	; 32
     bb6:	b0 e0       	ldi	r27, 0x00	; 0
     bb8:	89 83       	std	Y+1, r24	; 0x01
     bba:	9a 83       	std	Y+2, r25	; 0x02
     bbc:	ab 83       	std	Y+3, r26	; 0x03
     bbe:	bc 83       	std	Y+4, r27	; 0x04
     bc0:	23 c0       	rjmp	.+70     	; 0xc08 <menu_repaint+0x396>
		}
		else
		{
			sprintf(valueAsText,"%3d",parameterValues[menuPages[activeVoice][activePage].bot3]);
     bc2:	00 d0       	rcall	.+0      	; 0xbc4 <menu_repaint+0x352>
     bc4:	00 d0       	rcall	.+0      	; 0xbc6 <menu_repaint+0x354>
     bc6:	00 d0       	rcall	.+0      	; 0xbc8 <menu_repaint+0x356>
     bc8:	ed b7       	in	r30, 0x3d	; 61
     bca:	fe b7       	in	r31, 0x3e	; 62
     bcc:	31 96       	adiw	r30, 0x01	; 1
     bce:	ce 01       	movw	r24, r28
     bd0:	01 96       	adiw	r24, 0x01	; 1
     bd2:	ad b7       	in	r26, 0x3d	; 61
     bd4:	be b7       	in	r27, 0x3e	; 62
     bd6:	12 96       	adiw	r26, 0x02	; 2
     bd8:	9c 93       	st	X, r25
     bda:	8e 93       	st	-X, r24
     bdc:	11 97       	sbiw	r26, 0x01	; 1
     bde:	88 e9       	ldi	r24, 0x98	; 152
     be0:	90 e0       	ldi	r25, 0x00	; 0
     be2:	93 83       	std	Z+3, r25	; 0x03
     be4:	82 83       	std	Z+2, r24	; 0x02
     be6:	ac ee       	ldi	r26, 0xEC	; 236
     be8:	b2 e0       	ldi	r27, 0x02	; 2
     bea:	a2 0f       	add	r26, r18
     bec:	b1 1d       	adc	r27, r1
     bee:	8c 91       	ld	r24, X
     bf0:	84 83       	std	Z+4, r24	; 0x04
     bf2:	15 82       	std	Z+5, r1	; 0x05
     bf4:	0e 94 e8 06 	call	0xdd0	; 0xdd0 <sprintf>
     bf8:	ed b7       	in	r30, 0x3d	; 61
     bfa:	fe b7       	in	r31, 0x3e	; 62
     bfc:	36 96       	adiw	r30, 0x06	; 6
     bfe:	0f b6       	in	r0, 0x3f	; 63
     c00:	f8 94       	cli
     c02:	fe bf       	out	0x3e, r31	; 62
     c04:	0f be       	out	0x3f, r0	; 63
     c06:	ed bf       	out	0x3d, r30	; 61
		}		
		memcpy(&editDisplayBuffer[1][8],valueAsText,3);
     c08:	d8 01       	movw	r26, r16
     c0a:	59 96       	adiw	r26, 0x19	; 25
     c0c:	fe 01       	movw	r30, r28
     c0e:	31 96       	adiw	r30, 0x01	; 1
     c10:	83 e0       	ldi	r24, 0x03	; 3
     c12:	01 90       	ld	r0, Z+
     c14:	0d 92       	st	X+, r0
     c16:	81 50       	subi	r24, 0x01	; 1
     c18:	e1 f7       	brne	.-8      	; 0xc12 <menu_repaint+0x3a0>
		
		if(menuPages[activeVoice][activePage].bot4 == PAR_NONE)
     c1a:	f7 01       	movw	r30, r14
     c1c:	ee 0f       	add	r30, r30
     c1e:	ff 1f       	adc	r31, r31
     c20:	ee 0f       	add	r30, r30
     c22:	ff 1f       	adc	r31, r31
     c24:	ee 0f       	add	r30, r30
     c26:	ff 1f       	adc	r31, r31
     c28:	ee 51       	subi	r30, 0x1E	; 30
     c2a:	fe 4f       	sbci	r31, 0xFE	; 254
     c2c:	27 81       	ldd	r18, Z+7	; 0x07
     c2e:	22 23       	and	r18, r18
     c30:	49 f4       	brne	.+18     	; 0xc44 <menu_repaint+0x3d2>
		{
			sprintf(valueAsText,"   ");
     c32:	80 e2       	ldi	r24, 0x20	; 32
     c34:	90 e2       	ldi	r25, 0x20	; 32
     c36:	a0 e2       	ldi	r26, 0x20	; 32
     c38:	b0 e0       	ldi	r27, 0x00	; 0
     c3a:	89 83       	std	Y+1, r24	; 0x01
     c3c:	9a 83       	std	Y+2, r25	; 0x02
     c3e:	ab 83       	std	Y+3, r26	; 0x03
     c40:	bc 83       	std	Y+4, r27	; 0x04
     c42:	23 c0       	rjmp	.+70     	; 0xc8a <menu_repaint+0x418>
		}
		else
		{
			sprintf(valueAsText,"%3d",parameterValues[menuPages[activeVoice][activePage].bot4]);
     c44:	00 d0       	rcall	.+0      	; 0xc46 <menu_repaint+0x3d4>
     c46:	00 d0       	rcall	.+0      	; 0xc48 <menu_repaint+0x3d6>
     c48:	00 d0       	rcall	.+0      	; 0xc4a <menu_repaint+0x3d8>
     c4a:	ed b7       	in	r30, 0x3d	; 61
     c4c:	fe b7       	in	r31, 0x3e	; 62
     c4e:	31 96       	adiw	r30, 0x01	; 1
     c50:	ce 01       	movw	r24, r28
     c52:	01 96       	adiw	r24, 0x01	; 1
     c54:	ad b7       	in	r26, 0x3d	; 61
     c56:	be b7       	in	r27, 0x3e	; 62
     c58:	12 96       	adiw	r26, 0x02	; 2
     c5a:	9c 93       	st	X, r25
     c5c:	8e 93       	st	-X, r24
     c5e:	11 97       	sbiw	r26, 0x01	; 1
     c60:	88 e9       	ldi	r24, 0x98	; 152
     c62:	90 e0       	ldi	r25, 0x00	; 0
     c64:	93 83       	std	Z+3, r25	; 0x03
     c66:	82 83       	std	Z+2, r24	; 0x02
     c68:	ac ee       	ldi	r26, 0xEC	; 236
     c6a:	b2 e0       	ldi	r27, 0x02	; 2
     c6c:	a2 0f       	add	r26, r18
     c6e:	b1 1d       	adc	r27, r1
     c70:	8c 91       	ld	r24, X
     c72:	84 83       	std	Z+4, r24	; 0x04
     c74:	15 82       	std	Z+5, r1	; 0x05
     c76:	0e 94 e8 06 	call	0xdd0	; 0xdd0 <sprintf>
     c7a:	ed b7       	in	r30, 0x3d	; 61
     c7c:	fe b7       	in	r31, 0x3e	; 62
     c7e:	36 96       	adiw	r30, 0x06	; 6
     c80:	0f b6       	in	r0, 0x3f	; 63
     c82:	f8 94       	cli
     c84:	fe bf       	out	0x3e, r31	; 62
     c86:	0f be       	out	0x3f, r0	; 63
     c88:	ed bf       	out	0x3d, r30	; 61
		}		
		memcpy(&editDisplayBuffer[1][12],valueAsText,3);
     c8a:	d8 01       	movw	r26, r16
     c8c:	5d 96       	adiw	r26, 0x1d	; 29
     c8e:	fe 01       	movw	r30, r28
     c90:	31 96       	adiw	r30, 0x01	; 1
     c92:	83 e0       	ldi	r24, 0x03	; 3
     c94:	01 90       	ld	r0, Z+
     c96:	0d 92       	st	X+, r0
     c98:	81 50       	subi	r24, 0x01	; 1
     c9a:	e1 f7       	brne	.-8      	; 0xc94 <menu_repaint+0x422>
	}		
	

	
	//now send the changes from the edit buffer to the display
	sendDisplayBuffer();
     c9c:	0e 94 d7 03 	call	0x7ae	; 0x7ae <sendDisplayBuffer>
};
     ca0:	0f 90       	pop	r0
     ca2:	0f 90       	pop	r0
     ca4:	0f 90       	pop	r0
     ca6:	cf 91       	pop	r28
     ca8:	df 91       	pop	r29
     caa:	1f 91       	pop	r17
     cac:	0f 91       	pop	r16
     cae:	ff 90       	pop	r15
     cb0:	ef 90       	pop	r14
     cb2:	df 90       	pop	r13
     cb4:	cf 90       	pop	r12
     cb6:	bf 90       	pop	r11
     cb8:	af 90       	pop	r10
     cba:	08 95       	ret

00000cbc <menu_init>:
};
//-----------------------------------------------------------------
void menu_init()
{
	// zero out the menu buffer
	memset(currentDisplayBuffer,' ',2*16);
     cbc:	89 ec       	ldi	r24, 0xC9	; 201
     cbe:	92 e0       	ldi	r25, 0x02	; 2
     cc0:	60 e2       	ldi	r22, 0x20	; 32
     cc2:	70 e0       	ldi	r23, 0x00	; 0
     cc4:	40 e2       	ldi	r20, 0x20	; 32
     cc6:	50 e0       	ldi	r21, 0x00	; 0
     cc8:	0e 94 da 06 	call	0xdb4	; 0xdb4 <memset>
	memset(editDisplayBuffer,' ',2*17);
     ccc:	86 ea       	ldi	r24, 0xA6	; 166
     cce:	92 e0       	ldi	r25, 0x02	; 2
     cd0:	60 e2       	ldi	r22, 0x20	; 32
     cd2:	70 e0       	ldi	r23, 0x00	; 0
     cd4:	42 e2       	ldi	r20, 0x22	; 34
     cd6:	50 e0       	ldi	r21, 0x00	; 0
     cd8:	0e 94 da 06 	call	0xdb4	; 0xdb4 <memset>
	memset(parameterValues,0,NUM_PARAMS);
     cdc:	88 e3       	ldi	r24, 0x38	; 56
     cde:	ec ee       	ldi	r30, 0xEC	; 236
     ce0:	f2 e0       	ldi	r31, 0x02	; 2
     ce2:	df 01       	movw	r26, r30
     ce4:	1d 92       	st	X+, r1
     ce6:	8a 95       	dec	r24
     ce8:	e9 f7       	brne	.-6      	; 0xce4 <menu_init+0x28>
	
	
	//display start menu page
	menu_repaint();
     cea:	0e 94 39 04 	call	0x872	; 0x872 <menu_repaint>
	
}
     cee:	08 95       	ret

00000cf0 <menu_parseEncoder>:
	//now send the changes from the edit buffer to the display
	sendDisplayBuffer();
};
//-----------------------------------------------------------------
void menu_parseEncoder(int8_t inc, uint8_t button)
{
     cf0:	0f 93       	push	r16
     cf2:	1f 93       	push	r17
     cf4:	08 2f       	mov	r16, r24
     cf6:	16 2f       	mov	r17, r22

		
	//handle the button
	if( (button==1) && (button!=lastEncoderButton))
     cf8:	61 30       	cpi	r22, 0x01	; 1
     cfa:	91 f4       	brne	.+36     	; 0xd20 <menu_parseEncoder+0x30>
     cfc:	80 91 a4 02 	lds	r24, 0x02A4
     d00:	81 30       	cpi	r24, 0x01	; 1
     d02:	71 f0       	breq	.+28     	; 0xd20 <menu_parseEncoder+0x30>
	{
		//toggle edit mode
		editModeActive = 1-editModeActive;
     d04:	90 91 a5 02 	lds	r25, 0x02A5
     d08:	81 e0       	ldi	r24, 0x01	; 1
     d0a:	89 1b       	sub	r24, r25
     d0c:	80 93 a5 02 	sts	0x02A5, r24
		//force complete repaint
		memset(editDisplayBuffer,' ',2*17);
     d10:	86 ea       	ldi	r24, 0xA6	; 166
     d12:	92 e0       	ldi	r25, 0x02	; 2
     d14:	60 e2       	ldi	r22, 0x20	; 32
     d16:	70 e0       	ldi	r23, 0x00	; 0
     d18:	42 e2       	ldi	r20, 0x22	; 34
     d1a:	50 e0       	ldi	r21, 0x00	; 0
     d1c:	0e 94 da 06 	call	0xdb4	; 0xdb4 <memset>
		
	}
	
	if(editModeActive)
     d20:	80 91 a5 02 	lds	r24, 0x02A5
     d24:	88 23       	and	r24, r24
     d26:	d9 f0       	breq	.+54     	; 0xd5e <menu_parseEncoder+0x6e>
	{
		//we are in edit mode
		//encoder controls parameter value
		
		//get the active page and parameter from the menuIndex
		const uint8_t activeParameter	= menuIndex&0x3;
     d28:	80 91 c8 02 	lds	r24, 0x02C8
		const uint8_t activePage		= (menuIndex&0xFC)>>2;
     d2c:	e8 2f       	mov	r30, r24
     d2e:	e6 95       	lsr	r30
     d30:	e6 95       	lsr	r30
		
		//get address from top1-4 from activeParameter (base adress top1 + offset)
		uint8_t *paramNr = &menuPages[activeVoice][activePage].bot1 + activeParameter;
     d32:	f0 e0       	ldi	r31, 0x00	; 0
     d34:	ee 0f       	add	r30, r30
     d36:	ff 1f       	adc	r31, r31
     d38:	ee 0f       	add	r30, r30
     d3a:	ff 1f       	adc	r31, r31
     d3c:	ee 0f       	add	r30, r30
     d3e:	ff 1f       	adc	r31, r31
     d40:	34 96       	adiw	r30, 0x04	; 4
	{
		//we are in edit mode
		//encoder controls parameter value
		
		//get the active page and parameter from the menuIndex
		const uint8_t activeParameter	= menuIndex&0x3;
     d42:	83 70       	andi	r24, 0x03	; 3
		const uint8_t activePage		= (menuIndex&0xFC)>>2;
		
		//get address from top1-4 from activeParameter (base adress top1 + offset)
		uint8_t *paramNr = &menuPages[activeVoice][activePage].bot1 + activeParameter;
		
		uint8_t *paramValue = &parameterValues[*paramNr];
     d44:	e8 0f       	add	r30, r24
     d46:	f1 1d       	adc	r31, r1
     d48:	ee 51       	subi	r30, 0x1E	; 30
     d4a:	fe 4f       	sbci	r31, 0xFE	; 254
     d4c:	80 81       	ld	r24, Z

		//increase parameter value
		*paramValue += inc;
     d4e:	ec ee       	ldi	r30, 0xEC	; 236
     d50:	f2 e0       	ldi	r31, 0x02	; 2
     d52:	e8 0f       	add	r30, r24
     d54:	f1 1d       	adc	r31, r1
     d56:	80 81       	ld	r24, Z
     d58:	08 0f       	add	r16, r24
     d5a:	00 83       	st	Z, r16
     d5c:	24 c0       	rjmp	.+72     	; 0xda6 <menu_parseEncoder+0xb6>
		//we are not in edit mode
		//encoder selects active parameter
		
		//check if next parameter is not empty
		//if inc is negative avoid to integer underflow (don't decrement 0)
		const uint8_t activeParameter	= (menuIndex+inc)&0x3;
     d5e:	20 91 c8 02 	lds	r18, 0x02C8
     d62:	30 2f       	mov	r19, r16
     d64:	32 0f       	add	r19, r18
		const uint8_t activePage		= ((menuIndex+inc)&0xFC)>>2;
		uint8_t *param = &menuPages[activeVoice][activePage].top1 + activeParameter;
		
		if(inc>0)
     d66:	10 16       	cp	r1, r16
     d68:	d4 f4       	brge	.+52     	; 0xd9e <menu_parseEncoder+0xae>
		//encoder selects active parameter
		
		//check if next parameter is not empty
		//if inc is negative avoid to integer underflow (don't decrement 0)
		const uint8_t activeParameter	= (menuIndex+inc)&0x3;
		const uint8_t activePage		= ((menuIndex+inc)&0xFC)>>2;
     d6a:	80 2f       	mov	r24, r16
     d6c:	99 27       	eor	r25, r25
     d6e:	87 fd       	sbrc	r24, 7
     d70:	90 95       	com	r25
     d72:	82 0f       	add	r24, r18
     d74:	91 1d       	adc	r25, r1
     d76:	fc 01       	movw	r30, r24
     d78:	ec 7f       	andi	r30, 0xFC	; 252
     d7a:	f0 70       	andi	r31, 0x00	; 0
		uint8_t *param = &menuPages[activeVoice][activePage].top1 + activeParameter;
     d7c:	ee 0f       	add	r30, r30
     d7e:	ff 1f       	adc	r31, r31
		//we are not in edit mode
		//encoder selects active parameter
		
		//check if next parameter is not empty
		//if inc is negative avoid to integer underflow (don't decrement 0)
		const uint8_t activeParameter	= (menuIndex+inc)&0x3;
     d80:	23 2f       	mov	r18, r19
     d82:	23 70       	andi	r18, 0x03	; 3
		const uint8_t activePage		= ((menuIndex+inc)&0xFC)>>2;
		uint8_t *param = &menuPages[activeVoice][activePage].top1 + activeParameter;
		
		if(inc>0)
		{
			if((*param != TEXT_EMPTY) && (menuIndex+inc)!=255)
     d84:	e2 0f       	add	r30, r18
     d86:	f1 1d       	adc	r31, r1
     d88:	ee 51       	subi	r30, 0x1E	; 30
     d8a:	fe 4f       	sbci	r31, 0xFE	; 254
     d8c:	20 81       	ld	r18, Z
     d8e:	22 23       	and	r18, r18
     d90:	51 f0       	breq	.+20     	; 0xda6 <menu_parseEncoder+0xb6>
     d92:	8f 3f       	cpi	r24, 0xFF	; 255
     d94:	91 05       	cpc	r25, r1
     d96:	39 f0       	breq	.+14     	; 0xda6 <menu_parseEncoder+0xb6>
				menuIndex += inc;	
     d98:	30 93 c8 02 	sts	0x02C8, r19
     d9c:	04 c0       	rjmp	.+8      	; 0xda6 <menu_parseEncoder+0xb6>
		}
		else
		{
			if( (menuIndex!=0) )
     d9e:	22 23       	and	r18, r18
     da0:	11 f0       	breq	.+4      	; 0xda6 <menu_parseEncoder+0xb6>
				menuIndex += inc;	
     da2:	30 93 c8 02 	sts	0x02C8, r19
		
		
	}		
		
	//update the button state
	lastEncoderButton = button;
     da6:	10 93 a4 02 	sts	0x02A4, r17
	
	menu_repaint();
     daa:	0e 94 39 04 	call	0x872	; 0x872 <menu_repaint>
	
};
     dae:	1f 91       	pop	r17
     db0:	0f 91       	pop	r16
     db2:	08 95       	ret

00000db4 <memset>:
     db4:	dc 01       	movw	r26, r24
     db6:	01 c0       	rjmp	.+2      	; 0xdba <memset+0x6>
     db8:	6d 93       	st	X+, r22
     dba:	41 50       	subi	r20, 0x01	; 1
     dbc:	50 40       	sbci	r21, 0x00	; 0
     dbe:	e0 f7       	brcc	.-8      	; 0xdb8 <memset+0x4>
     dc0:	08 95       	ret

00000dc2 <strcpy>:
     dc2:	fb 01       	movw	r30, r22
     dc4:	dc 01       	movw	r26, r24
     dc6:	01 90       	ld	r0, Z+
     dc8:	0d 92       	st	X+, r0
     dca:	00 20       	and	r0, r0
     dcc:	e1 f7       	brne	.-8      	; 0xdc6 <strcpy+0x4>
     dce:	08 95       	ret

00000dd0 <sprintf>:
     dd0:	ae e0       	ldi	r26, 0x0E	; 14
     dd2:	b0 e0       	ldi	r27, 0x00	; 0
     dd4:	ee ee       	ldi	r30, 0xEE	; 238
     dd6:	f6 e0       	ldi	r31, 0x06	; 6
     dd8:	0c 94 a0 09 	jmp	0x1340	; 0x1340 <__prologue_saves__+0x1c>
     ddc:	0d 89       	ldd	r16, Y+21	; 0x15
     dde:	1e 89       	ldd	r17, Y+22	; 0x16
     de0:	86 e0       	ldi	r24, 0x06	; 6
     de2:	8c 83       	std	Y+4, r24	; 0x04
     de4:	1a 83       	std	Y+2, r17	; 0x02
     de6:	09 83       	std	Y+1, r16	; 0x01
     de8:	8f ef       	ldi	r24, 0xFF	; 255
     dea:	9f e7       	ldi	r25, 0x7F	; 127
     dec:	9e 83       	std	Y+6, r25	; 0x06
     dee:	8d 83       	std	Y+5, r24	; 0x05
     df0:	9e 01       	movw	r18, r28
     df2:	27 5e       	subi	r18, 0xE7	; 231
     df4:	3f 4f       	sbci	r19, 0xFF	; 255
     df6:	ce 01       	movw	r24, r28
     df8:	01 96       	adiw	r24, 0x01	; 1
     dfa:	6f 89       	ldd	r22, Y+23	; 0x17
     dfc:	78 8d       	ldd	r23, Y+24	; 0x18
     dfe:	a9 01       	movw	r20, r18
     e00:	0e 94 0b 07 	call	0xe16	; 0xe16 <vfprintf>
     e04:	ef 81       	ldd	r30, Y+7	; 0x07
     e06:	f8 85       	ldd	r31, Y+8	; 0x08
     e08:	e0 0f       	add	r30, r16
     e0a:	f1 1f       	adc	r31, r17
     e0c:	10 82       	st	Z, r1
     e0e:	2e 96       	adiw	r28, 0x0e	; 14
     e10:	e4 e0       	ldi	r30, 0x04	; 4
     e12:	0c 94 bc 09 	jmp	0x1378	; 0x1378 <__epilogue_restores__+0x1c>

00000e16 <vfprintf>:
     e16:	ac e0       	ldi	r26, 0x0C	; 12
     e18:	b0 e0       	ldi	r27, 0x00	; 0
     e1a:	e1 e1       	ldi	r30, 0x11	; 17
     e1c:	f7 e0       	ldi	r31, 0x07	; 7
     e1e:	0c 94 92 09 	jmp	0x1324	; 0x1324 <__prologue_saves__>
     e22:	6c 01       	movw	r12, r24
     e24:	1b 01       	movw	r2, r22
     e26:	8a 01       	movw	r16, r20
     e28:	fc 01       	movw	r30, r24
     e2a:	17 82       	std	Z+7, r1	; 0x07
     e2c:	16 82       	std	Z+6, r1	; 0x06
     e2e:	83 81       	ldd	r24, Z+3	; 0x03
     e30:	81 ff       	sbrs	r24, 1
     e32:	d1 c1       	rjmp	.+930    	; 0x11d6 <vfprintf+0x3c0>
     e34:	2e 01       	movw	r4, r28
     e36:	08 94       	sec
     e38:	41 1c       	adc	r4, r1
     e3a:	51 1c       	adc	r5, r1
     e3c:	f6 01       	movw	r30, r12
     e3e:	93 81       	ldd	r25, Z+3	; 0x03
     e40:	f1 01       	movw	r30, r2
     e42:	93 fd       	sbrc	r25, 3
     e44:	85 91       	lpm	r24, Z+
     e46:	93 ff       	sbrs	r25, 3
     e48:	81 91       	ld	r24, Z+
     e4a:	1f 01       	movw	r2, r30
     e4c:	88 23       	and	r24, r24
     e4e:	09 f4       	brne	.+2      	; 0xe52 <vfprintf+0x3c>
     e50:	be c1       	rjmp	.+892    	; 0x11ce <vfprintf+0x3b8>
     e52:	85 32       	cpi	r24, 0x25	; 37
     e54:	39 f4       	brne	.+14     	; 0xe64 <vfprintf+0x4e>
     e56:	93 fd       	sbrc	r25, 3
     e58:	85 91       	lpm	r24, Z+
     e5a:	93 ff       	sbrs	r25, 3
     e5c:	81 91       	ld	r24, Z+
     e5e:	1f 01       	movw	r2, r30
     e60:	85 32       	cpi	r24, 0x25	; 37
     e62:	29 f4       	brne	.+10     	; 0xe6e <vfprintf+0x58>
     e64:	90 e0       	ldi	r25, 0x00	; 0
     e66:	b6 01       	movw	r22, r12
     e68:	0e 94 08 09 	call	0x1210	; 0x1210 <fputc>
     e6c:	e7 cf       	rjmp	.-50     	; 0xe3c <vfprintf+0x26>
     e6e:	ee 24       	eor	r14, r14
     e70:	ff 24       	eor	r15, r15
     e72:	20 e0       	ldi	r18, 0x00	; 0
     e74:	20 32       	cpi	r18, 0x20	; 32
     e76:	b0 f4       	brcc	.+44     	; 0xea4 <vfprintf+0x8e>
     e78:	8b 32       	cpi	r24, 0x2B	; 43
     e7a:	69 f0       	breq	.+26     	; 0xe96 <vfprintf+0x80>
     e7c:	8c 32       	cpi	r24, 0x2C	; 44
     e7e:	28 f4       	brcc	.+10     	; 0xe8a <vfprintf+0x74>
     e80:	80 32       	cpi	r24, 0x20	; 32
     e82:	51 f0       	breq	.+20     	; 0xe98 <vfprintf+0x82>
     e84:	83 32       	cpi	r24, 0x23	; 35
     e86:	71 f4       	brne	.+28     	; 0xea4 <vfprintf+0x8e>
     e88:	0b c0       	rjmp	.+22     	; 0xea0 <vfprintf+0x8a>
     e8a:	8d 32       	cpi	r24, 0x2D	; 45
     e8c:	39 f0       	breq	.+14     	; 0xe9c <vfprintf+0x86>
     e8e:	80 33       	cpi	r24, 0x30	; 48
     e90:	49 f4       	brne	.+18     	; 0xea4 <vfprintf+0x8e>
     e92:	21 60       	ori	r18, 0x01	; 1
     e94:	2c c0       	rjmp	.+88     	; 0xeee <vfprintf+0xd8>
     e96:	22 60       	ori	r18, 0x02	; 2
     e98:	24 60       	ori	r18, 0x04	; 4
     e9a:	29 c0       	rjmp	.+82     	; 0xeee <vfprintf+0xd8>
     e9c:	28 60       	ori	r18, 0x08	; 8
     e9e:	27 c0       	rjmp	.+78     	; 0xeee <vfprintf+0xd8>
     ea0:	20 61       	ori	r18, 0x10	; 16
     ea2:	25 c0       	rjmp	.+74     	; 0xeee <vfprintf+0xd8>
     ea4:	27 fd       	sbrc	r18, 7
     ea6:	2c c0       	rjmp	.+88     	; 0xf00 <vfprintf+0xea>
     ea8:	38 2f       	mov	r19, r24
     eaa:	30 53       	subi	r19, 0x30	; 48
     eac:	3a 30       	cpi	r19, 0x0A	; 10
     eae:	98 f4       	brcc	.+38     	; 0xed6 <vfprintf+0xc0>
     eb0:	26 ff       	sbrs	r18, 6
     eb2:	08 c0       	rjmp	.+16     	; 0xec4 <vfprintf+0xae>
     eb4:	8e 2d       	mov	r24, r14
     eb6:	88 0f       	add	r24, r24
     eb8:	e8 2e       	mov	r14, r24
     eba:	ee 0c       	add	r14, r14
     ebc:	ee 0c       	add	r14, r14
     ebe:	e8 0e       	add	r14, r24
     ec0:	e3 0e       	add	r14, r19
     ec2:	15 c0       	rjmp	.+42     	; 0xeee <vfprintf+0xd8>
     ec4:	8f 2d       	mov	r24, r15
     ec6:	88 0f       	add	r24, r24
     ec8:	f8 2e       	mov	r15, r24
     eca:	ff 0c       	add	r15, r15
     ecc:	ff 0c       	add	r15, r15
     ece:	f8 0e       	add	r15, r24
     ed0:	f3 0e       	add	r15, r19
     ed2:	20 62       	ori	r18, 0x20	; 32
     ed4:	0c c0       	rjmp	.+24     	; 0xeee <vfprintf+0xd8>
     ed6:	8e 32       	cpi	r24, 0x2E	; 46
     ed8:	21 f4       	brne	.+8      	; 0xee2 <vfprintf+0xcc>
     eda:	26 fd       	sbrc	r18, 6
     edc:	78 c1       	rjmp	.+752    	; 0x11ce <vfprintf+0x3b8>
     ede:	20 64       	ori	r18, 0x40	; 64
     ee0:	06 c0       	rjmp	.+12     	; 0xeee <vfprintf+0xd8>
     ee2:	8c 36       	cpi	r24, 0x6C	; 108
     ee4:	11 f4       	brne	.+4      	; 0xeea <vfprintf+0xd4>
     ee6:	20 68       	ori	r18, 0x80	; 128
     ee8:	02 c0       	rjmp	.+4      	; 0xeee <vfprintf+0xd8>
     eea:	88 36       	cpi	r24, 0x68	; 104
     eec:	49 f4       	brne	.+18     	; 0xf00 <vfprintf+0xea>
     eee:	f1 01       	movw	r30, r2
     ef0:	93 fd       	sbrc	r25, 3
     ef2:	85 91       	lpm	r24, Z+
     ef4:	93 ff       	sbrs	r25, 3
     ef6:	81 91       	ld	r24, Z+
     ef8:	1f 01       	movw	r2, r30
     efa:	88 23       	and	r24, r24
     efc:	09 f0       	breq	.+2      	; 0xf00 <vfprintf+0xea>
     efe:	ba cf       	rjmp	.-140    	; 0xe74 <vfprintf+0x5e>
     f00:	98 2f       	mov	r25, r24
     f02:	95 54       	subi	r25, 0x45	; 69
     f04:	93 30       	cpi	r25, 0x03	; 3
     f06:	18 f0       	brcs	.+6      	; 0xf0e <vfprintf+0xf8>
     f08:	90 52       	subi	r25, 0x20	; 32
     f0a:	93 30       	cpi	r25, 0x03	; 3
     f0c:	28 f4       	brcc	.+10     	; 0xf18 <vfprintf+0x102>
     f0e:	0c 5f       	subi	r16, 0xFC	; 252
     f10:	1f 4f       	sbci	r17, 0xFF	; 255
     f12:	ff e3       	ldi	r31, 0x3F	; 63
     f14:	f9 83       	std	Y+1, r31	; 0x01
     f16:	0d c0       	rjmp	.+26     	; 0xf32 <vfprintf+0x11c>
     f18:	83 36       	cpi	r24, 0x63	; 99
     f1a:	31 f0       	breq	.+12     	; 0xf28 <vfprintf+0x112>
     f1c:	83 37       	cpi	r24, 0x73	; 115
     f1e:	71 f0       	breq	.+28     	; 0xf3c <vfprintf+0x126>
     f20:	83 35       	cpi	r24, 0x53	; 83
     f22:	09 f0       	breq	.+2      	; 0xf26 <vfprintf+0x110>
     f24:	60 c0       	rjmp	.+192    	; 0xfe6 <vfprintf+0x1d0>
     f26:	22 c0       	rjmp	.+68     	; 0xf6c <vfprintf+0x156>
     f28:	f8 01       	movw	r30, r16
     f2a:	80 81       	ld	r24, Z
     f2c:	89 83       	std	Y+1, r24	; 0x01
     f2e:	0e 5f       	subi	r16, 0xFE	; 254
     f30:	1f 4f       	sbci	r17, 0xFF	; 255
     f32:	42 01       	movw	r8, r4
     f34:	71 e0       	ldi	r23, 0x01	; 1
     f36:	a7 2e       	mov	r10, r23
     f38:	b1 2c       	mov	r11, r1
     f3a:	16 c0       	rjmp	.+44     	; 0xf68 <vfprintf+0x152>
     f3c:	62 e0       	ldi	r22, 0x02	; 2
     f3e:	66 2e       	mov	r6, r22
     f40:	71 2c       	mov	r7, r1
     f42:	60 0e       	add	r6, r16
     f44:	71 1e       	adc	r7, r17
     f46:	f8 01       	movw	r30, r16
     f48:	80 80       	ld	r8, Z
     f4a:	91 80       	ldd	r9, Z+1	; 0x01
     f4c:	26 ff       	sbrs	r18, 6
     f4e:	03 c0       	rjmp	.+6      	; 0xf56 <vfprintf+0x140>
     f50:	6e 2d       	mov	r22, r14
     f52:	70 e0       	ldi	r23, 0x00	; 0
     f54:	02 c0       	rjmp	.+4      	; 0xf5a <vfprintf+0x144>
     f56:	6f ef       	ldi	r22, 0xFF	; 255
     f58:	7f ef       	ldi	r23, 0xFF	; 255
     f5a:	c4 01       	movw	r24, r8
     f5c:	2c 87       	std	Y+12, r18	; 0x0c
     f5e:	0e 94 fd 08 	call	0x11fa	; 0x11fa <strnlen>
     f62:	5c 01       	movw	r10, r24
     f64:	83 01       	movw	r16, r6
     f66:	2c 85       	ldd	r18, Y+12	; 0x0c
     f68:	2f 77       	andi	r18, 0x7F	; 127
     f6a:	17 c0       	rjmp	.+46     	; 0xf9a <vfprintf+0x184>
     f6c:	52 e0       	ldi	r21, 0x02	; 2
     f6e:	65 2e       	mov	r6, r21
     f70:	71 2c       	mov	r7, r1
     f72:	60 0e       	add	r6, r16
     f74:	71 1e       	adc	r7, r17
     f76:	f8 01       	movw	r30, r16
     f78:	80 80       	ld	r8, Z
     f7a:	91 80       	ldd	r9, Z+1	; 0x01
     f7c:	26 ff       	sbrs	r18, 6
     f7e:	03 c0       	rjmp	.+6      	; 0xf86 <vfprintf+0x170>
     f80:	6e 2d       	mov	r22, r14
     f82:	70 e0       	ldi	r23, 0x00	; 0
     f84:	02 c0       	rjmp	.+4      	; 0xf8a <vfprintf+0x174>
     f86:	6f ef       	ldi	r22, 0xFF	; 255
     f88:	7f ef       	ldi	r23, 0xFF	; 255
     f8a:	c4 01       	movw	r24, r8
     f8c:	2c 87       	std	Y+12, r18	; 0x0c
     f8e:	0e 94 f2 08 	call	0x11e4	; 0x11e4 <strnlen_P>
     f92:	5c 01       	movw	r10, r24
     f94:	2c 85       	ldd	r18, Y+12	; 0x0c
     f96:	20 68       	ori	r18, 0x80	; 128
     f98:	83 01       	movw	r16, r6
     f9a:	23 fd       	sbrc	r18, 3
     f9c:	20 c0       	rjmp	.+64     	; 0xfde <vfprintf+0x1c8>
     f9e:	08 c0       	rjmp	.+16     	; 0xfb0 <vfprintf+0x19a>
     fa0:	80 e2       	ldi	r24, 0x20	; 32
     fa2:	90 e0       	ldi	r25, 0x00	; 0
     fa4:	b6 01       	movw	r22, r12
     fa6:	2c 87       	std	Y+12, r18	; 0x0c
     fa8:	0e 94 08 09 	call	0x1210	; 0x1210 <fputc>
     fac:	fa 94       	dec	r15
     fae:	2c 85       	ldd	r18, Y+12	; 0x0c
     fb0:	8f 2d       	mov	r24, r15
     fb2:	90 e0       	ldi	r25, 0x00	; 0
     fb4:	a8 16       	cp	r10, r24
     fb6:	b9 06       	cpc	r11, r25
     fb8:	98 f3       	brcs	.-26     	; 0xfa0 <vfprintf+0x18a>
     fba:	11 c0       	rjmp	.+34     	; 0xfde <vfprintf+0x1c8>
     fbc:	f4 01       	movw	r30, r8
     fbe:	27 fd       	sbrc	r18, 7
     fc0:	85 91       	lpm	r24, Z+
     fc2:	27 ff       	sbrs	r18, 7
     fc4:	81 91       	ld	r24, Z+
     fc6:	4f 01       	movw	r8, r30
     fc8:	90 e0       	ldi	r25, 0x00	; 0
     fca:	b6 01       	movw	r22, r12
     fcc:	2c 87       	std	Y+12, r18	; 0x0c
     fce:	0e 94 08 09 	call	0x1210	; 0x1210 <fputc>
     fd2:	2c 85       	ldd	r18, Y+12	; 0x0c
     fd4:	f1 10       	cpse	r15, r1
     fd6:	fa 94       	dec	r15
     fd8:	08 94       	sec
     fda:	a1 08       	sbc	r10, r1
     fdc:	b1 08       	sbc	r11, r1
     fde:	a1 14       	cp	r10, r1
     fe0:	b1 04       	cpc	r11, r1
     fe2:	61 f7       	brne	.-40     	; 0xfbc <vfprintf+0x1a6>
     fe4:	f1 c0       	rjmp	.+482    	; 0x11c8 <vfprintf+0x3b2>
     fe6:	84 36       	cpi	r24, 0x64	; 100
     fe8:	11 f0       	breq	.+4      	; 0xfee <vfprintf+0x1d8>
     fea:	89 36       	cpi	r24, 0x69	; 105
     fec:	49 f5       	brne	.+82     	; 0x1040 <vfprintf+0x22a>
     fee:	27 ff       	sbrs	r18, 7
     ff0:	08 c0       	rjmp	.+16     	; 0x1002 <vfprintf+0x1ec>
     ff2:	f8 01       	movw	r30, r16
     ff4:	60 81       	ld	r22, Z
     ff6:	71 81       	ldd	r23, Z+1	; 0x01
     ff8:	82 81       	ldd	r24, Z+2	; 0x02
     ffa:	93 81       	ldd	r25, Z+3	; 0x03
     ffc:	0c 5f       	subi	r16, 0xFC	; 252
     ffe:	1f 4f       	sbci	r17, 0xFF	; 255
    1000:	09 c0       	rjmp	.+18     	; 0x1014 <vfprintf+0x1fe>
    1002:	f8 01       	movw	r30, r16
    1004:	60 81       	ld	r22, Z
    1006:	71 81       	ldd	r23, Z+1	; 0x01
    1008:	88 27       	eor	r24, r24
    100a:	77 fd       	sbrc	r23, 7
    100c:	80 95       	com	r24
    100e:	98 2f       	mov	r25, r24
    1010:	0e 5f       	subi	r16, 0xFE	; 254
    1012:	1f 4f       	sbci	r17, 0xFF	; 255
    1014:	4f e6       	ldi	r20, 0x6F	; 111
    1016:	b4 2e       	mov	r11, r20
    1018:	b2 22       	and	r11, r18
    101a:	97 ff       	sbrs	r25, 7
    101c:	09 c0       	rjmp	.+18     	; 0x1030 <vfprintf+0x21a>
    101e:	90 95       	com	r25
    1020:	80 95       	com	r24
    1022:	70 95       	com	r23
    1024:	61 95       	neg	r22
    1026:	7f 4f       	sbci	r23, 0xFF	; 255
    1028:	8f 4f       	sbci	r24, 0xFF	; 255
    102a:	9f 4f       	sbci	r25, 0xFF	; 255
    102c:	f0 e8       	ldi	r31, 0x80	; 128
    102e:	bf 2a       	or	r11, r31
    1030:	a2 01       	movw	r20, r4
    1032:	2a e0       	ldi	r18, 0x0A	; 10
    1034:	30 e0       	ldi	r19, 0x00	; 0
    1036:	0e 94 34 09 	call	0x1268	; 0x1268 <__ultoa_invert>
    103a:	78 2e       	mov	r7, r24
    103c:	74 18       	sub	r7, r4
    103e:	45 c0       	rjmp	.+138    	; 0x10ca <vfprintf+0x2b4>
    1040:	85 37       	cpi	r24, 0x75	; 117
    1042:	31 f4       	brne	.+12     	; 0x1050 <vfprintf+0x23a>
    1044:	3f ee       	ldi	r19, 0xEF	; 239
    1046:	b3 2e       	mov	r11, r19
    1048:	b2 22       	and	r11, r18
    104a:	2a e0       	ldi	r18, 0x0A	; 10
    104c:	30 e0       	ldi	r19, 0x00	; 0
    104e:	25 c0       	rjmp	.+74     	; 0x109a <vfprintf+0x284>
    1050:	99 ef       	ldi	r25, 0xF9	; 249
    1052:	b9 2e       	mov	r11, r25
    1054:	b2 22       	and	r11, r18
    1056:	8f 36       	cpi	r24, 0x6F	; 111
    1058:	c1 f0       	breq	.+48     	; 0x108a <vfprintf+0x274>
    105a:	80 37       	cpi	r24, 0x70	; 112
    105c:	20 f4       	brcc	.+8      	; 0x1066 <vfprintf+0x250>
    105e:	88 35       	cpi	r24, 0x58	; 88
    1060:	09 f0       	breq	.+2      	; 0x1064 <vfprintf+0x24e>
    1062:	b5 c0       	rjmp	.+362    	; 0x11ce <vfprintf+0x3b8>
    1064:	0d c0       	rjmp	.+26     	; 0x1080 <vfprintf+0x26a>
    1066:	80 37       	cpi	r24, 0x70	; 112
    1068:	21 f0       	breq	.+8      	; 0x1072 <vfprintf+0x25c>
    106a:	88 37       	cpi	r24, 0x78	; 120
    106c:	09 f0       	breq	.+2      	; 0x1070 <vfprintf+0x25a>
    106e:	af c0       	rjmp	.+350    	; 0x11ce <vfprintf+0x3b8>
    1070:	02 c0       	rjmp	.+4      	; 0x1076 <vfprintf+0x260>
    1072:	20 e1       	ldi	r18, 0x10	; 16
    1074:	b2 2a       	or	r11, r18
    1076:	b4 fe       	sbrs	r11, 4
    1078:	0b c0       	rjmp	.+22     	; 0x1090 <vfprintf+0x27a>
    107a:	84 e0       	ldi	r24, 0x04	; 4
    107c:	b8 2a       	or	r11, r24
    107e:	08 c0       	rjmp	.+16     	; 0x1090 <vfprintf+0x27a>
    1080:	b4 fe       	sbrs	r11, 4
    1082:	09 c0       	rjmp	.+18     	; 0x1096 <vfprintf+0x280>
    1084:	e6 e0       	ldi	r30, 0x06	; 6
    1086:	be 2a       	or	r11, r30
    1088:	06 c0       	rjmp	.+12     	; 0x1096 <vfprintf+0x280>
    108a:	28 e0       	ldi	r18, 0x08	; 8
    108c:	30 e0       	ldi	r19, 0x00	; 0
    108e:	05 c0       	rjmp	.+10     	; 0x109a <vfprintf+0x284>
    1090:	20 e1       	ldi	r18, 0x10	; 16
    1092:	30 e0       	ldi	r19, 0x00	; 0
    1094:	02 c0       	rjmp	.+4      	; 0x109a <vfprintf+0x284>
    1096:	20 e1       	ldi	r18, 0x10	; 16
    1098:	32 e0       	ldi	r19, 0x02	; 2
    109a:	b7 fe       	sbrs	r11, 7
    109c:	08 c0       	rjmp	.+16     	; 0x10ae <vfprintf+0x298>
    109e:	f8 01       	movw	r30, r16
    10a0:	60 81       	ld	r22, Z
    10a2:	71 81       	ldd	r23, Z+1	; 0x01
    10a4:	82 81       	ldd	r24, Z+2	; 0x02
    10a6:	93 81       	ldd	r25, Z+3	; 0x03
    10a8:	0c 5f       	subi	r16, 0xFC	; 252
    10aa:	1f 4f       	sbci	r17, 0xFF	; 255
    10ac:	07 c0       	rjmp	.+14     	; 0x10bc <vfprintf+0x2a6>
    10ae:	f8 01       	movw	r30, r16
    10b0:	60 81       	ld	r22, Z
    10b2:	71 81       	ldd	r23, Z+1	; 0x01
    10b4:	80 e0       	ldi	r24, 0x00	; 0
    10b6:	90 e0       	ldi	r25, 0x00	; 0
    10b8:	0e 5f       	subi	r16, 0xFE	; 254
    10ba:	1f 4f       	sbci	r17, 0xFF	; 255
    10bc:	a2 01       	movw	r20, r4
    10be:	0e 94 34 09 	call	0x1268	; 0x1268 <__ultoa_invert>
    10c2:	78 2e       	mov	r7, r24
    10c4:	74 18       	sub	r7, r4
    10c6:	ff e7       	ldi	r31, 0x7F	; 127
    10c8:	bf 22       	and	r11, r31
    10ca:	b6 fe       	sbrs	r11, 6
    10cc:	0b c0       	rjmp	.+22     	; 0x10e4 <vfprintf+0x2ce>
    10ce:	2e ef       	ldi	r18, 0xFE	; 254
    10d0:	b2 22       	and	r11, r18
    10d2:	7e 14       	cp	r7, r14
    10d4:	38 f4       	brcc	.+14     	; 0x10e4 <vfprintf+0x2ce>
    10d6:	b4 fe       	sbrs	r11, 4
    10d8:	07 c0       	rjmp	.+14     	; 0x10e8 <vfprintf+0x2d2>
    10da:	b2 fc       	sbrc	r11, 2
    10dc:	05 c0       	rjmp	.+10     	; 0x10e8 <vfprintf+0x2d2>
    10de:	8f ee       	ldi	r24, 0xEF	; 239
    10e0:	b8 22       	and	r11, r24
    10e2:	02 c0       	rjmp	.+4      	; 0x10e8 <vfprintf+0x2d2>
    10e4:	a7 2c       	mov	r10, r7
    10e6:	01 c0       	rjmp	.+2      	; 0x10ea <vfprintf+0x2d4>
    10e8:	ae 2c       	mov	r10, r14
    10ea:	8b 2d       	mov	r24, r11
    10ec:	90 e0       	ldi	r25, 0x00	; 0
    10ee:	b4 fe       	sbrs	r11, 4
    10f0:	0d c0       	rjmp	.+26     	; 0x110c <vfprintf+0x2f6>
    10f2:	fe 01       	movw	r30, r28
    10f4:	e7 0d       	add	r30, r7
    10f6:	f1 1d       	adc	r31, r1
    10f8:	20 81       	ld	r18, Z
    10fa:	20 33       	cpi	r18, 0x30	; 48
    10fc:	19 f4       	brne	.+6      	; 0x1104 <vfprintf+0x2ee>
    10fe:	e9 ee       	ldi	r30, 0xE9	; 233
    1100:	be 22       	and	r11, r30
    1102:	09 c0       	rjmp	.+18     	; 0x1116 <vfprintf+0x300>
    1104:	a3 94       	inc	r10
    1106:	b2 fe       	sbrs	r11, 2
    1108:	06 c0       	rjmp	.+12     	; 0x1116 <vfprintf+0x300>
    110a:	04 c0       	rjmp	.+8      	; 0x1114 <vfprintf+0x2fe>
    110c:	86 78       	andi	r24, 0x86	; 134
    110e:	90 70       	andi	r25, 0x00	; 0
    1110:	00 97       	sbiw	r24, 0x00	; 0
    1112:	09 f0       	breq	.+2      	; 0x1116 <vfprintf+0x300>
    1114:	a3 94       	inc	r10
    1116:	8b 2c       	mov	r8, r11
    1118:	99 24       	eor	r9, r9
    111a:	b3 fc       	sbrc	r11, 3
    111c:	14 c0       	rjmp	.+40     	; 0x1146 <vfprintf+0x330>
    111e:	b0 fe       	sbrs	r11, 0
    1120:	0f c0       	rjmp	.+30     	; 0x1140 <vfprintf+0x32a>
    1122:	af 14       	cp	r10, r15
    1124:	28 f4       	brcc	.+10     	; 0x1130 <vfprintf+0x31a>
    1126:	e7 2c       	mov	r14, r7
    1128:	ef 0c       	add	r14, r15
    112a:	ea 18       	sub	r14, r10
    112c:	af 2c       	mov	r10, r15
    112e:	08 c0       	rjmp	.+16     	; 0x1140 <vfprintf+0x32a>
    1130:	e7 2c       	mov	r14, r7
    1132:	06 c0       	rjmp	.+12     	; 0x1140 <vfprintf+0x32a>
    1134:	80 e2       	ldi	r24, 0x20	; 32
    1136:	90 e0       	ldi	r25, 0x00	; 0
    1138:	b6 01       	movw	r22, r12
    113a:	0e 94 08 09 	call	0x1210	; 0x1210 <fputc>
    113e:	a3 94       	inc	r10
    1140:	af 14       	cp	r10, r15
    1142:	c0 f3       	brcs	.-16     	; 0x1134 <vfprintf+0x31e>
    1144:	04 c0       	rjmp	.+8      	; 0x114e <vfprintf+0x338>
    1146:	af 14       	cp	r10, r15
    1148:	10 f4       	brcc	.+4      	; 0x114e <vfprintf+0x338>
    114a:	fa 18       	sub	r15, r10
    114c:	01 c0       	rjmp	.+2      	; 0x1150 <vfprintf+0x33a>
    114e:	ff 24       	eor	r15, r15
    1150:	84 fe       	sbrs	r8, 4
    1152:	0f c0       	rjmp	.+30     	; 0x1172 <vfprintf+0x35c>
    1154:	80 e3       	ldi	r24, 0x30	; 48
    1156:	90 e0       	ldi	r25, 0x00	; 0
    1158:	b6 01       	movw	r22, r12
    115a:	0e 94 08 09 	call	0x1210	; 0x1210 <fputc>
    115e:	82 fe       	sbrs	r8, 2
    1160:	1f c0       	rjmp	.+62     	; 0x11a0 <vfprintf+0x38a>
    1162:	81 fe       	sbrs	r8, 1
    1164:	03 c0       	rjmp	.+6      	; 0x116c <vfprintf+0x356>
    1166:	88 e5       	ldi	r24, 0x58	; 88
    1168:	90 e0       	ldi	r25, 0x00	; 0
    116a:	10 c0       	rjmp	.+32     	; 0x118c <vfprintf+0x376>
    116c:	88 e7       	ldi	r24, 0x78	; 120
    116e:	90 e0       	ldi	r25, 0x00	; 0
    1170:	0d c0       	rjmp	.+26     	; 0x118c <vfprintf+0x376>
    1172:	c4 01       	movw	r24, r8
    1174:	86 78       	andi	r24, 0x86	; 134
    1176:	90 70       	andi	r25, 0x00	; 0
    1178:	00 97       	sbiw	r24, 0x00	; 0
    117a:	91 f0       	breq	.+36     	; 0x11a0 <vfprintf+0x38a>
    117c:	81 fc       	sbrc	r8, 1
    117e:	02 c0       	rjmp	.+4      	; 0x1184 <vfprintf+0x36e>
    1180:	80 e2       	ldi	r24, 0x20	; 32
    1182:	01 c0       	rjmp	.+2      	; 0x1186 <vfprintf+0x370>
    1184:	8b e2       	ldi	r24, 0x2B	; 43
    1186:	b7 fc       	sbrc	r11, 7
    1188:	8d e2       	ldi	r24, 0x2D	; 45
    118a:	90 e0       	ldi	r25, 0x00	; 0
    118c:	b6 01       	movw	r22, r12
    118e:	0e 94 08 09 	call	0x1210	; 0x1210 <fputc>
    1192:	06 c0       	rjmp	.+12     	; 0x11a0 <vfprintf+0x38a>
    1194:	80 e3       	ldi	r24, 0x30	; 48
    1196:	90 e0       	ldi	r25, 0x00	; 0
    1198:	b6 01       	movw	r22, r12
    119a:	0e 94 08 09 	call	0x1210	; 0x1210 <fputc>
    119e:	ea 94       	dec	r14
    11a0:	7e 14       	cp	r7, r14
    11a2:	c0 f3       	brcs	.-16     	; 0x1194 <vfprintf+0x37e>
    11a4:	7a 94       	dec	r7
    11a6:	f2 01       	movw	r30, r4
    11a8:	e7 0d       	add	r30, r7
    11aa:	f1 1d       	adc	r31, r1
    11ac:	80 81       	ld	r24, Z
    11ae:	90 e0       	ldi	r25, 0x00	; 0
    11b0:	b6 01       	movw	r22, r12
    11b2:	0e 94 08 09 	call	0x1210	; 0x1210 <fputc>
    11b6:	77 20       	and	r7, r7
    11b8:	a9 f7       	brne	.-22     	; 0x11a4 <vfprintf+0x38e>
    11ba:	06 c0       	rjmp	.+12     	; 0x11c8 <vfprintf+0x3b2>
    11bc:	80 e2       	ldi	r24, 0x20	; 32
    11be:	90 e0       	ldi	r25, 0x00	; 0
    11c0:	b6 01       	movw	r22, r12
    11c2:	0e 94 08 09 	call	0x1210	; 0x1210 <fputc>
    11c6:	fa 94       	dec	r15
    11c8:	ff 20       	and	r15, r15
    11ca:	c1 f7       	brne	.-16     	; 0x11bc <vfprintf+0x3a6>
    11cc:	37 ce       	rjmp	.-914    	; 0xe3c <vfprintf+0x26>
    11ce:	f6 01       	movw	r30, r12
    11d0:	26 81       	ldd	r18, Z+6	; 0x06
    11d2:	37 81       	ldd	r19, Z+7	; 0x07
    11d4:	02 c0       	rjmp	.+4      	; 0x11da <vfprintf+0x3c4>
    11d6:	2f ef       	ldi	r18, 0xFF	; 255
    11d8:	3f ef       	ldi	r19, 0xFF	; 255
    11da:	c9 01       	movw	r24, r18
    11dc:	2c 96       	adiw	r28, 0x0c	; 12
    11de:	e2 e1       	ldi	r30, 0x12	; 18
    11e0:	0c 94 ae 09 	jmp	0x135c	; 0x135c <__epilogue_restores__>

000011e4 <strnlen_P>:
    11e4:	fc 01       	movw	r30, r24
    11e6:	05 90       	lpm	r0, Z+
    11e8:	61 50       	subi	r22, 0x01	; 1
    11ea:	70 40       	sbci	r23, 0x00	; 0
    11ec:	01 10       	cpse	r0, r1
    11ee:	d8 f7       	brcc	.-10     	; 0x11e6 <strnlen_P+0x2>
    11f0:	80 95       	com	r24
    11f2:	90 95       	com	r25
    11f4:	8e 0f       	add	r24, r30
    11f6:	9f 1f       	adc	r25, r31
    11f8:	08 95       	ret

000011fa <strnlen>:
    11fa:	fc 01       	movw	r30, r24
    11fc:	61 50       	subi	r22, 0x01	; 1
    11fe:	70 40       	sbci	r23, 0x00	; 0
    1200:	01 90       	ld	r0, Z+
    1202:	01 10       	cpse	r0, r1
    1204:	d8 f7       	brcc	.-10     	; 0x11fc <strnlen+0x2>
    1206:	80 95       	com	r24
    1208:	90 95       	com	r25
    120a:	8e 0f       	add	r24, r30
    120c:	9f 1f       	adc	r25, r31
    120e:	08 95       	ret

00001210 <fputc>:
    1210:	0f 93       	push	r16
    1212:	1f 93       	push	r17
    1214:	cf 93       	push	r28
    1216:	df 93       	push	r29
    1218:	8c 01       	movw	r16, r24
    121a:	eb 01       	movw	r28, r22
    121c:	8b 81       	ldd	r24, Y+3	; 0x03
    121e:	81 ff       	sbrs	r24, 1
    1220:	1b c0       	rjmp	.+54     	; 0x1258 <fputc+0x48>
    1222:	82 ff       	sbrs	r24, 2
    1224:	0d c0       	rjmp	.+26     	; 0x1240 <fputc+0x30>
    1226:	2e 81       	ldd	r18, Y+6	; 0x06
    1228:	3f 81       	ldd	r19, Y+7	; 0x07
    122a:	8c 81       	ldd	r24, Y+4	; 0x04
    122c:	9d 81       	ldd	r25, Y+5	; 0x05
    122e:	28 17       	cp	r18, r24
    1230:	39 07       	cpc	r19, r25
    1232:	64 f4       	brge	.+24     	; 0x124c <fputc+0x3c>
    1234:	e8 81       	ld	r30, Y
    1236:	f9 81       	ldd	r31, Y+1	; 0x01
    1238:	01 93       	st	Z+, r16
    123a:	f9 83       	std	Y+1, r31	; 0x01
    123c:	e8 83       	st	Y, r30
    123e:	06 c0       	rjmp	.+12     	; 0x124c <fputc+0x3c>
    1240:	e8 85       	ldd	r30, Y+8	; 0x08
    1242:	f9 85       	ldd	r31, Y+9	; 0x09
    1244:	80 2f       	mov	r24, r16
    1246:	09 95       	icall
    1248:	00 97       	sbiw	r24, 0x00	; 0
    124a:	31 f4       	brne	.+12     	; 0x1258 <fputc+0x48>
    124c:	8e 81       	ldd	r24, Y+6	; 0x06
    124e:	9f 81       	ldd	r25, Y+7	; 0x07
    1250:	01 96       	adiw	r24, 0x01	; 1
    1252:	9f 83       	std	Y+7, r25	; 0x07
    1254:	8e 83       	std	Y+6, r24	; 0x06
    1256:	02 c0       	rjmp	.+4      	; 0x125c <fputc+0x4c>
    1258:	0f ef       	ldi	r16, 0xFF	; 255
    125a:	1f ef       	ldi	r17, 0xFF	; 255
    125c:	c8 01       	movw	r24, r16
    125e:	df 91       	pop	r29
    1260:	cf 91       	pop	r28
    1262:	1f 91       	pop	r17
    1264:	0f 91       	pop	r16
    1266:	08 95       	ret

00001268 <__ultoa_invert>:
    1268:	fa 01       	movw	r30, r20
    126a:	aa 27       	eor	r26, r26
    126c:	28 30       	cpi	r18, 0x08	; 8
    126e:	51 f1       	breq	.+84     	; 0x12c4 <__ultoa_invert+0x5c>
    1270:	20 31       	cpi	r18, 0x10	; 16
    1272:	81 f1       	breq	.+96     	; 0x12d4 <__ultoa_invert+0x6c>
    1274:	e8 94       	clt
    1276:	6f 93       	push	r22
    1278:	6e 7f       	andi	r22, 0xFE	; 254
    127a:	6e 5f       	subi	r22, 0xFE	; 254
    127c:	7f 4f       	sbci	r23, 0xFF	; 255
    127e:	8f 4f       	sbci	r24, 0xFF	; 255
    1280:	9f 4f       	sbci	r25, 0xFF	; 255
    1282:	af 4f       	sbci	r26, 0xFF	; 255
    1284:	b1 e0       	ldi	r27, 0x01	; 1
    1286:	3e d0       	rcall	.+124    	; 0x1304 <__ultoa_invert+0x9c>
    1288:	b4 e0       	ldi	r27, 0x04	; 4
    128a:	3c d0       	rcall	.+120    	; 0x1304 <__ultoa_invert+0x9c>
    128c:	67 0f       	add	r22, r23
    128e:	78 1f       	adc	r23, r24
    1290:	89 1f       	adc	r24, r25
    1292:	9a 1f       	adc	r25, r26
    1294:	a1 1d       	adc	r26, r1
    1296:	68 0f       	add	r22, r24
    1298:	79 1f       	adc	r23, r25
    129a:	8a 1f       	adc	r24, r26
    129c:	91 1d       	adc	r25, r1
    129e:	a1 1d       	adc	r26, r1
    12a0:	6a 0f       	add	r22, r26
    12a2:	71 1d       	adc	r23, r1
    12a4:	81 1d       	adc	r24, r1
    12a6:	91 1d       	adc	r25, r1
    12a8:	a1 1d       	adc	r26, r1
    12aa:	20 d0       	rcall	.+64     	; 0x12ec <__ultoa_invert+0x84>
    12ac:	09 f4       	brne	.+2      	; 0x12b0 <__ultoa_invert+0x48>
    12ae:	68 94       	set
    12b0:	3f 91       	pop	r19
    12b2:	2a e0       	ldi	r18, 0x0A	; 10
    12b4:	26 9f       	mul	r18, r22
    12b6:	11 24       	eor	r1, r1
    12b8:	30 19       	sub	r19, r0
    12ba:	30 5d       	subi	r19, 0xD0	; 208
    12bc:	31 93       	st	Z+, r19
    12be:	de f6       	brtc	.-74     	; 0x1276 <__ultoa_invert+0xe>
    12c0:	cf 01       	movw	r24, r30
    12c2:	08 95       	ret
    12c4:	46 2f       	mov	r20, r22
    12c6:	47 70       	andi	r20, 0x07	; 7
    12c8:	40 5d       	subi	r20, 0xD0	; 208
    12ca:	41 93       	st	Z+, r20
    12cc:	b3 e0       	ldi	r27, 0x03	; 3
    12ce:	0f d0       	rcall	.+30     	; 0x12ee <__ultoa_invert+0x86>
    12d0:	c9 f7       	brne	.-14     	; 0x12c4 <__ultoa_invert+0x5c>
    12d2:	f6 cf       	rjmp	.-20     	; 0x12c0 <__ultoa_invert+0x58>
    12d4:	46 2f       	mov	r20, r22
    12d6:	4f 70       	andi	r20, 0x0F	; 15
    12d8:	40 5d       	subi	r20, 0xD0	; 208
    12da:	4a 33       	cpi	r20, 0x3A	; 58
    12dc:	18 f0       	brcs	.+6      	; 0x12e4 <__ultoa_invert+0x7c>
    12de:	49 5d       	subi	r20, 0xD9	; 217
    12e0:	31 fd       	sbrc	r19, 1
    12e2:	40 52       	subi	r20, 0x20	; 32
    12e4:	41 93       	st	Z+, r20
    12e6:	02 d0       	rcall	.+4      	; 0x12ec <__ultoa_invert+0x84>
    12e8:	a9 f7       	brne	.-22     	; 0x12d4 <__ultoa_invert+0x6c>
    12ea:	ea cf       	rjmp	.-44     	; 0x12c0 <__ultoa_invert+0x58>
    12ec:	b4 e0       	ldi	r27, 0x04	; 4
    12ee:	a6 95       	lsr	r26
    12f0:	97 95       	ror	r25
    12f2:	87 95       	ror	r24
    12f4:	77 95       	ror	r23
    12f6:	67 95       	ror	r22
    12f8:	ba 95       	dec	r27
    12fa:	c9 f7       	brne	.-14     	; 0x12ee <__ultoa_invert+0x86>
    12fc:	00 97       	sbiw	r24, 0x00	; 0
    12fe:	61 05       	cpc	r22, r1
    1300:	71 05       	cpc	r23, r1
    1302:	08 95       	ret
    1304:	9b 01       	movw	r18, r22
    1306:	ac 01       	movw	r20, r24
    1308:	0a 2e       	mov	r0, r26
    130a:	06 94       	lsr	r0
    130c:	57 95       	ror	r21
    130e:	47 95       	ror	r20
    1310:	37 95       	ror	r19
    1312:	27 95       	ror	r18
    1314:	ba 95       	dec	r27
    1316:	c9 f7       	brne	.-14     	; 0x130a <__ultoa_invert+0xa2>
    1318:	62 0f       	add	r22, r18
    131a:	73 1f       	adc	r23, r19
    131c:	84 1f       	adc	r24, r20
    131e:	95 1f       	adc	r25, r21
    1320:	a0 1d       	adc	r26, r0
    1322:	08 95       	ret

00001324 <__prologue_saves__>:
    1324:	2f 92       	push	r2
    1326:	3f 92       	push	r3
    1328:	4f 92       	push	r4
    132a:	5f 92       	push	r5
    132c:	6f 92       	push	r6
    132e:	7f 92       	push	r7
    1330:	8f 92       	push	r8
    1332:	9f 92       	push	r9
    1334:	af 92       	push	r10
    1336:	bf 92       	push	r11
    1338:	cf 92       	push	r12
    133a:	df 92       	push	r13
    133c:	ef 92       	push	r14
    133e:	ff 92       	push	r15
    1340:	0f 93       	push	r16
    1342:	1f 93       	push	r17
    1344:	cf 93       	push	r28
    1346:	df 93       	push	r29
    1348:	cd b7       	in	r28, 0x3d	; 61
    134a:	de b7       	in	r29, 0x3e	; 62
    134c:	ca 1b       	sub	r28, r26
    134e:	db 0b       	sbc	r29, r27
    1350:	0f b6       	in	r0, 0x3f	; 63
    1352:	f8 94       	cli
    1354:	de bf       	out	0x3e, r29	; 62
    1356:	0f be       	out	0x3f, r0	; 63
    1358:	cd bf       	out	0x3d, r28	; 61
    135a:	09 94       	ijmp

0000135c <__epilogue_restores__>:
    135c:	2a 88       	ldd	r2, Y+18	; 0x12
    135e:	39 88       	ldd	r3, Y+17	; 0x11
    1360:	48 88       	ldd	r4, Y+16	; 0x10
    1362:	5f 84       	ldd	r5, Y+15	; 0x0f
    1364:	6e 84       	ldd	r6, Y+14	; 0x0e
    1366:	7d 84       	ldd	r7, Y+13	; 0x0d
    1368:	8c 84       	ldd	r8, Y+12	; 0x0c
    136a:	9b 84       	ldd	r9, Y+11	; 0x0b
    136c:	aa 84       	ldd	r10, Y+10	; 0x0a
    136e:	b9 84       	ldd	r11, Y+9	; 0x09
    1370:	c8 84       	ldd	r12, Y+8	; 0x08
    1372:	df 80       	ldd	r13, Y+7	; 0x07
    1374:	ee 80       	ldd	r14, Y+6	; 0x06
    1376:	fd 80       	ldd	r15, Y+5	; 0x05
    1378:	0c 81       	ldd	r16, Y+4	; 0x04
    137a:	1b 81       	ldd	r17, Y+3	; 0x03
    137c:	aa 81       	ldd	r26, Y+2	; 0x02
    137e:	b9 81       	ldd	r27, Y+1	; 0x01
    1380:	ce 0f       	add	r28, r30
    1382:	d1 1d       	adc	r29, r1
    1384:	0f b6       	in	r0, 0x3f	; 63
    1386:	f8 94       	cli
    1388:	de bf       	out	0x3e, r29	; 62
    138a:	0f be       	out	0x3f, r0	; 63
    138c:	cd bf       	out	0x3d, r28	; 61
    138e:	ed 01       	movw	r28, r26
    1390:	08 95       	ret

00001392 <_exit>:
    1392:	f8 94       	cli

00001394 <__stop_program>:
    1394:	ff cf       	rjmp	.-2      	; 0x1394 <__stop_program>
